
system：     文件格式 elf64-x86-64


Disassembly of section .text:

ffff800000100000 <_start>:
ffff800000100000:	66 8c d0             	mov    %ss,%ax
ffff800000100003:	8e d8                	mov    %eax,%ds
ffff800000100005:	8e c0                	mov    %eax,%es
ffff800000100007:	8e e0                	mov    %eax,%fs
ffff800000100009:	8e d0                	mov    %eax,%ss
ffff80000010000b:	bc 00 7e 00 00       	mov    $0x7e00,%esp
ffff800000100010:	48 c7 c0 00 10 10 00 	mov    $0x101000,%rax
ffff800000100017:	0f 22 d8             	mov    %rax,%cr3
ffff80000010001a:	0f 01 15 57 db 00 00 	lgdt   0xdb57(%rip)        # ffff80000010db78 <GDT_END>
ffff800000100021:	0f 01 1d 5a eb 00 00 	lidt   0xeb5a(%rip)        # ffff80000010eb82 <IDT_END>
ffff800000100028:	66 b8 10 00          	mov    $0x10,%ax
ffff80000010002c:	8e d8                	mov    %eax,%ds
ffff80000010002e:	8e c0                	mov    %eax,%es
ffff800000100030:	8e e0                	mov    %eax,%fs
ffff800000100032:	8e e8                	mov    %eax,%gs
ffff800000100034:	8e d0                	mov    %eax,%ss
ffff800000100036:	48 8b 25 81 01 00 00 	mov    0x181(%rip),%rsp        # ffff8000001001be <_stack_start>
ffff80000010003d:	48 c7 c0 00 10 10 00 	mov    $0x101000,%rax
ffff800000100044:	0f 22 d8             	mov    %rax,%cr3
ffff800000100047:	48 8b 05 05 00 00 00 	mov    0x5(%rip),%rax        # ffff800000100053 <switch_seg>
ffff80000010004e:	6a 08                	pushq  $0x8
ffff800000100050:	50                   	push   %rax
ffff800000100051:	48 cb                	lretq  

ffff800000100053 <switch_seg>:
ffff800000100053:	5b                   	pop    %rbx
ffff800000100054:	00 10                	add    %dl,(%rax)
ffff800000100056:	00 00                	add    %al,(%rax)
ffff800000100058:	80 ff ff             	cmp    $0xff,%bh

ffff80000010005b <entry64>:
ffff80000010005b:	48 c7 c0 10 00 00 00 	mov    $0x10,%rax
ffff800000100062:	48 8e d8             	mov    %rax,%ds
ffff800000100065:	48 8e c0             	mov    %rax,%es
ffff800000100068:	48 8e e8             	mov    %rax,%gs
ffff80000010006b:	48 8e d0             	mov    %rax,%ss
ffff80000010006e:	48 8b 25 49 01 00 00 	mov    0x149(%rip),%rsp        # ffff8000001001be <_stack_start>

ffff800000100075 <setup_IDT>:
ffff800000100075:	48 8d 15 a6 00 00 00 	lea    0xa6(%rip),%rdx        # ffff800000100122 <ignore_int>
ffff80000010007c:	48 c7 c0 00 00 08 00 	mov    $0x80000,%rax
ffff800000100083:	66 89 d0             	mov    %dx,%ax
ffff800000100086:	48 b9 00 00 00 00 00 	movabs $0x8e0000000000,%rcx
ffff80000010008d:	8e 00 00 
ffff800000100090:	48 01 c8             	add    %rcx,%rax
ffff800000100093:	89 d1                	mov    %edx,%ecx
ffff800000100095:	c1 e9 10             	shr    $0x10,%ecx
ffff800000100098:	48 c1 e1 30          	shl    $0x30,%rcx
ffff80000010009c:	48 01 c8             	add    %rcx,%rax
ffff80000010009f:	48 c1 ea 20          	shr    $0x20,%rdx
ffff8000001000a3:	48 8d 3d d8 da 00 00 	lea    0xdad8(%rip),%rdi        # ffff80000010db82 <IDT_Table>
ffff8000001000aa:	48 c7 c1 00 01 00 00 	mov    $0x100,%rcx

ffff8000001000b1 <rp_sidt>:
ffff8000001000b1:	48 89 07             	mov    %rax,(%rdi)
ffff8000001000b4:	48 89 57 08          	mov    %rdx,0x8(%rdi)
ffff8000001000b8:	48 83 c7 10          	add    $0x10,%rdi
ffff8000001000bc:	48 ff c9             	dec    %rcx
ffff8000001000bf:	75 f0                	jne    ffff8000001000b1 <rp_sidt>

ffff8000001000c1 <setup_TSS64>:
ffff8000001000c1:	48 8d 15 c4 ea 00 00 	lea    0xeac4(%rip),%rdx        # ffff80000010eb8c <TSS64_Table>
ffff8000001000c8:	48 31 c0             	xor    %rax,%rax
ffff8000001000cb:	48 31 c9             	xor    %rcx,%rcx
ffff8000001000ce:	48 c7 c0 89 00 00 00 	mov    $0x89,%rax
ffff8000001000d5:	48 c1 e0 28          	shl    $0x28,%rax
ffff8000001000d9:	89 d1                	mov    %edx,%ecx
ffff8000001000db:	c1 e9 18             	shr    $0x18,%ecx
ffff8000001000de:	48 c1 e1 38          	shl    $0x38,%rcx
ffff8000001000e2:	48 01 c8             	add    %rcx,%rax
ffff8000001000e5:	48 31 c9             	xor    %rcx,%rcx
ffff8000001000e8:	89 d1                	mov    %edx,%ecx
ffff8000001000ea:	81 e1 ff ff ff 00    	and    $0xffffff,%ecx
ffff8000001000f0:	48 c1 e1 10          	shl    $0x10,%rcx
ffff8000001000f4:	48 01 c8             	add    %rcx,%rax
ffff8000001000f7:	48 83 c0 67          	add    $0x67,%rax
ffff8000001000fb:	48 8d 3d de d9 00 00 	lea    0xd9de(%rip),%rdi        # ffff80000010dae0 <GDT_Table>
ffff800000100102:	48 89 47 50          	mov    %rax,0x50(%rdi)
ffff800000100106:	48 c1 ea 20          	shr    $0x20,%rdx
ffff80000010010a:	48 89 57 58          	mov    %rdx,0x58(%rdi)
ffff80000010010e:	48 8b 05 05 00 00 00 	mov    0x5(%rip),%rax        # ffff80000010011a <go_to_kernel>
ffff800000100115:	6a 08                	pushq  $0x8
ffff800000100117:	50                   	push   %rax
ffff800000100118:	48 cb                	lretq  

ffff80000010011a <go_to_kernel>:
ffff80000010011a:	90                   	nop
ffff80000010011b:	43 10 00             	rex.XB adc %al,(%r8)
ffff80000010011e:	00                   	.byte 0x0
ffff80000010011f:	80 ff ff             	cmp    $0xff,%bh

ffff800000100122 <ignore_int>:
ffff800000100122:	fc                   	cld    
ffff800000100123:	50                   	push   %rax
ffff800000100124:	53                   	push   %rbx
ffff800000100125:	51                   	push   %rcx
ffff800000100126:	52                   	push   %rdx
ffff800000100127:	55                   	push   %rbp
ffff800000100128:	57                   	push   %rdi
ffff800000100129:	56                   	push   %rsi
ffff80000010012a:	41 50                	push   %r8
ffff80000010012c:	41 51                	push   %r9
ffff80000010012e:	41 52                	push   %r10
ffff800000100130:	41 53                	push   %r11
ffff800000100132:	41 54                	push   %r12
ffff800000100134:	41 55                	push   %r13
ffff800000100136:	41 56                	push   %r14
ffff800000100138:	41 57                	push   %r15
ffff80000010013a:	48 8c c0             	mov    %es,%rax
ffff80000010013d:	50                   	push   %rax
ffff80000010013e:	48 8c d8             	mov    %ds,%rax
ffff800000100141:	50                   	push   %rax
ffff800000100142:	48 c7 c0 10 00 00 00 	mov    $0x10,%rax
ffff800000100149:	48 8e d8             	mov    %rax,%ds
ffff80000010014c:	48 8e c0             	mov    %rax,%es
ffff80000010014f:	48 8d 05 45 00 00 00 	lea    0x45(%rip),%rax        # ffff80000010019b <int_msg>
ffff800000100156:	50                   	push   %rax
ffff800000100157:	48 89 c2             	mov    %rax,%rdx
ffff80000010015a:	48 c7 c6 00 00 00 00 	mov    $0x0,%rsi
ffff800000100161:	48 c7 c7 00 00 ff 00 	mov    $0xff0000,%rdi
ffff800000100168:	48 c7 c0 00 00 00 00 	mov    $0x0,%rax
ffff80000010016f:	e8 5c 55 00 00       	callq  ffff8000001056d0 <color_printk>
ffff800000100174:	48 83 c4 08          	add    $0x8,%rsp

ffff800000100178 <Loop>:
ffff800000100178:	eb fe                	jmp    ffff800000100178 <Loop>
ffff80000010017a:	58                   	pop    %rax
ffff80000010017b:	48 8e d8             	mov    %rax,%ds
ffff80000010017e:	58                   	pop    %rax
ffff80000010017f:	48 8e c0             	mov    %rax,%es
ffff800000100182:	41 5f                	pop    %r15
ffff800000100184:	41 5e                	pop    %r14
ffff800000100186:	41 5d                	pop    %r13
ffff800000100188:	41 5c                	pop    %r12
ffff80000010018a:	41 5b                	pop    %r11
ffff80000010018c:	41 5a                	pop    %r10
ffff80000010018e:	41 59                	pop    %r9
ffff800000100190:	41 58                	pop    %r8
ffff800000100192:	5e                   	pop    %rsi
ffff800000100193:	5f                   	pop    %rdi
ffff800000100194:	5d                   	pop    %rbp
ffff800000100195:	5a                   	pop    %rdx
ffff800000100196:	59                   	pop    %rcx
ffff800000100197:	5b                   	pop    %rbx
ffff800000100198:	58                   	pop    %rax
ffff800000100199:	48 cf                	iretq  

ffff80000010019b <int_msg>:
ffff80000010019b:	55                   	push   %rbp
ffff80000010019c:	6e                   	outsb  %ds:(%rsi),(%dx)
ffff80000010019d:	6b 6e 6f 77          	imul   $0x77,0x6f(%rsi),%ebp
ffff8000001001a1:	6e                   	outsb  %ds:(%rsi),(%dx)
ffff8000001001a2:	20 69 6e             	and    %ch,0x6e(%rcx)
ffff8000001001a5:	74 65                	je     ffff80000010020c <_stack_start+0x4e>
ffff8000001001a7:	72 72                	jb     ffff80000010021b <_stack_start+0x5d>
ffff8000001001a9:	75 70                	jne    ffff80000010021b <_stack_start+0x5d>
ffff8000001001ab:	74 20                	je     ffff8000001001cd <_stack_start+0xf>
ffff8000001001ad:	6f                   	outsl  %ds:(%rsi),(%dx)
ffff8000001001ae:	72 20                	jb     ffff8000001001d0 <_stack_start+0x12>
ffff8000001001b0:	66 61                	data16 (bad) 
ffff8000001001b2:	75 6c                	jne    ffff800000100220 <_stack_start+0x62>
ffff8000001001b4:	74 20                	je     ffff8000001001d6 <_stack_start+0x18>
ffff8000001001b6:	61                   	(bad)  
ffff8000001001b7:	74 20                	je     ffff8000001001d9 <_stack_start+0x1b>
ffff8000001001b9:	52                   	push   %rdx
ffff8000001001ba:	49 50                	rex.WB push %r8
ffff8000001001bc:	0a 00                	or     (%rax),%al

ffff8000001001be <_stack_start>:
ffff8000001001be:	00 80 12 00 00 80    	add    %al,-0x7fffffee(%rax)
ffff8000001001c4:	ff                   	(bad)  
ffff8000001001c5:	ff 66 90             	jmpq   *-0x70(%rsi)
	...

ffff800000101000 <__PML4E>:
ffff800000101000:	07                   	(bad)  
ffff800000101001:	20 10                	and    %dl,(%rax)
	...
ffff8000001017ff:	00 07                	add    %al,(%rdi)
ffff800000101801:	20 10                	and    %dl,(%rax)
	...

ffff800000102000 <__PDPTE>:
ffff800000102000:	07                   	(bad)  
ffff800000102001:	30 10                	xor    %dl,(%rax)
	...

ffff800000103000 <__PDE>:
ffff800000103000:	87 00                	xchg   %eax,(%rax)
ffff800000103002:	00 00                	add    %al,(%rax)
ffff800000103004:	00 00                	add    %al,(%rax)
ffff800000103006:	00 00                	add    %al,(%rax)
ffff800000103008:	87 00                	xchg   %eax,(%rax)
ffff80000010300a:	20 00                	and    %al,(%rax)
ffff80000010300c:	00 00                	add    %al,(%rax)
ffff80000010300e:	00 00                	add    %al,(%rax)
ffff800000103010:	87 00                	xchg   %eax,(%rax)
ffff800000103012:	40 00 00             	add    %al,(%rax)
ffff800000103015:	00 00                	add    %al,(%rax)
ffff800000103017:	00 87 00 60 00 00    	add    %al,0x6000(%rdi)
ffff80000010301d:	00 00                	add    %al,(%rax)
ffff80000010301f:	00 87 00 80 00 00    	add    %al,0x8000(%rdi)
ffff800000103025:	00 00                	add    %al,(%rax)
ffff800000103027:	00 87 00 a0 00 00    	add    %al,0xa000(%rdi)
ffff80000010302d:	00 00                	add    %al,(%rax)
ffff80000010302f:	00 87 00 c0 00 00    	add    %al,0xc000(%rdi)
ffff800000103035:	00 00                	add    %al,(%rax)
ffff800000103037:	00 87 00 e0 00 00    	add    %al,0xe000(%rdi)
ffff80000010303d:	00 00                	add    %al,(%rax)
ffff80000010303f:	00 87 00 00 01 00    	add    %al,0x10000(%rdi)
ffff800000103045:	00 00                	add    %al,(%rax)
ffff800000103047:	00 87 00 20 01 00    	add    %al,0x12000(%rdi)
ffff80000010304d:	00 00                	add    %al,(%rax)
ffff80000010304f:	00 87 00 40 01 00    	add    %al,0x14000(%rdi)
ffff800000103055:	00 00                	add    %al,(%rax)
ffff800000103057:	00 87 00 60 01 00    	add    %al,0x16000(%rdi)
ffff80000010305d:	00 00                	add    %al,(%rax)
ffff80000010305f:	00 87 00 80 01 00    	add    %al,0x18000(%rdi)
ffff800000103065:	00 00                	add    %al,(%rax)
ffff800000103067:	00 87 00 a0 01 00    	add    %al,0x1a000(%rdi)
ffff80000010306d:	00 00                	add    %al,(%rax)
ffff80000010306f:	00 87 00 c0 01 00    	add    %al,0x1c000(%rdi)
ffff800000103075:	00 00                	add    %al,(%rax)
ffff800000103077:	00 87 00 e0 01 00    	add    %al,0x1e000(%rdi)
ffff80000010307d:	00 00                	add    %al,(%rax)
ffff80000010307f:	00 87 00 00 02 00    	add    %al,0x20000(%rdi)
ffff800000103085:	00 00                	add    %al,(%rax)
ffff800000103087:	00 87 00 20 02 00    	add    %al,0x22000(%rdi)
ffff80000010308d:	00 00                	add    %al,(%rax)
ffff80000010308f:	00 87 00 40 02 00    	add    %al,0x24000(%rdi)
ffff800000103095:	00 00                	add    %al,(%rax)
ffff800000103097:	00 87 00 60 02 00    	add    %al,0x26000(%rdi)
ffff80000010309d:	00 00                	add    %al,(%rax)
ffff80000010309f:	00 87 00 80 02 00    	add    %al,0x28000(%rdi)
ffff8000001030a5:	00 00                	add    %al,(%rax)
ffff8000001030a7:	00 87 00 a0 02 00    	add    %al,0x2a000(%rdi)
ffff8000001030ad:	00 00                	add    %al,(%rax)
ffff8000001030af:	00 87 00 c0 02 00    	add    %al,0x2c000(%rdi)
ffff8000001030b5:	00 00                	add    %al,(%rax)
ffff8000001030b7:	00 87 00 e0 02 00    	add    %al,0x2e000(%rdi)
ffff8000001030bd:	00 00                	add    %al,(%rax)
ffff8000001030bf:	00 87 00 00 e0 00    	add    %al,0xe00000(%rdi)
ffff8000001030c5:	00 00                	add    %al,(%rax)
ffff8000001030c7:	00 87 00 20 e0 00    	add    %al,0xe02000(%rdi)
ffff8000001030cd:	00 00                	add    %al,(%rax)
ffff8000001030cf:	00 87 00 40 e0 00    	add    %al,0xe04000(%rdi)
ffff8000001030d5:	00 00                	add    %al,(%rax)
ffff8000001030d7:	00 87 00 60 e0 00    	add    %al,0xe06000(%rdi)
ffff8000001030dd:	00 00                	add    %al,(%rax)
ffff8000001030df:	00 87 00 80 e0 00    	add    %al,0xe08000(%rdi)
ffff8000001030e5:	00 00                	add    %al,(%rax)
ffff8000001030e7:	00 87 00 a0 e0 00    	add    %al,0xe0a000(%rdi)
ffff8000001030ed:	00 00                	add    %al,(%rax)
ffff8000001030ef:	00 87 00 c0 e0 00    	add    %al,0xe0c000(%rdi)
ffff8000001030f5:	00 00                	add    %al,(%rax)
ffff8000001030f7:	00 87 00 e0 e0 00    	add    %al,0xe0e000(%rdi)
	...

ffff800000104000 <RESTORE_ALL>:
ffff800000104000:	41 5f                	pop    %r15
ffff800000104002:	41 5e                	pop    %r14
ffff800000104004:	41 5d                	pop    %r13
ffff800000104006:	41 5c                	pop    %r12
ffff800000104008:	41 5b                	pop    %r11
ffff80000010400a:	41 5a                	pop    %r10
ffff80000010400c:	41 59                	pop    %r9
ffff80000010400e:	41 58                	pop    %r8
ffff800000104010:	5b                   	pop    %rbx
ffff800000104011:	59                   	pop    %rcx
ffff800000104012:	5a                   	pop    %rdx
ffff800000104013:	5e                   	pop    %rsi
ffff800000104014:	5f                   	pop    %rdi
ffff800000104015:	5d                   	pop    %rbp
ffff800000104016:	58                   	pop    %rax
ffff800000104017:	48 8e d8             	mov    %rax,%ds
ffff80000010401a:	58                   	pop    %rax
ffff80000010401b:	48 8e c0             	mov    %rax,%es
ffff80000010401e:	58                   	pop    %rax
ffff80000010401f:	48 83 c4 10          	add    $0x10,%rsp
ffff800000104023:	48 cf                	iretq  

ffff800000104025 <ret_from_intr>:
ffff800000104025:	eb d9                	jmp    ffff800000104000 <RESTORE_ALL>

ffff800000104027 <system_call>:
ffff800000104027:	fb                   	sti    
ffff800000104028:	48 83 ec 38          	sub    $0x38,%rsp
ffff80000010402c:	fc                   	cld    
ffff80000010402d:	50                   	push   %rax
ffff80000010402e:	48 8c c0             	mov    %es,%rax
ffff800000104031:	50                   	push   %rax
ffff800000104032:	48 8c d8             	mov    %ds,%rax
ffff800000104035:	50                   	push   %rax
ffff800000104036:	48 31 c0             	xor    %rax,%rax
ffff800000104039:	55                   	push   %rbp
ffff80000010403a:	57                   	push   %rdi
ffff80000010403b:	56                   	push   %rsi
ffff80000010403c:	52                   	push   %rdx
ffff80000010403d:	51                   	push   %rcx
ffff80000010403e:	53                   	push   %rbx
ffff80000010403f:	41 50                	push   %r8
ffff800000104041:	41 51                	push   %r9
ffff800000104043:	41 52                	push   %r10
ffff800000104045:	41 53                	push   %r11
ffff800000104047:	41 54                	push   %r12
ffff800000104049:	41 55                	push   %r13
ffff80000010404b:	41 56                	push   %r14
ffff80000010404d:	41 57                	push   %r15
ffff80000010404f:	48 c7 c2 10 00 00 00 	mov    $0x10,%rdx
ffff800000104056:	48 8e da             	mov    %rdx,%ds
ffff800000104059:	48 8e c2             	mov    %rdx,%es
ffff80000010405c:	48 89 e7             	mov    %rsp,%rdi
ffff80000010405f:	e8 5b 88 00 00       	callq  ffff80000010c8bf <system_call_function>

ffff800000104064 <ret_system_call>:
ffff800000104064:	48 89 84 24 80 00 00 	mov    %rax,0x80(%rsp)
ffff80000010406b:	00 
ffff80000010406c:	41 5f                	pop    %r15
ffff80000010406e:	41 5e                	pop    %r14
ffff800000104070:	41 5d                	pop    %r13
ffff800000104072:	41 5c                	pop    %r12
ffff800000104074:	41 5b                	pop    %r11
ffff800000104076:	41 5a                	pop    %r10
ffff800000104078:	41 59                	pop    %r9
ffff80000010407a:	41 58                	pop    %r8
ffff80000010407c:	5b                   	pop    %rbx
ffff80000010407d:	59                   	pop    %rcx
ffff80000010407e:	5a                   	pop    %rdx
ffff80000010407f:	5e                   	pop    %rsi
ffff800000104080:	5f                   	pop    %rdi
ffff800000104081:	5d                   	pop    %rbp
ffff800000104082:	58                   	pop    %rax
ffff800000104083:	48 8e d8             	mov    %rax,%ds
ffff800000104086:	58                   	pop    %rax
ffff800000104087:	48 8e c0             	mov    %rax,%es
ffff80000010408a:	58                   	pop    %rax
ffff80000010408b:	48 83 c4 38          	add    $0x38,%rsp
ffff80000010408f:	48 0f 35             	rex.W sysexit 

ffff800000104092 <divide_error>:
ffff800000104092:	6a 00                	pushq  $0x0
ffff800000104094:	50                   	push   %rax
ffff800000104095:	48 8d 05 ca 1d 00 00 	lea    0x1dca(%rip),%rax        # ffff800000105e66 <do_divide_error>
ffff80000010409c:	48 87 04 24          	xchg   %rax,(%rsp)

ffff8000001040a0 <error_code>:
ffff8000001040a0:	50                   	push   %rax
ffff8000001040a1:	48 8c c0             	mov    %es,%rax
ffff8000001040a4:	50                   	push   %rax
ffff8000001040a5:	48 8c d8             	mov    %ds,%rax
ffff8000001040a8:	50                   	push   %rax
ffff8000001040a9:	48 31 c0             	xor    %rax,%rax
ffff8000001040ac:	55                   	push   %rbp
ffff8000001040ad:	57                   	push   %rdi
ffff8000001040ae:	56                   	push   %rsi
ffff8000001040af:	52                   	push   %rdx
ffff8000001040b0:	51                   	push   %rcx
ffff8000001040b1:	53                   	push   %rbx
ffff8000001040b2:	41 50                	push   %r8
ffff8000001040b4:	41 51                	push   %r9
ffff8000001040b6:	41 52                	push   %r10
ffff8000001040b8:	41 53                	push   %r11
ffff8000001040ba:	41 54                	push   %r12
ffff8000001040bc:	41 55                	push   %r13
ffff8000001040be:	41 56                	push   %r14
ffff8000001040c0:	41 57                	push   %r15
ffff8000001040c2:	fc                   	cld    
ffff8000001040c3:	48 8b b4 24 90 00 00 	mov    0x90(%rsp),%rsi
ffff8000001040ca:	00 
ffff8000001040cb:	48 8b 94 24 88 00 00 	mov    0x88(%rsp),%rdx
ffff8000001040d2:	00 
ffff8000001040d3:	48 c7 c7 10 00 00 00 	mov    $0x10,%rdi
ffff8000001040da:	48 8e df             	mov    %rdi,%ds
ffff8000001040dd:	48 8e c7             	mov    %rdi,%es
ffff8000001040e0:	48 89 e7             	mov    %rsp,%rdi
ffff8000001040e3:	ff d2                	callq  *%rdx
ffff8000001040e5:	e9 3b ff ff ff       	jmpq   ffff800000104025 <ret_from_intr>

ffff8000001040ea <debug>:
ffff8000001040ea:	6a 00                	pushq  $0x0
ffff8000001040ec:	50                   	push   %rax
ffff8000001040ed:	48 8d 05 cd 1d 00 00 	lea    0x1dcd(%rip),%rax        # ffff800000105ec1 <do_debug>
ffff8000001040f4:	48 87 04 24          	xchg   %rax,(%rsp)
ffff8000001040f8:	eb a6                	jmp    ffff8000001040a0 <error_code>

ffff8000001040fa <nmi>:
ffff8000001040fa:	50                   	push   %rax
ffff8000001040fb:	fc                   	cld    
ffff8000001040fc:	50                   	push   %rax
ffff8000001040fd:	50                   	push   %rax
ffff8000001040fe:	48 8c c0             	mov    %es,%rax
ffff800000104101:	50                   	push   %rax
ffff800000104102:	48 8c d8             	mov    %ds,%rax
ffff800000104105:	50                   	push   %rax
ffff800000104106:	48 31 c0             	xor    %rax,%rax
ffff800000104109:	55                   	push   %rbp
ffff80000010410a:	57                   	push   %rdi
ffff80000010410b:	56                   	push   %rsi
ffff80000010410c:	52                   	push   %rdx
ffff80000010410d:	51                   	push   %rcx
ffff80000010410e:	53                   	push   %rbx
ffff80000010410f:	41 50                	push   %r8
ffff800000104111:	41 51                	push   %r9
ffff800000104113:	41 52                	push   %r10
ffff800000104115:	41 53                	push   %r11
ffff800000104117:	41 54                	push   %r12
ffff800000104119:	41 55                	push   %r13
ffff80000010411b:	41 56                	push   %r14
ffff80000010411d:	41 57                	push   %r15
ffff80000010411f:	48 c7 c2 10 00 00 00 	mov    $0x10,%rdx
ffff800000104126:	48 8e da             	mov    %rdx,%ds
ffff800000104129:	48 8e c2             	mov    %rdx,%es
ffff80000010412c:	48 c7 c6 00 00 00 00 	mov    $0x0,%rsi
ffff800000104133:	48 89 e7             	mov    %rsp,%rdi
ffff800000104136:	e8 e1 1d 00 00       	callq  ffff800000105f1c <do_nmi>
ffff80000010413b:	e9 c0 fe ff ff       	jmpq   ffff800000104000 <RESTORE_ALL>

ffff800000104140 <int3>:
ffff800000104140:	6a 00                	pushq  $0x0
ffff800000104142:	50                   	push   %rax
ffff800000104143:	48 8d 05 2d 1e 00 00 	lea    0x1e2d(%rip),%rax        # ffff800000105f77 <do_int3>
ffff80000010414a:	48 87 04 24          	xchg   %rax,(%rsp)
ffff80000010414e:	e9 4d ff ff ff       	jmpq   ffff8000001040a0 <error_code>

ffff800000104153 <overflow>:
ffff800000104153:	6a 00                	pushq  $0x0
ffff800000104155:	50                   	push   %rax
ffff800000104156:	48 8d 05 75 1e 00 00 	lea    0x1e75(%rip),%rax        # ffff800000105fd2 <do_overflow>
ffff80000010415d:	48 87 04 24          	xchg   %rax,(%rsp)
ffff800000104161:	e9 3a ff ff ff       	jmpq   ffff8000001040a0 <error_code>

ffff800000104166 <bounds>:
ffff800000104166:	6a 00                	pushq  $0x0
ffff800000104168:	50                   	push   %rax
ffff800000104169:	48 8d 05 bd 1e 00 00 	lea    0x1ebd(%rip),%rax        # ffff80000010602d <do_bounds>
ffff800000104170:	48 87 04 24          	xchg   %rax,(%rsp)
ffff800000104174:	e9 27 ff ff ff       	jmpq   ffff8000001040a0 <error_code>

ffff800000104179 <undefined_opcode>:
ffff800000104179:	6a 00                	pushq  $0x0
ffff80000010417b:	50                   	push   %rax
ffff80000010417c:	48 8d 05 05 1f 00 00 	lea    0x1f05(%rip),%rax        # ffff800000106088 <do_undefined_opcode>
ffff800000104183:	48 87 04 24          	xchg   %rax,(%rsp)
ffff800000104187:	e9 14 ff ff ff       	jmpq   ffff8000001040a0 <error_code>

ffff80000010418c <dev_not_available>:
ffff80000010418c:	6a 00                	pushq  $0x0
ffff80000010418e:	50                   	push   %rax
ffff80000010418f:	48 8d 05 4d 1f 00 00 	lea    0x1f4d(%rip),%rax        # ffff8000001060e3 <do_dev_not_available>
ffff800000104196:	48 87 04 24          	xchg   %rax,(%rsp)
ffff80000010419a:	e9 01 ff ff ff       	jmpq   ffff8000001040a0 <error_code>

ffff80000010419f <double_fault>:
ffff80000010419f:	50                   	push   %rax
ffff8000001041a0:	48 8d 05 97 1f 00 00 	lea    0x1f97(%rip),%rax        # ffff80000010613e <do_double_fault>
ffff8000001041a7:	48 87 04 24          	xchg   %rax,(%rsp)
ffff8000001041ab:	e9 f0 fe ff ff       	jmpq   ffff8000001040a0 <error_code>

ffff8000001041b0 <coprocessor_segment_overrun>:
ffff8000001041b0:	6a 00                	pushq  $0x0
ffff8000001041b2:	50                   	push   %rax
ffff8000001041b3:	48 8d 05 df 1f 00 00 	lea    0x1fdf(%rip),%rax        # ffff800000106199 <do_coprocessor_segment_overrun>
ffff8000001041ba:	48 87 04 24          	xchg   %rax,(%rsp)
ffff8000001041be:	e9 dd fe ff ff       	jmpq   ffff8000001040a0 <error_code>

ffff8000001041c3 <invalid_TSS>:
ffff8000001041c3:	50                   	push   %rax
ffff8000001041c4:	48 8d 05 29 20 00 00 	lea    0x2029(%rip),%rax        # ffff8000001061f4 <do_invalid_TSS>
ffff8000001041cb:	48 87 04 24          	xchg   %rax,(%rsp)
ffff8000001041cf:	e9 cc fe ff ff       	jmpq   ffff8000001040a0 <error_code>

ffff8000001041d4 <segment_not_present>:
ffff8000001041d4:	50                   	push   %rax
ffff8000001041d5:	48 8d 05 92 21 00 00 	lea    0x2192(%rip),%rax        # ffff80000010636e <do_segment_not_present>
ffff8000001041dc:	48 87 04 24          	xchg   %rax,(%rsp)
ffff8000001041e0:	e9 bb fe ff ff       	jmpq   ffff8000001040a0 <error_code>

ffff8000001041e5 <stack_segment_fault>:
ffff8000001041e5:	50                   	push   %rax
ffff8000001041e6:	48 8d 05 fb 22 00 00 	lea    0x22fb(%rip),%rax        # ffff8000001064e8 <do_stack_segment_fault>
ffff8000001041ed:	48 87 04 24          	xchg   %rax,(%rsp)
ffff8000001041f1:	e9 aa fe ff ff       	jmpq   ffff8000001040a0 <error_code>

ffff8000001041f6 <general_protection>:
ffff8000001041f6:	50                   	push   %rax
ffff8000001041f7:	48 8d 05 64 24 00 00 	lea    0x2464(%rip),%rax        # ffff800000106662 <do_general_protection>
ffff8000001041fe:	48 87 04 24          	xchg   %rax,(%rsp)
ffff800000104202:	e9 99 fe ff ff       	jmpq   ffff8000001040a0 <error_code>

ffff800000104207 <page_fault>:
ffff800000104207:	50                   	push   %rax
ffff800000104208:	48 8d 05 cd 25 00 00 	lea    0x25cd(%rip),%rax        # ffff8000001067dc <do_page_fault>
ffff80000010420f:	48 87 04 24          	xchg   %rax,(%rsp)
ffff800000104213:	e9 88 fe ff ff       	jmpq   ffff8000001040a0 <error_code>

ffff800000104218 <x87_FPU_error>:
ffff800000104218:	6a 00                	pushq  $0x0
ffff80000010421a:	50                   	push   %rax
ffff80000010421b:	48 8d 05 b9 27 00 00 	lea    0x27b9(%rip),%rax        # ffff8000001069db <do_x87_FPU_error>
ffff800000104222:	48 87 04 24          	xchg   %rax,(%rsp)
ffff800000104226:	e9 75 fe ff ff       	jmpq   ffff8000001040a0 <error_code>

ffff80000010422b <alignment_check>:
ffff80000010422b:	50                   	push   %rax
ffff80000010422c:	48 8d 05 03 28 00 00 	lea    0x2803(%rip),%rax        # ffff800000106a36 <do_alignment_check>
ffff800000104233:	48 87 04 24          	xchg   %rax,(%rsp)
ffff800000104237:	e9 64 fe ff ff       	jmpq   ffff8000001040a0 <error_code>

ffff80000010423c <machine_check>:
ffff80000010423c:	6a 00                	pushq  $0x0
ffff80000010423e:	50                   	push   %rax
ffff80000010423f:	48 8d 05 4b 28 00 00 	lea    0x284b(%rip),%rax        # ffff800000106a91 <do_machine_check>
ffff800000104246:	48 87 04 24          	xchg   %rax,(%rsp)
ffff80000010424a:	e9 51 fe ff ff       	jmpq   ffff8000001040a0 <error_code>

ffff80000010424f <SIMD_exception>:
ffff80000010424f:	6a 00                	pushq  $0x0
ffff800000104251:	50                   	push   %rax
ffff800000104252:	48 8d 05 93 28 00 00 	lea    0x2893(%rip),%rax        # ffff800000106aec <do_SIMD_exception>
ffff800000104259:	48 87 04 24          	xchg   %rax,(%rsp)
ffff80000010425d:	e9 3e fe ff ff       	jmpq   ffff8000001040a0 <error_code>

ffff800000104262 <virtualization_exception>:
ffff800000104262:	6a 00                	pushq  $0x0
ffff800000104264:	50                   	push   %rax
ffff800000104265:	48 8d 05 db 28 00 00 	lea    0x28db(%rip),%rax        # ffff800000106b47 <do_virtualization_exception>
ffff80000010426c:	48 87 04 24          	xchg   %rax,(%rsp)
ffff800000104270:	e9 2b fe ff ff       	jmpq   ffff8000001040a0 <error_code>

ffff800000104275 <set_tss64>:
ffff800000104275:	55                   	push   %rbp
ffff800000104276:	48 89 e5             	mov    %rsp,%rbp
ffff800000104279:	48 89 7d f8          	mov    %rdi,-0x8(%rbp)
ffff80000010427d:	48 89 75 f0          	mov    %rsi,-0x10(%rbp)
ffff800000104281:	48 89 55 e8          	mov    %rdx,-0x18(%rbp)
ffff800000104285:	48 89 4d e0          	mov    %rcx,-0x20(%rbp)
ffff800000104289:	4c 89 45 d8          	mov    %r8,-0x28(%rbp)
ffff80000010428d:	4c 89 4d d0          	mov    %r9,-0x30(%rbp)
ffff800000104291:	48 b8 90 eb 10 00 00 	movabs $0xffff80000010eb90,%rax
ffff800000104298:	80 ff ff 
ffff80000010429b:	48 8b 55 f8          	mov    -0x8(%rbp),%rdx
ffff80000010429f:	48 89 10             	mov    %rdx,(%rax)
ffff8000001042a2:	48 b8 98 eb 10 00 00 	movabs $0xffff80000010eb98,%rax
ffff8000001042a9:	80 ff ff 
ffff8000001042ac:	48 8b 55 f0          	mov    -0x10(%rbp),%rdx
ffff8000001042b0:	48 89 10             	mov    %rdx,(%rax)
ffff8000001042b3:	48 b8 a0 eb 10 00 00 	movabs $0xffff80000010eba0,%rax
ffff8000001042ba:	80 ff ff 
ffff8000001042bd:	48 8b 55 e8          	mov    -0x18(%rbp),%rdx
ffff8000001042c1:	48 89 10             	mov    %rdx,(%rax)
ffff8000001042c4:	48 b8 b0 eb 10 00 00 	movabs $0xffff80000010ebb0,%rax
ffff8000001042cb:	80 ff ff 
ffff8000001042ce:	48 8b 55 e0          	mov    -0x20(%rbp),%rdx
ffff8000001042d2:	48 89 10             	mov    %rdx,(%rax)
ffff8000001042d5:	48 b8 b8 eb 10 00 00 	movabs $0xffff80000010ebb8,%rax
ffff8000001042dc:	80 ff ff 
ffff8000001042df:	48 8b 55 d8          	mov    -0x28(%rbp),%rdx
ffff8000001042e3:	48 89 10             	mov    %rdx,(%rax)
ffff8000001042e6:	48 b8 c0 eb 10 00 00 	movabs $0xffff80000010ebc0,%rax
ffff8000001042ed:	80 ff ff 
ffff8000001042f0:	48 8b 55 d0          	mov    -0x30(%rbp),%rdx
ffff8000001042f4:	48 89 10             	mov    %rdx,(%rax)
ffff8000001042f7:	48 b8 c8 eb 10 00 00 	movabs $0xffff80000010ebc8,%rax
ffff8000001042fe:	80 ff ff 
ffff800000104301:	48 8b 55 10          	mov    0x10(%rbp),%rdx
ffff800000104305:	48 89 10             	mov    %rdx,(%rax)
ffff800000104308:	48 b8 d0 eb 10 00 00 	movabs $0xffff80000010ebd0,%rax
ffff80000010430f:	80 ff ff 
ffff800000104312:	48 8b 55 18          	mov    0x18(%rbp),%rdx
ffff800000104316:	48 89 10             	mov    %rdx,(%rax)
ffff800000104319:	48 b8 d8 eb 10 00 00 	movabs $0xffff80000010ebd8,%rax
ffff800000104320:	80 ff ff 
ffff800000104323:	48 8b 55 20          	mov    0x20(%rbp),%rdx
ffff800000104327:	48 89 10             	mov    %rdx,(%rax)
ffff80000010432a:	48 b8 e0 eb 10 00 00 	movabs $0xffff80000010ebe0,%rax
ffff800000104331:	80 ff ff 
ffff800000104334:	48 8b 55 28          	mov    0x28(%rbp),%rdx
ffff800000104338:	48 89 10             	mov    %rdx,(%rax)
ffff80000010433b:	5d                   	pop    %rbp
ffff80000010433c:	c3                   	retq   

ffff80000010433d <Get_gdt>:
ffff80000010433d:	55                   	push   %rbp
ffff80000010433e:	48 89 e5             	mov    %rsp,%rbp
ffff800000104341:	0f 20 d8             	mov    %cr3,%rax
ffff800000104344:	48 89 45 f8          	mov    %rax,-0x8(%rbp)
ffff800000104348:	48 8b 45 f8          	mov    -0x8(%rbp),%rax
ffff80000010434c:	5d                   	pop    %rbp
ffff80000010434d:	c3                   	retq   

ffff80000010434e <get_cpuid>:
ffff80000010434e:	55                   	push   %rbp
ffff80000010434f:	48 89 e5             	mov    %rsp,%rbp
ffff800000104352:	53                   	push   %rbx
ffff800000104353:	89 7d f4             	mov    %edi,-0xc(%rbp)
ffff800000104356:	89 75 f0             	mov    %esi,-0x10(%rbp)
ffff800000104359:	48 89 55 e8          	mov    %rdx,-0x18(%rbp)
ffff80000010435d:	48 89 4d e0          	mov    %rcx,-0x20(%rbp)
ffff800000104361:	4c 89 45 d8          	mov    %r8,-0x28(%rbp)
ffff800000104365:	4c 89 4d d0          	mov    %r9,-0x30(%rbp)
ffff800000104369:	8b 45 f4             	mov    -0xc(%rbp),%eax
ffff80000010436c:	8b 55 f0             	mov    -0x10(%rbp),%edx
ffff80000010436f:	89 d1                	mov    %edx,%ecx
ffff800000104371:	0f a2                	cpuid  
ffff800000104373:	89 de                	mov    %ebx,%esi
ffff800000104375:	48 8b 7d e8          	mov    -0x18(%rbp),%rdi
ffff800000104379:	89 07                	mov    %eax,(%rdi)
ffff80000010437b:	48 8b 45 e0          	mov    -0x20(%rbp),%rax
ffff80000010437f:	89 30                	mov    %esi,(%rax)
ffff800000104381:	48 8b 45 d8          	mov    -0x28(%rbp),%rax
ffff800000104385:	89 08                	mov    %ecx,(%rax)
ffff800000104387:	48 8b 45 d0          	mov    -0x30(%rbp),%rax
ffff80000010438b:	89 10                	mov    %edx,(%rax)
ffff80000010438d:	5b                   	pop    %rbx
ffff80000010438e:	5d                   	pop    %rbp
ffff80000010438f:	c3                   	retq   

ffff800000104390 <Start_Kernel>:
ffff800000104390:	55                   	push   %rbp
ffff800000104391:	48 89 e5             	mov    %rsp,%rbp
ffff800000104394:	53                   	push   %rbx
ffff800000104395:	48 83 ec 28          	sub    $0x28,%rsp
ffff800000104399:	48 b8 60 07 11 00 00 	movabs $0xffff800000110760,%rax
ffff8000001043a0:	80 ff ff 
ffff8000001043a3:	48 8b 00             	mov    (%rax),%rax
ffff8000001043a6:	8b 00                	mov    (%rax),%eax
ffff8000001043a8:	89 c2                	mov    %eax,%edx
ffff8000001043aa:	48 b8 40 a4 13 00 00 	movabs $0xffff80000013a440,%rax
ffff8000001043b1:	80 ff ff 
ffff8000001043b4:	89 10                	mov    %edx,(%rax)
ffff8000001043b6:	48 b8 60 07 11 00 00 	movabs $0xffff800000110760,%rax
ffff8000001043bd:	80 ff ff 
ffff8000001043c0:	48 8b 00             	mov    (%rax),%rax
ffff8000001043c3:	8b 40 04             	mov    0x4(%rax),%eax
ffff8000001043c6:	89 c2                	mov    %eax,%edx
ffff8000001043c8:	48 b8 40 a4 13 00 00 	movabs $0xffff80000013a440,%rax
ffff8000001043cf:	80 ff ff 
ffff8000001043d2:	89 50 04             	mov    %edx,0x4(%rax)
ffff8000001043d5:	48 b8 40 a4 13 00 00 	movabs $0xffff80000013a440,%rax
ffff8000001043dc:	80 ff ff 
ffff8000001043df:	c7 40 08 00 00 00 00 	movl   $0x0,0x8(%rax)
ffff8000001043e6:	48 b8 40 a4 13 00 00 	movabs $0xffff80000013a440,%rax
ffff8000001043ed:	80 ff ff 
ffff8000001043f0:	c7 40 0c 00 00 00 00 	movl   $0x0,0xc(%rax)
ffff8000001043f7:	48 b8 40 a4 13 00 00 	movabs $0xffff80000013a440,%rax
ffff8000001043fe:	80 ff ff 
ffff800000104401:	c7 40 10 08 00 00 00 	movl   $0x8,0x10(%rax)
ffff800000104408:	48 b8 40 a4 13 00 00 	movabs $0xffff80000013a440,%rax
ffff80000010440f:	80 ff ff 
ffff800000104412:	c7 40 14 10 00 00 00 	movl   $0x10,0x14(%rax)
ffff800000104419:	48 b8 40 a4 13 00 00 	movabs $0xffff80000013a440,%rax
ffff800000104420:	80 ff ff 
ffff800000104423:	48 bb 00 00 00 03 00 	movabs $0xffff800003000000,%rbx
ffff80000010442a:	80 ff ff 
ffff80000010442d:	48 89 58 18          	mov    %rbx,0x18(%rax)
ffff800000104431:	48 b8 60 07 11 00 00 	movabs $0xffff800000110760,%rax
ffff800000104438:	80 ff ff 
ffff80000010443b:	48 8b 00             	mov    (%rax),%rax
ffff80000010443e:	48 8b 50 18          	mov    0x18(%rax),%rdx
ffff800000104442:	48 b8 40 a4 13 00 00 	movabs $0xffff80000013a440,%rax
ffff800000104449:	80 ff ff 
ffff80000010444c:	48 89 50 20          	mov    %rdx,0x20(%rax)
ffff800000104450:	b8 50 00 00 00       	mov    $0x50,%eax
ffff800000104455:	0f 00 d8             	ltr    %ax
ffff800000104458:	48 b8 be 01 10 00 00 	movabs $0xffff8000001001be,%rax
ffff80000010445f:	80 ff ff 
ffff800000104462:	48 8b 10             	mov    (%rax),%rdx
ffff800000104465:	48 b8 be 01 10 00 00 	movabs $0xffff8000001001be,%rax
ffff80000010446c:	80 ff ff 
ffff80000010446f:	48 8b 30             	mov    (%rax),%rsi
ffff800000104472:	48 b8 be 01 10 00 00 	movabs $0xffff8000001001be,%rax
ffff800000104479:	80 ff ff 
ffff80000010447c:	48 8b 00             	mov    (%rax),%rax
ffff80000010447f:	48 bb 00 7c 00 00 00 	movabs $0xffff800000007c00,%rbx
ffff800000104486:	80 ff ff 
ffff800000104489:	48 89 5c 24 18       	mov    %rbx,0x18(%rsp)
ffff80000010448e:	48 bb 00 7c 00 00 00 	movabs $0xffff800000007c00,%rbx
ffff800000104495:	80 ff ff 
ffff800000104498:	48 89 5c 24 10       	mov    %rbx,0x10(%rsp)
ffff80000010449d:	48 bb 00 7c 00 00 00 	movabs $0xffff800000007c00,%rbx
ffff8000001044a4:	80 ff ff 
ffff8000001044a7:	48 89 5c 24 08       	mov    %rbx,0x8(%rsp)
ffff8000001044ac:	48 bf 00 7c 00 00 00 	movabs $0xffff800000007c00,%rdi
ffff8000001044b3:	80 ff ff 
ffff8000001044b6:	48 89 3c 24          	mov    %rdi,(%rsp)
ffff8000001044ba:	49 b9 00 7c 00 00 00 	movabs $0xffff800000007c00,%r9
ffff8000001044c1:	80 ff ff 
ffff8000001044c4:	49 b8 00 7c 00 00 00 	movabs $0xffff800000007c00,%r8
ffff8000001044cb:	80 ff ff 
ffff8000001044ce:	48 b9 00 7c 00 00 00 	movabs $0xffff800000007c00,%rcx
ffff8000001044d5:	80 ff ff 
ffff8000001044d8:	48 89 c7             	mov    %rax,%rdi
ffff8000001044db:	48 b8 75 42 10 00 00 	movabs $0xffff800000104275,%rax
ffff8000001044e2:	80 ff ff 
ffff8000001044e5:	ff d0                	callq  *%rax
ffff8000001044e7:	b8 00 00 00 00       	mov    $0x0,%eax
ffff8000001044ec:	48 ba a2 6b 10 00 00 	movabs $0xffff800000106ba2,%rdx
ffff8000001044f3:	80 ff ff 
ffff8000001044f6:	ff d2                	callq  *%rdx
ffff8000001044f8:	48 b8 e6 ce 10 00 00 	movabs $0xffff80000010cee6,%rax
ffff8000001044ff:	80 ff ff 
ffff800000104502:	ff d0                	callq  *%rax
ffff800000104504:	48 ba 00 00 10 00 00 	movabs $0xffff800000100000,%rdx
ffff80000010450b:	80 ff ff 
ffff80000010450e:	48 b8 e0 15 13 00 00 	movabs $0xffff8000001315e0,%rax
ffff800000104515:	80 ff ff 
ffff800000104518:	48 89 90 d0 02 00 00 	mov    %rdx,0x2d0(%rax)
ffff80000010451f:	48 ba ca da 10 00 00 	movabs $0xffff80000010daca,%rdx
ffff800000104526:	80 ff ff 
ffff800000104529:	48 b8 e0 15 13 00 00 	movabs $0xffff8000001315e0,%rax
ffff800000104530:	80 ff ff 
ffff800000104533:	48 89 90 d8 02 00 00 	mov    %rdx,0x2d8(%rax)
ffff80000010453a:	48 ba 28 96 11 00 00 	movabs $0xffff800000119628,%rdx
ffff800000104541:	80 ff ff 
ffff800000104544:	48 b8 e0 15 13 00 00 	movabs $0xffff8000001315e0,%rax
ffff80000010454b:	80 ff ff 
ffff80000010454e:	48 89 90 e0 02 00 00 	mov    %rdx,0x2e0(%rax)
ffff800000104555:	48 ba ac ad 11 00 00 	movabs $0xffff80000011adac,%rdx
ffff80000010455c:	80 ff ff 
ffff80000010455f:	48 b8 e0 15 13 00 00 	movabs $0xffff8000001315e0,%rax
ffff800000104566:	80 ff ff 
ffff800000104569:	48 89 90 e8 02 00 00 	mov    %rdx,0x2e8(%rax)
ffff800000104570:	48 ba 68 a4 13 00 00 	movabs $0xffff80000013a468,%rdx
ffff800000104577:	80 ff ff 
ffff80000010457a:	48 b8 e0 15 13 00 00 	movabs $0xffff8000001315e0,%rax
ffff800000104581:	80 ff ff 
ffff800000104584:	48 89 90 f0 02 00 00 	mov    %rdx,0x2f0(%rax)
ffff80000010458b:	48 ba 28 96 11 00 00 	movabs $0xffff800000119628,%rdx
ffff800000104592:	80 ff ff 
ffff800000104595:	be 00 00 00 00       	mov    $0x0,%esi
ffff80000010459a:	bf 00 00 ff 00       	mov    $0xff0000,%edi
ffff80000010459f:	b8 00 00 00 00       	mov    $0x0,%eax
ffff8000001045a4:	48 b9 d0 56 10 00 00 	movabs $0xffff8000001056d0,%rcx
ffff8000001045ab:	80 ff ff 
ffff8000001045ae:	ff d1                	callq  *%rcx
ffff8000001045b0:	b8 00 00 00 00       	mov    $0x0,%eax
ffff8000001045b5:	48 ba 42 71 10 00 00 	movabs $0xffff800000107142,%rdx
ffff8000001045bc:	80 ff ff 
ffff8000001045bf:	ff d2                	callq  *%rdx
ffff8000001045c1:	48 ba 36 96 11 00 00 	movabs $0xffff800000119636,%rdx
ffff8000001045c8:	80 ff ff 
ffff8000001045cb:	be 00 00 00 00       	mov    $0x0,%esi
ffff8000001045d0:	bf 00 00 ff 00       	mov    $0xff0000,%edi
ffff8000001045d5:	b8 00 00 00 00       	mov    $0x0,%eax
ffff8000001045da:	48 b9 d0 56 10 00 00 	movabs $0xffff8000001056d0,%rcx
ffff8000001045e1:	80 ff ff 
ffff8000001045e4:	ff d1                	callq  *%rcx
ffff8000001045e6:	b8 00 00 00 00       	mov    $0x0,%eax
ffff8000001045eb:	48 ba 16 a0 10 00 00 	movabs $0xffff80000010a016,%rdx
ffff8000001045f2:	80 ff ff 
ffff8000001045f5:	ff d2                	callq  *%rdx
ffff8000001045f7:	48 ba 42 96 11 00 00 	movabs $0xffff800000119642,%rdx
ffff8000001045fe:	80 ff ff 
ffff800000104601:	be 00 00 00 00       	mov    $0x0,%esi
ffff800000104606:	bf 00 00 ff 00       	mov    $0xff0000,%edi
ffff80000010460b:	b8 00 00 00 00       	mov    $0x0,%eax
ffff800000104610:	48 b9 d0 56 10 00 00 	movabs $0xffff8000001056d0,%rcx
ffff800000104617:	80 ff ff 
ffff80000010461a:	ff d1                	callq  *%rcx
ffff80000010461c:	48 b8 b0 47 10 00 00 	movabs $0xffff8000001047b0,%rax
ffff800000104623:	80 ff ff 
ffff800000104626:	ff d0                	callq  *%rax
ffff800000104628:	48 ba 56 96 11 00 00 	movabs $0xffff800000119656,%rdx
ffff80000010462f:	80 ff ff 
ffff800000104632:	be 00 00 00 00       	mov    $0x0,%esi
ffff800000104637:	bf ff ff ff 00       	mov    $0xffffff,%edi
ffff80000010463c:	b8 00 00 00 00       	mov    $0x0,%eax
ffff800000104641:	48 b9 d0 56 10 00 00 	movabs $0xffff8000001056d0,%rcx
ffff800000104648:	80 ff ff 
ffff80000010464b:	ff d1                	callq  *%rcx
ffff80000010464d:	48 ba 72 96 11 00 00 	movabs $0xffff800000119672,%rdx
ffff800000104654:	80 ff ff 
ffff800000104657:	be 00 00 00 00       	mov    $0x0,%esi
ffff80000010465c:	bf 00 00 ff 00       	mov    $0xff0000,%edi
ffff800000104661:	b8 00 00 00 00       	mov    $0x0,%eax
ffff800000104666:	48 b9 d0 56 10 00 00 	movabs $0xffff8000001056d0,%rcx
ffff80000010466d:	80 ff ff 
ffff800000104670:	ff d1                	callq  *%rcx
ffff800000104672:	48 b8 f1 a8 10 00 00 	movabs $0xffff80000010a8f1,%rax
ffff800000104679:	80 ff ff 
ffff80000010467c:	ff d0                	callq  *%rax
ffff80000010467e:	48 ba 83 96 11 00 00 	movabs $0xffff800000119683,%rdx
ffff800000104685:	80 ff ff 
ffff800000104688:	be 00 00 00 00       	mov    $0x0,%esi
ffff80000010468d:	bf 00 00 ff 00       	mov    $0xff0000,%edi
ffff800000104692:	b8 00 00 00 00       	mov    $0x0,%eax
ffff800000104697:	48 b9 d0 56 10 00 00 	movabs $0xffff8000001056d0,%rcx
ffff80000010469e:	80 ff ff 
ffff8000001046a1:	ff d1                	callq  *%rcx
ffff8000001046a3:	b8 00 00 00 00       	mov    $0x0,%eax
ffff8000001046a8:	48 ba f1 bc 10 00 00 	movabs $0xffff80000010bcf1,%rdx
ffff8000001046af:	80 ff ff 
ffff8000001046b2:	ff d2                	callq  *%rdx
ffff8000001046b4:	48 ba 94 96 11 00 00 	movabs $0xffff800000119694,%rdx
ffff8000001046bb:	80 ff ff 
ffff8000001046be:	be 00 00 00 00       	mov    $0x0,%esi
ffff8000001046c3:	bf 00 00 ff 00       	mov    $0xff0000,%edi
ffff8000001046c8:	b8 00 00 00 00       	mov    $0x0,%eax
ffff8000001046cd:	48 b9 d0 56 10 00 00 	movabs $0xffff8000001056d0,%rcx
ffff8000001046d4:	80 ff ff 
ffff8000001046d7:	ff d1                	callq  *%rcx
ffff8000001046d9:	b8 00 00 00 00       	mov    $0x0,%eax
ffff8000001046de:	48 ba 35 d8 10 00 00 	movabs $0xffff80000010d835,%rdx
ffff8000001046e5:	80 ff ff 
ffff8000001046e8:	ff d2                	callq  *%rdx
ffff8000001046ea:	b8 00 00 00 00       	mov    $0x0,%eax
ffff8000001046ef:	48 ba 0a d5 10 00 00 	movabs $0xffff80000010d50a,%rdx
ffff8000001046f6:	80 ff ff 
ffff8000001046f9:	ff d2                	callq  *%rdx
ffff8000001046fb:	eb ed                	jmp    ffff8000001046ea <Start_Kernel+0x35a>

ffff8000001046fd <memset>:
ffff8000001046fd:	55                   	push   %rbp
ffff8000001046fe:	48 89 e5             	mov    %rsp,%rbp
ffff800000104701:	48 89 7d e8          	mov    %rdi,-0x18(%rbp)
ffff800000104705:	89 f0                	mov    %esi,%eax
ffff800000104707:	48 89 55 d8          	mov    %rdx,-0x28(%rbp)
ffff80000010470b:	88 45 e4             	mov    %al,-0x1c(%rbp)
ffff80000010470e:	0f b6 55 e4          	movzbl -0x1c(%rbp),%edx
ffff800000104712:	48 b8 01 01 01 01 01 	movabs $0x101010101010101,%rax
ffff800000104719:	01 01 01 
ffff80000010471c:	48 0f af c2          	imul   %rdx,%rax
ffff800000104720:	48 89 45 f8          	mov    %rax,-0x8(%rbp)
ffff800000104724:	48 8b 45 d8          	mov    -0x28(%rbp),%rax
ffff800000104728:	48 8d 50 07          	lea    0x7(%rax),%rdx
ffff80000010472c:	48 85 c0             	test   %rax,%rax
ffff80000010472f:	48 0f 48 c2          	cmovs  %rdx,%rax
ffff800000104733:	48 c1 f8 03          	sar    $0x3,%rax
ffff800000104737:	48 89 c2             	mov    %rax,%rdx
ffff80000010473a:	48 8b 45 f8          	mov    -0x8(%rbp),%rax
ffff80000010473e:	48 8b 75 d8          	mov    -0x28(%rbp),%rsi
ffff800000104742:	48 8b 7d e8          	mov    -0x18(%rbp),%rdi
ffff800000104746:	48 89 d1             	mov    %rdx,%rcx
ffff800000104749:	fc                   	cld    
ffff80000010474a:	f3 48 ab             	rep stos %rax,%es:(%rdi)
ffff80000010474d:	40 f6 c6 04          	test   $0x4,%sil
ffff800000104751:	74 01                	je     ffff800000104754 <memset+0x57>
ffff800000104753:	ab                   	stos   %eax,%es:(%rdi)
ffff800000104754:	40 f6 c6 02          	test   $0x2,%sil
ffff800000104758:	74 02                	je     ffff80000010475c <memset+0x5f>
ffff80000010475a:	66 ab                	stos   %ax,%es:(%rdi)
ffff80000010475c:	40 f6 c6 01          	test   $0x1,%sil
ffff800000104760:	74 01                	je     ffff800000104763 <memset+0x66>
ffff800000104762:	aa                   	stos   %al,%es:(%rdi)
ffff800000104763:	89 f8                	mov    %edi,%eax
ffff800000104765:	89 ca                	mov    %ecx,%edx
ffff800000104767:	89 55 f4             	mov    %edx,-0xc(%rbp)
ffff80000010476a:	89 45 f0             	mov    %eax,-0x10(%rbp)
ffff80000010476d:	48 8b 45 e8          	mov    -0x18(%rbp),%rax
ffff800000104771:	5d                   	pop    %rbp
ffff800000104772:	c3                   	retq   

ffff800000104773 <strlen>:
ffff800000104773:	55                   	push   %rbp
ffff800000104774:	48 89 e5             	mov    %rsp,%rbp
ffff800000104777:	53                   	push   %rbx
ffff800000104778:	48 89 7d f0          	mov    %rdi,-0x10(%rbp)
ffff80000010477c:	48 8b 75 f0          	mov    -0x10(%rbp),%rsi
ffff800000104780:	b8 00 00 00 00       	mov    $0x0,%eax
ffff800000104785:	ba ff ff ff ff       	mov    $0xffffffff,%edx
ffff80000010478a:	89 d1                	mov    %edx,%ecx
ffff80000010478c:	48 89 f7             	mov    %rsi,%rdi
ffff80000010478f:	fc                   	cld    
ffff800000104790:	f2 ae                	repnz scas %es:(%rdi),%al
ffff800000104792:	f7 d1                	not    %ecx
ffff800000104794:	ff c9                	dec    %ecx
ffff800000104796:	89 ca                	mov    %ecx,%edx
ffff800000104798:	89 d3                	mov    %edx,%ebx
ffff80000010479a:	89 d8                	mov    %ebx,%eax
ffff80000010479c:	5b                   	pop    %rbx
ffff80000010479d:	5d                   	pop    %rbp
ffff80000010479e:	c3                   	retq   
ffff80000010479f:	55                   	push   %rbp
ffff8000001047a0:	48 89 e5             	mov    %rsp,%rbp
ffff8000001047a3:	0f 20 d8             	mov    %cr3,%rax
ffff8000001047a6:	48 89 45 f8          	mov    %rax,-0x8(%rbp)
ffff8000001047aa:	48 8b 45 f8          	mov    -0x8(%rbp),%rax
ffff8000001047ae:	5d                   	pop    %rbp
ffff8000001047af:	c3                   	retq   

ffff8000001047b0 <frame_buffer_init>:
ffff8000001047b0:	55                   	push   %rbp
ffff8000001047b1:	48 89 e5             	mov    %rsp,%rbp
ffff8000001047b4:	53                   	push   %rbx
ffff8000001047b5:	48 83 ec 48          	sub    $0x48,%rsp
ffff8000001047b9:	48 b8 60 07 11 00 00 	movabs $0xffff800000110760,%rax
ffff8000001047c0:	80 ff ff 
ffff8000001047c3:	48 8b 00             	mov    (%rax),%rax
ffff8000001047c6:	48 8b 50 10          	mov    0x10(%rax),%rdx
ffff8000001047ca:	48 b8 00 00 00 00 00 	movabs $0xffff800000000000,%rax
ffff8000001047d1:	80 ff ff 
ffff8000001047d4:	48 01 d0             	add    %rdx,%rax
ffff8000001047d7:	48 89 45 e0          	mov    %rax,-0x20(%rbp)
ffff8000001047db:	48 8b 45 e0          	mov    -0x20(%rbp),%rax
ffff8000001047df:	48 c1 e8 27          	shr    $0x27,%rax
ffff8000001047e3:	25 ff 01 00 00       	and    $0x1ff,%eax
ffff8000001047e8:	48 8d 1c c5 00 00 00 	lea    0x0(,%rax,8),%rbx
ffff8000001047ef:	00 
ffff8000001047f0:	b8 00 00 00 00       	mov    $0x0,%eax
ffff8000001047f5:	48 ba 3d 43 10 00 00 	movabs $0xffff80000010433d,%rdx
ffff8000001047fc:	80 ff ff 
ffff8000001047ff:	ff d2                	callq  *%rdx
ffff800000104801:	48 25 00 f0 ff ff    	and    $0xfffffffffffff000,%rax
ffff800000104807:	48 8d 14 03          	lea    (%rbx,%rax,1),%rdx
ffff80000010480b:	48 b8 00 00 00 00 00 	movabs $0xffff800000000000,%rax
ffff800000104812:	80 ff ff 
ffff800000104815:	48 01 d0             	add    %rdx,%rax
ffff800000104818:	48 89 45 d8          	mov    %rax,-0x28(%rbp)
ffff80000010481c:	48 8b 45 d8          	mov    -0x28(%rbp),%rax
ffff800000104820:	48 8b 00             	mov    (%rax),%rax
ffff800000104823:	48 85 c0             	test   %rax,%rax
ffff800000104826:	75 56                	jne    ffff80000010487e <frame_buffer_init+0xce>
ffff800000104828:	be 00 00 00 00       	mov    $0x0,%esi
ffff80000010482d:	bf 00 10 00 00       	mov    $0x1000,%edi
ffff800000104832:	48 b8 04 83 10 00 00 	movabs $0xffff800000108304,%rax
ffff800000104839:	80 ff ff 
ffff80000010483c:	ff d0                	callq  *%rax
ffff80000010483e:	48 89 45 d0          	mov    %rax,-0x30(%rbp)
ffff800000104842:	48 8b 45 d0          	mov    -0x30(%rbp),%rax
ffff800000104846:	ba 00 10 00 00       	mov    $0x1000,%edx
ffff80000010484b:	be 00 00 00 00       	mov    $0x0,%esi
ffff800000104850:	48 89 c7             	mov    %rax,%rdi
ffff800000104853:	48 b8 fd 46 10 00 00 	movabs $0xffff8000001046fd,%rax
ffff80000010485a:	80 ff ff 
ffff80000010485d:	ff d0                	callq  *%rax
ffff80000010485f:	48 8b 55 d0          	mov    -0x30(%rbp),%rdx
ffff800000104863:	48 b8 00 00 00 00 00 	movabs $0x800000000000,%rax
ffff80000010486a:	80 00 00 
ffff80000010486d:	48 01 d0             	add    %rdx,%rax
ffff800000104870:	48 83 c8 03          	or     $0x3,%rax
ffff800000104874:	48 89 c2             	mov    %rax,%rdx
ffff800000104877:	48 8b 45 d8          	mov    -0x28(%rbp),%rax
ffff80000010487b:	48 89 10             	mov    %rdx,(%rax)
ffff80000010487e:	48 8b 45 e0          	mov    -0x20(%rbp),%rax
ffff800000104882:	48 c1 e8 1e          	shr    $0x1e,%rax
ffff800000104886:	25 ff 01 00 00       	and    $0x1ff,%eax
ffff80000010488b:	48 8d 14 c5 00 00 00 	lea    0x0(,%rax,8),%rdx
ffff800000104892:	00 
ffff800000104893:	48 8b 45 d8          	mov    -0x28(%rbp),%rax
ffff800000104897:	48 8b 00             	mov    (%rax),%rax
ffff80000010489a:	48 25 00 f0 ff ff    	and    $0xfffffffffffff000,%rax
ffff8000001048a0:	48 01 c2             	add    %rax,%rdx
ffff8000001048a3:	48 b8 00 00 00 00 00 	movabs $0xffff800000000000,%rax
ffff8000001048aa:	80 ff ff 
ffff8000001048ad:	48 01 d0             	add    %rdx,%rax
ffff8000001048b0:	48 89 45 d8          	mov    %rax,-0x28(%rbp)
ffff8000001048b4:	48 8b 45 d8          	mov    -0x28(%rbp),%rax
ffff8000001048b8:	48 8b 00             	mov    (%rax),%rax
ffff8000001048bb:	48 85 c0             	test   %rax,%rax
ffff8000001048be:	75 56                	jne    ffff800000104916 <frame_buffer_init+0x166>
ffff8000001048c0:	be 00 00 00 00       	mov    $0x0,%esi
ffff8000001048c5:	bf 00 10 00 00       	mov    $0x1000,%edi
ffff8000001048ca:	48 b8 04 83 10 00 00 	movabs $0xffff800000108304,%rax
ffff8000001048d1:	80 ff ff 
ffff8000001048d4:	ff d0                	callq  *%rax
ffff8000001048d6:	48 89 45 c8          	mov    %rax,-0x38(%rbp)
ffff8000001048da:	48 8b 45 c8          	mov    -0x38(%rbp),%rax
ffff8000001048de:	ba 00 10 00 00       	mov    $0x1000,%edx
ffff8000001048e3:	be 00 00 00 00       	mov    $0x0,%esi
ffff8000001048e8:	48 89 c7             	mov    %rax,%rdi
ffff8000001048eb:	48 b8 fd 46 10 00 00 	movabs $0xffff8000001046fd,%rax
ffff8000001048f2:	80 ff ff 
ffff8000001048f5:	ff d0                	callq  *%rax
ffff8000001048f7:	48 8b 55 c8          	mov    -0x38(%rbp),%rdx
ffff8000001048fb:	48 b8 00 00 00 00 00 	movabs $0x800000000000,%rax
ffff800000104902:	80 00 00 
ffff800000104905:	48 01 d0             	add    %rdx,%rax
ffff800000104908:	48 83 c8 03          	or     $0x3,%rax
ffff80000010490c:	48 89 c2             	mov    %rax,%rdx
ffff80000010490f:	48 8b 45 d8          	mov    -0x28(%rbp),%rax
ffff800000104913:	48 89 10             	mov    %rdx,(%rax)
ffff800000104916:	48 c7 45 e8 00 00 00 	movq   $0x0,-0x18(%rbp)
ffff80000010491d:	00 
ffff80000010491e:	eb 71                	jmp    ffff800000104991 <frame_buffer_init+0x1e1>
ffff800000104920:	48 8b 55 e0          	mov    -0x20(%rbp),%rdx
ffff800000104924:	48 8b 45 e8          	mov    -0x18(%rbp),%rax
ffff800000104928:	48 01 d0             	add    %rdx,%rax
ffff80000010492b:	48 c1 e8 15          	shr    $0x15,%rax
ffff80000010492f:	25 ff 01 00 00       	and    $0x1ff,%eax
ffff800000104934:	48 8d 14 c5 00 00 00 	lea    0x0(,%rax,8),%rdx
ffff80000010493b:	00 
ffff80000010493c:	48 8b 45 d8          	mov    -0x28(%rbp),%rax
ffff800000104940:	48 8b 00             	mov    (%rax),%rax
ffff800000104943:	48 25 00 f0 ff ff    	and    $0xfffffffffffff000,%rax
ffff800000104949:	48 01 c2             	add    %rax,%rdx
ffff80000010494c:	48 b8 00 00 00 00 00 	movabs $0xffff800000000000,%rax
ffff800000104953:	80 ff ff 
ffff800000104956:	48 01 d0             	add    %rdx,%rax
ffff800000104959:	48 89 45 c0          	mov    %rax,-0x40(%rbp)
ffff80000010495d:	48 b8 60 07 11 00 00 	movabs $0xffff800000110760,%rax
ffff800000104964:	80 ff ff 
ffff800000104967:	48 8b 00             	mov    (%rax),%rax
ffff80000010496a:	48 8b 50 10          	mov    0x10(%rax),%rdx
ffff80000010496e:	48 8b 45 e8          	mov    -0x18(%rbp),%rax
ffff800000104972:	48 01 d0             	add    %rdx,%rax
ffff800000104975:	48 89 45 b8          	mov    %rax,-0x48(%rbp)
ffff800000104979:	48 8b 45 b8          	mov    -0x48(%rbp),%rax
ffff80000010497d:	0c 9b                	or     $0x9b,%al
ffff80000010497f:	48 89 c2             	mov    %rax,%rdx
ffff800000104982:	48 8b 45 c0          	mov    -0x40(%rbp),%rax
ffff800000104986:	48 89 10             	mov    %rdx,(%rax)
ffff800000104989:	48 81 45 e8 00 00 20 	addq   $0x200000,-0x18(%rbp)
ffff800000104990:	00 
ffff800000104991:	48 b8 40 a4 13 00 00 	movabs $0xffff80000013a440,%rax
ffff800000104998:	80 ff ff 
ffff80000010499b:	48 8b 40 20          	mov    0x20(%rax),%rax
ffff80000010499f:	48 3b 45 e8          	cmp    -0x18(%rbp),%rax
ffff8000001049a3:	0f 87 77 ff ff ff    	ja     ffff800000104920 <frame_buffer_init+0x170>
ffff8000001049a9:	48 b8 60 07 11 00 00 	movabs $0xffff800000110760,%rax
ffff8000001049b0:	80 ff ff 
ffff8000001049b3:	48 8b 00             	mov    (%rax),%rax
ffff8000001049b6:	48 8b 50 10          	mov    0x10(%rax),%rdx
ffff8000001049ba:	48 b8 00 00 00 00 00 	movabs $0xffff800000000000,%rax
ffff8000001049c1:	80 ff ff 
ffff8000001049c4:	48 01 d0             	add    %rdx,%rax
ffff8000001049c7:	48 89 c2             	mov    %rax,%rdx
ffff8000001049ca:	48 b8 40 a4 13 00 00 	movabs $0xffff80000013a440,%rax
ffff8000001049d1:	80 ff ff 
ffff8000001049d4:	48 89 50 18          	mov    %rdx,0x18(%rax)
ffff8000001049d8:	0f 20 d8             	mov    %cr3,%rax
ffff8000001049db:	0f 22 d8             	mov    %rax,%cr3
ffff8000001049de:	48 89 45 b0          	mov    %rax,-0x50(%rbp)
ffff8000001049e2:	48 83 c4 48          	add    $0x48,%rsp
ffff8000001049e6:	5b                   	pop    %rbx
ffff8000001049e7:	5d                   	pop    %rbp
ffff8000001049e8:	c3                   	retq   

ffff8000001049e9 <putchar>:
ffff8000001049e9:	55                   	push   %rbp
ffff8000001049ea:	48 89 e5             	mov    %rsp,%rbp
ffff8000001049ed:	48 89 7d d8          	mov    %rdi,-0x28(%rbp)
ffff8000001049f1:	89 75 d4             	mov    %esi,-0x2c(%rbp)
ffff8000001049f4:	89 55 d0             	mov    %edx,-0x30(%rbp)
ffff8000001049f7:	89 4d cc             	mov    %ecx,-0x34(%rbp)
ffff8000001049fa:	44 89 45 c8          	mov    %r8d,-0x38(%rbp)
ffff8000001049fe:	44 89 4d c4          	mov    %r9d,-0x3c(%rbp)
ffff800000104a02:	8b 45 10             	mov    0x10(%rbp),%eax
ffff800000104a05:	88 45 c0             	mov    %al,-0x40(%rbp)
ffff800000104a08:	c7 45 fc 00 00 00 00 	movl   $0x0,-0x4(%rbp)
ffff800000104a0f:	c7 45 f8 00 00 00 00 	movl   $0x0,-0x8(%rbp)
ffff800000104a16:	48 c7 45 f0 00 00 00 	movq   $0x0,-0x10(%rbp)
ffff800000104a1d:	00 
ffff800000104a1e:	48 c7 45 e8 00 00 00 	movq   $0x0,-0x18(%rbp)
ffff800000104a25:	00 
ffff800000104a26:	c7 45 e4 00 00 00 00 	movl   $0x0,-0x1c(%rbp)
ffff800000104a2d:	0f b6 45 c0          	movzbl -0x40(%rbp),%eax
ffff800000104a31:	48 98                	cltq   
ffff800000104a33:	48 c1 e0 04          	shl    $0x4,%rax
ffff800000104a37:	48 89 c2             	mov    %rax,%rdx
ffff800000104a3a:	48 b8 00 ec 10 00 00 	movabs $0xffff80000010ec00,%rax
ffff800000104a41:	80 ff ff 
ffff800000104a44:	48 01 d0             	add    %rdx,%rax
ffff800000104a47:	48 89 45 e8          	mov    %rax,-0x18(%rbp)
ffff800000104a4b:	c7 45 fc 00 00 00 00 	movl   $0x0,-0x4(%rbp)
ffff800000104a52:	eb 7a                	jmp    ffff800000104ace <putchar+0xe5>
ffff800000104a54:	8b 45 fc             	mov    -0x4(%rbp),%eax
ffff800000104a57:	8b 55 cc             	mov    -0x34(%rbp),%edx
ffff800000104a5a:	01 d0                	add    %edx,%eax
ffff800000104a5c:	0f af 45 d4          	imul   -0x2c(%rbp),%eax
ffff800000104a60:	48 63 d0             	movslq %eax,%rdx
ffff800000104a63:	8b 45 d0             	mov    -0x30(%rbp),%eax
ffff800000104a66:	48 98                	cltq   
ffff800000104a68:	48 01 d0             	add    %rdx,%rax
ffff800000104a6b:	48 8d 14 85 00 00 00 	lea    0x0(,%rax,4),%rdx
ffff800000104a72:	00 
ffff800000104a73:	48 8b 45 d8          	mov    -0x28(%rbp),%rax
ffff800000104a77:	48 01 d0             	add    %rdx,%rax
ffff800000104a7a:	48 89 45 f0          	mov    %rax,-0x10(%rbp)
ffff800000104a7e:	c7 45 e4 00 01 00 00 	movl   $0x100,-0x1c(%rbp)
ffff800000104a85:	c7 45 f8 00 00 00 00 	movl   $0x0,-0x8(%rbp)
ffff800000104a8c:	eb 31                	jmp    ffff800000104abf <putchar+0xd6>
ffff800000104a8e:	d1 7d e4             	sarl   -0x1c(%rbp)
ffff800000104a91:	48 8b 45 e8          	mov    -0x18(%rbp),%rax
ffff800000104a95:	0f b6 00             	movzbl (%rax),%eax
ffff800000104a98:	0f b6 c0             	movzbl %al,%eax
ffff800000104a9b:	23 45 e4             	and    -0x1c(%rbp),%eax
ffff800000104a9e:	85 c0                	test   %eax,%eax
ffff800000104aa0:	74 0b                	je     ffff800000104aad <putchar+0xc4>
ffff800000104aa2:	48 8b 45 f0          	mov    -0x10(%rbp),%rax
ffff800000104aa6:	8b 55 c8             	mov    -0x38(%rbp),%edx
ffff800000104aa9:	89 10                	mov    %edx,(%rax)
ffff800000104aab:	eb 09                	jmp    ffff800000104ab6 <putchar+0xcd>
ffff800000104aad:	48 8b 45 f0          	mov    -0x10(%rbp),%rax
ffff800000104ab1:	8b 55 c4             	mov    -0x3c(%rbp),%edx
ffff800000104ab4:	89 10                	mov    %edx,(%rax)
ffff800000104ab6:	48 83 45 f0 04       	addq   $0x4,-0x10(%rbp)
ffff800000104abb:	83 45 f8 01          	addl   $0x1,-0x8(%rbp)
ffff800000104abf:	83 7d f8 07          	cmpl   $0x7,-0x8(%rbp)
ffff800000104ac3:	7e c9                	jle    ffff800000104a8e <putchar+0xa5>
ffff800000104ac5:	48 83 45 e8 01       	addq   $0x1,-0x18(%rbp)
ffff800000104aca:	83 45 fc 01          	addl   $0x1,-0x4(%rbp)
ffff800000104ace:	83 7d fc 0f          	cmpl   $0xf,-0x4(%rbp)
ffff800000104ad2:	7e 80                	jle    ffff800000104a54 <putchar+0x6b>
ffff800000104ad4:	5d                   	pop    %rbp
ffff800000104ad5:	c3                   	retq   

ffff800000104ad6 <skip_atoi>:
ffff800000104ad6:	55                   	push   %rbp
ffff800000104ad7:	48 89 e5             	mov    %rsp,%rbp
ffff800000104ada:	48 89 7d e8          	mov    %rdi,-0x18(%rbp)
ffff800000104ade:	c7 45 fc 00 00 00 00 	movl   $0x0,-0x4(%rbp)
ffff800000104ae5:	eb 2e                	jmp    ffff800000104b15 <skip_atoi+0x3f>
ffff800000104ae7:	8b 55 fc             	mov    -0x4(%rbp),%edx
ffff800000104aea:	89 d0                	mov    %edx,%eax
ffff800000104aec:	c1 e0 02             	shl    $0x2,%eax
ffff800000104aef:	01 d0                	add    %edx,%eax
ffff800000104af1:	01 c0                	add    %eax,%eax
ffff800000104af3:	89 c6                	mov    %eax,%esi
ffff800000104af5:	48 8b 45 e8          	mov    -0x18(%rbp),%rax
ffff800000104af9:	48 8b 00             	mov    (%rax),%rax
ffff800000104afc:	48 8d 48 01          	lea    0x1(%rax),%rcx
ffff800000104b00:	48 8b 55 e8          	mov    -0x18(%rbp),%rdx
ffff800000104b04:	48 89 0a             	mov    %rcx,(%rdx)
ffff800000104b07:	0f b6 00             	movzbl (%rax),%eax
ffff800000104b0a:	0f be c0             	movsbl %al,%eax
ffff800000104b0d:	01 f0                	add    %esi,%eax
ffff800000104b0f:	83 e8 30             	sub    $0x30,%eax
ffff800000104b12:	89 45 fc             	mov    %eax,-0x4(%rbp)
ffff800000104b15:	48 8b 45 e8          	mov    -0x18(%rbp),%rax
ffff800000104b19:	48 8b 00             	mov    (%rax),%rax
ffff800000104b1c:	0f b6 00             	movzbl (%rax),%eax
ffff800000104b1f:	3c 2f                	cmp    $0x2f,%al
ffff800000104b21:	7e 0e                	jle    ffff800000104b31 <skip_atoi+0x5b>
ffff800000104b23:	48 8b 45 e8          	mov    -0x18(%rbp),%rax
ffff800000104b27:	48 8b 00             	mov    (%rax),%rax
ffff800000104b2a:	0f b6 00             	movzbl (%rax),%eax
ffff800000104b2d:	3c 39                	cmp    $0x39,%al
ffff800000104b2f:	7e b6                	jle    ffff800000104ae7 <skip_atoi+0x11>
ffff800000104b31:	8b 45 fc             	mov    -0x4(%rbp),%eax
ffff800000104b34:	5d                   	pop    %rbp
ffff800000104b35:	c3                   	retq   

ffff800000104b36 <number>:
ffff800000104b36:	55                   	push   %rbp
ffff800000104b37:	48 89 e5             	mov    %rsp,%rbp
ffff800000104b3a:	48 89 7d a8          	mov    %rdi,-0x58(%rbp)
ffff800000104b3e:	48 89 75 a0          	mov    %rsi,-0x60(%rbp)
ffff800000104b42:	89 55 9c             	mov    %edx,-0x64(%rbp)
ffff800000104b45:	89 4d 98             	mov    %ecx,-0x68(%rbp)
ffff800000104b48:	44 89 45 94          	mov    %r8d,-0x6c(%rbp)
ffff800000104b4c:	44 89 4d 90          	mov    %r9d,-0x70(%rbp)
ffff800000104b50:	48 b8 a8 96 11 00 00 	movabs $0xffff8000001196a8,%rax
ffff800000104b57:	80 ff ff 
ffff800000104b5a:	48 89 45 f0          	mov    %rax,-0x10(%rbp)
ffff800000104b5e:	8b 45 90             	mov    -0x70(%rbp),%eax
ffff800000104b61:	83 e0 40             	and    $0x40,%eax
ffff800000104b64:	85 c0                	test   %eax,%eax
ffff800000104b66:	74 0e                	je     ffff800000104b76 <number+0x40>
ffff800000104b68:	48 b8 d0 96 11 00 00 	movabs $0xffff8000001196d0,%rax
ffff800000104b6f:	80 ff ff 
ffff800000104b72:	48 89 45 f0          	mov    %rax,-0x10(%rbp)
ffff800000104b76:	8b 45 90             	mov    -0x70(%rbp),%eax
ffff800000104b79:	83 e0 10             	and    $0x10,%eax
ffff800000104b7c:	85 c0                	test   %eax,%eax
ffff800000104b7e:	74 04                	je     ffff800000104b84 <number+0x4e>
ffff800000104b80:	83 65 90 fe          	andl   $0xfffffffe,-0x70(%rbp)
ffff800000104b84:	83 7d 9c 01          	cmpl   $0x1,-0x64(%rbp)
ffff800000104b88:	7e 06                	jle    ffff800000104b90 <number+0x5a>
ffff800000104b8a:	83 7d 9c 24          	cmpl   $0x24,-0x64(%rbp)
ffff800000104b8e:	7e 0a                	jle    ffff800000104b9a <number+0x64>
ffff800000104b90:	b8 00 00 00 00       	mov    $0x0,%eax
ffff800000104b95:	e9 1f 02 00 00       	jmpq   ffff800000104db9 <number+0x283>
ffff800000104b9a:	8b 45 90             	mov    -0x70(%rbp),%eax
ffff800000104b9d:	83 e0 01             	and    $0x1,%eax
ffff800000104ba0:	85 c0                	test   %eax,%eax
ffff800000104ba2:	74 07                	je     ffff800000104bab <number+0x75>
ffff800000104ba4:	b8 30 00 00 00       	mov    $0x30,%eax
ffff800000104ba9:	eb 05                	jmp    ffff800000104bb0 <number+0x7a>
ffff800000104bab:	b8 20 00 00 00       	mov    $0x20,%eax
ffff800000104bb0:	88 45 eb             	mov    %al,-0x15(%rbp)
ffff800000104bb3:	c6 45 ff 00          	movb   $0x0,-0x1(%rbp)
ffff800000104bb7:	8b 45 90             	mov    -0x70(%rbp),%eax
ffff800000104bba:	83 e0 02             	and    $0x2,%eax
ffff800000104bbd:	85 c0                	test   %eax,%eax
ffff800000104bbf:	74 11                	je     ffff800000104bd2 <number+0x9c>
ffff800000104bc1:	48 83 7d a0 00       	cmpq   $0x0,-0x60(%rbp)
ffff800000104bc6:	79 0a                	jns    ffff800000104bd2 <number+0x9c>
ffff800000104bc8:	c6 45 ff 2d          	movb   $0x2d,-0x1(%rbp)
ffff800000104bcc:	48 f7 5d a0          	negq   -0x60(%rbp)
ffff800000104bd0:	eb 2a                	jmp    ffff800000104bfc <number+0xc6>
ffff800000104bd2:	8b 45 90             	mov    -0x70(%rbp),%eax
ffff800000104bd5:	83 e0 04             	and    $0x4,%eax
ffff800000104bd8:	85 c0                	test   %eax,%eax
ffff800000104bda:	75 18                	jne    ffff800000104bf4 <number+0xbe>
ffff800000104bdc:	8b 45 90             	mov    -0x70(%rbp),%eax
ffff800000104bdf:	83 e0 08             	and    $0x8,%eax
ffff800000104be2:	85 c0                	test   %eax,%eax
ffff800000104be4:	74 07                	je     ffff800000104bed <number+0xb7>
ffff800000104be6:	b8 20 00 00 00       	mov    $0x20,%eax
ffff800000104beb:	eb 0c                	jmp    ffff800000104bf9 <number+0xc3>
ffff800000104bed:	b8 00 00 00 00       	mov    $0x0,%eax
ffff800000104bf2:	eb 05                	jmp    ffff800000104bf9 <number+0xc3>
ffff800000104bf4:	b8 2b 00 00 00       	mov    $0x2b,%eax
ffff800000104bf9:	88 45 ff             	mov    %al,-0x1(%rbp)
ffff800000104bfc:	80 7d ff 00          	cmpb   $0x0,-0x1(%rbp)
ffff800000104c00:	74 04                	je     ffff800000104c06 <number+0xd0>
ffff800000104c02:	83 6d 98 01          	subl   $0x1,-0x68(%rbp)
ffff800000104c06:	8b 45 90             	mov    -0x70(%rbp),%eax
ffff800000104c09:	83 e0 20             	and    $0x20,%eax
ffff800000104c0c:	85 c0                	test   %eax,%eax
ffff800000104c0e:	74 16                	je     ffff800000104c26 <number+0xf0>
ffff800000104c10:	83 7d 9c 10          	cmpl   $0x10,-0x64(%rbp)
ffff800000104c14:	75 06                	jne    ffff800000104c1c <number+0xe6>
ffff800000104c16:	83 6d 98 02          	subl   $0x2,-0x68(%rbp)
ffff800000104c1a:	eb 0a                	jmp    ffff800000104c26 <number+0xf0>
ffff800000104c1c:	83 7d 9c 08          	cmpl   $0x8,-0x64(%rbp)
ffff800000104c20:	75 04                	jne    ffff800000104c26 <number+0xf0>
ffff800000104c22:	83 6d 98 01          	subl   $0x1,-0x68(%rbp)
ffff800000104c26:	c7 45 ec 00 00 00 00 	movl   $0x0,-0x14(%rbp)
ffff800000104c2d:	48 83 7d a0 00       	cmpq   $0x0,-0x60(%rbp)
ffff800000104c32:	75 12                	jne    ffff800000104c46 <number+0x110>
ffff800000104c34:	8b 45 ec             	mov    -0x14(%rbp),%eax
ffff800000104c37:	8d 50 01             	lea    0x1(%rax),%edx
ffff800000104c3a:	89 55 ec             	mov    %edx,-0x14(%rbp)
ffff800000104c3d:	48 98                	cltq   
ffff800000104c3f:	c6 44 05 b0 30       	movb   $0x30,-0x50(%rbp,%rax,1)
ffff800000104c44:	eb 3f                	jmp    ffff800000104c85 <number+0x14f>
ffff800000104c46:	eb 36                	jmp    ffff800000104c7e <number+0x148>
ffff800000104c48:	8b 75 ec             	mov    -0x14(%rbp),%esi
ffff800000104c4b:	8d 46 01             	lea    0x1(%rsi),%eax
ffff800000104c4e:	89 45 ec             	mov    %eax,-0x14(%rbp)
ffff800000104c51:	48 8b 45 a0          	mov    -0x60(%rbp),%rax
ffff800000104c55:	ba 00 00 00 00       	mov    $0x0,%edx
ffff800000104c5a:	8b 4d 9c             	mov    -0x64(%rbp),%ecx
ffff800000104c5d:	48 f7 f1             	div    %rcx
ffff800000104c60:	48 89 45 a0          	mov    %rax,-0x60(%rbp)
ffff800000104c64:	89 55 e4             	mov    %edx,-0x1c(%rbp)
ffff800000104c67:	8b 45 e4             	mov    -0x1c(%rbp),%eax
ffff800000104c6a:	48 63 d0             	movslq %eax,%rdx
ffff800000104c6d:	48 8b 45 f0          	mov    -0x10(%rbp),%rax
ffff800000104c71:	48 01 d0             	add    %rdx,%rax
ffff800000104c74:	0f b6 10             	movzbl (%rax),%edx
ffff800000104c77:	48 63 c6             	movslq %esi,%rax
ffff800000104c7a:	88 54 05 b0          	mov    %dl,-0x50(%rbp,%rax,1)
ffff800000104c7e:	48 83 7d a0 00       	cmpq   $0x0,-0x60(%rbp)
ffff800000104c83:	75 c3                	jne    ffff800000104c48 <number+0x112>
ffff800000104c85:	8b 45 ec             	mov    -0x14(%rbp),%eax
ffff800000104c88:	3b 45 94             	cmp    -0x6c(%rbp),%eax
ffff800000104c8b:	7e 06                	jle    ffff800000104c93 <number+0x15d>
ffff800000104c8d:	8b 45 ec             	mov    -0x14(%rbp),%eax
ffff800000104c90:	89 45 94             	mov    %eax,-0x6c(%rbp)
ffff800000104c93:	8b 45 94             	mov    -0x6c(%rbp),%eax
ffff800000104c96:	29 45 98             	sub    %eax,-0x68(%rbp)
ffff800000104c99:	8b 45 90             	mov    -0x70(%rbp),%eax
ffff800000104c9c:	83 e0 11             	and    $0x11,%eax
ffff800000104c9f:	85 c0                	test   %eax,%eax
ffff800000104ca1:	75 1e                	jne    ffff800000104cc1 <number+0x18b>
ffff800000104ca3:	eb 0f                	jmp    ffff800000104cb4 <number+0x17e>
ffff800000104ca5:	48 8b 45 a8          	mov    -0x58(%rbp),%rax
ffff800000104ca9:	48 8d 50 01          	lea    0x1(%rax),%rdx
ffff800000104cad:	48 89 55 a8          	mov    %rdx,-0x58(%rbp)
ffff800000104cb1:	c6 00 20             	movb   $0x20,(%rax)
ffff800000104cb4:	8b 45 98             	mov    -0x68(%rbp),%eax
ffff800000104cb7:	8d 50 ff             	lea    -0x1(%rax),%edx
ffff800000104cba:	89 55 98             	mov    %edx,-0x68(%rbp)
ffff800000104cbd:	85 c0                	test   %eax,%eax
ffff800000104cbf:	7f e4                	jg     ffff800000104ca5 <number+0x16f>
ffff800000104cc1:	80 7d ff 00          	cmpb   $0x0,-0x1(%rbp)
ffff800000104cc5:	74 12                	je     ffff800000104cd9 <number+0x1a3>
ffff800000104cc7:	48 8b 45 a8          	mov    -0x58(%rbp),%rax
ffff800000104ccb:	48 8d 50 01          	lea    0x1(%rax),%rdx
ffff800000104ccf:	48 89 55 a8          	mov    %rdx,-0x58(%rbp)
ffff800000104cd3:	0f b6 55 ff          	movzbl -0x1(%rbp),%edx
ffff800000104cd7:	88 10                	mov    %dl,(%rax)
ffff800000104cd9:	8b 45 90             	mov    -0x70(%rbp),%eax
ffff800000104cdc:	83 e0 20             	and    $0x20,%eax
ffff800000104cdf:	85 c0                	test   %eax,%eax
ffff800000104ce1:	74 42                	je     ffff800000104d25 <number+0x1ef>
ffff800000104ce3:	83 7d 9c 08          	cmpl   $0x8,-0x64(%rbp)
ffff800000104ce7:	75 11                	jne    ffff800000104cfa <number+0x1c4>
ffff800000104ce9:	48 8b 45 a8          	mov    -0x58(%rbp),%rax
ffff800000104ced:	48 8d 50 01          	lea    0x1(%rax),%rdx
ffff800000104cf1:	48 89 55 a8          	mov    %rdx,-0x58(%rbp)
ffff800000104cf5:	c6 00 30             	movb   $0x30,(%rax)
ffff800000104cf8:	eb 2b                	jmp    ffff800000104d25 <number+0x1ef>
ffff800000104cfa:	83 7d 9c 10          	cmpl   $0x10,-0x64(%rbp)
ffff800000104cfe:	75 25                	jne    ffff800000104d25 <number+0x1ef>
ffff800000104d00:	48 8b 45 a8          	mov    -0x58(%rbp),%rax
ffff800000104d04:	48 8d 50 01          	lea    0x1(%rax),%rdx
ffff800000104d08:	48 89 55 a8          	mov    %rdx,-0x58(%rbp)
ffff800000104d0c:	c6 00 30             	movb   $0x30,(%rax)
ffff800000104d0f:	48 8b 45 a8          	mov    -0x58(%rbp),%rax
ffff800000104d13:	48 8d 50 01          	lea    0x1(%rax),%rdx
ffff800000104d17:	48 89 55 a8          	mov    %rdx,-0x58(%rbp)
ffff800000104d1b:	48 8b 55 f0          	mov    -0x10(%rbp),%rdx
ffff800000104d1f:	0f b6 52 21          	movzbl 0x21(%rdx),%edx
ffff800000104d23:	88 10                	mov    %dl,(%rax)
ffff800000104d25:	8b 45 90             	mov    -0x70(%rbp),%eax
ffff800000104d28:	83 e0 10             	and    $0x10,%eax
ffff800000104d2b:	85 c0                	test   %eax,%eax
ffff800000104d2d:	75 21                	jne    ffff800000104d50 <number+0x21a>
ffff800000104d2f:	eb 12                	jmp    ffff800000104d43 <number+0x20d>
ffff800000104d31:	48 8b 45 a8          	mov    -0x58(%rbp),%rax
ffff800000104d35:	48 8d 50 01          	lea    0x1(%rax),%rdx
ffff800000104d39:	48 89 55 a8          	mov    %rdx,-0x58(%rbp)
ffff800000104d3d:	0f b6 55 eb          	movzbl -0x15(%rbp),%edx
ffff800000104d41:	88 10                	mov    %dl,(%rax)
ffff800000104d43:	8b 45 98             	mov    -0x68(%rbp),%eax
ffff800000104d46:	8d 50 ff             	lea    -0x1(%rax),%edx
ffff800000104d49:	89 55 98             	mov    %edx,-0x68(%rbp)
ffff800000104d4c:	85 c0                	test   %eax,%eax
ffff800000104d4e:	7f e1                	jg     ffff800000104d31 <number+0x1fb>
ffff800000104d50:	eb 0f                	jmp    ffff800000104d61 <number+0x22b>
ffff800000104d52:	48 8b 45 a8          	mov    -0x58(%rbp),%rax
ffff800000104d56:	48 8d 50 01          	lea    0x1(%rax),%rdx
ffff800000104d5a:	48 89 55 a8          	mov    %rdx,-0x58(%rbp)
ffff800000104d5e:	c6 00 30             	movb   $0x30,(%rax)
ffff800000104d61:	8b 45 94             	mov    -0x6c(%rbp),%eax
ffff800000104d64:	8d 50 ff             	lea    -0x1(%rax),%edx
ffff800000104d67:	89 55 94             	mov    %edx,-0x6c(%rbp)
ffff800000104d6a:	3b 45 ec             	cmp    -0x14(%rbp),%eax
ffff800000104d6d:	7f e3                	jg     ffff800000104d52 <number+0x21c>
ffff800000104d6f:	eb 19                	jmp    ffff800000104d8a <number+0x254>
ffff800000104d71:	48 8b 45 a8          	mov    -0x58(%rbp),%rax
ffff800000104d75:	48 8d 50 01          	lea    0x1(%rax),%rdx
ffff800000104d79:	48 89 55 a8          	mov    %rdx,-0x58(%rbp)
ffff800000104d7d:	8b 55 ec             	mov    -0x14(%rbp),%edx
ffff800000104d80:	48 63 d2             	movslq %edx,%rdx
ffff800000104d83:	0f b6 54 15 b0       	movzbl -0x50(%rbp,%rdx,1),%edx
ffff800000104d88:	88 10                	mov    %dl,(%rax)
ffff800000104d8a:	8b 45 ec             	mov    -0x14(%rbp),%eax
ffff800000104d8d:	8d 50 ff             	lea    -0x1(%rax),%edx
ffff800000104d90:	89 55 ec             	mov    %edx,-0x14(%rbp)
ffff800000104d93:	85 c0                	test   %eax,%eax
ffff800000104d95:	7f da                	jg     ffff800000104d71 <number+0x23b>
ffff800000104d97:	eb 0f                	jmp    ffff800000104da8 <number+0x272>
ffff800000104d99:	48 8b 45 a8          	mov    -0x58(%rbp),%rax
ffff800000104d9d:	48 8d 50 01          	lea    0x1(%rax),%rdx
ffff800000104da1:	48 89 55 a8          	mov    %rdx,-0x58(%rbp)
ffff800000104da5:	c6 00 20             	movb   $0x20,(%rax)
ffff800000104da8:	8b 45 98             	mov    -0x68(%rbp),%eax
ffff800000104dab:	8d 50 ff             	lea    -0x1(%rax),%edx
ffff800000104dae:	89 55 98             	mov    %edx,-0x68(%rbp)
ffff800000104db1:	85 c0                	test   %eax,%eax
ffff800000104db3:	7f e4                	jg     ffff800000104d99 <number+0x263>
ffff800000104db5:	48 8b 45 a8          	mov    -0x58(%rbp),%rax
ffff800000104db9:	5d                   	pop    %rbp
ffff800000104dba:	c3                   	retq   

ffff800000104dbb <vsprintf>:
ffff800000104dbb:	55                   	push   %rbp
ffff800000104dbc:	48 89 e5             	mov    %rsp,%rbp
ffff800000104dbf:	48 83 ec 58          	sub    $0x58,%rsp
ffff800000104dc3:	48 89 7d b8          	mov    %rdi,-0x48(%rbp)
ffff800000104dc7:	48 89 75 b0          	mov    %rsi,-0x50(%rbp)
ffff800000104dcb:	48 89 55 a8          	mov    %rdx,-0x58(%rbp)
ffff800000104dcf:	48 8b 45 b8          	mov    -0x48(%rbp),%rax
ffff800000104dd3:	48 89 45 f8          	mov    %rax,-0x8(%rbp)
ffff800000104dd7:	e9 ce 08 00 00       	jmpq   ffff8000001056aa <vsprintf+0x8ef>
ffff800000104ddc:	48 8b 45 b0          	mov    -0x50(%rbp),%rax
ffff800000104de0:	0f b6 00             	movzbl (%rax),%eax
ffff800000104de3:	3c 25                	cmp    $0x25,%al
ffff800000104de5:	74 1a                	je     ffff800000104e01 <vsprintf+0x46>
ffff800000104de7:	48 8b 45 f8          	mov    -0x8(%rbp),%rax
ffff800000104deb:	48 8d 50 01          	lea    0x1(%rax),%rdx
ffff800000104def:	48 89 55 f8          	mov    %rdx,-0x8(%rbp)
ffff800000104df3:	48 8b 55 b0          	mov    -0x50(%rbp),%rdx
ffff800000104df7:	0f b6 12             	movzbl (%rdx),%edx
ffff800000104dfa:	88 10                	mov    %dl,(%rax)
ffff800000104dfc:	e9 9d 08 00 00       	jmpq   ffff80000010569e <vsprintf+0x8e3>
ffff800000104e01:	c7 45 ec 00 00 00 00 	movl   $0x0,-0x14(%rbp)
ffff800000104e08:	48 8b 45 b0          	mov    -0x50(%rbp),%rax
ffff800000104e0c:	48 83 c0 01          	add    $0x1,%rax
ffff800000104e10:	48 89 45 b0          	mov    %rax,-0x50(%rbp)
ffff800000104e14:	48 8b 45 b0          	mov    -0x50(%rbp),%rax
ffff800000104e18:	0f b6 00             	movzbl (%rax),%eax
ffff800000104e1b:	0f be c0             	movsbl %al,%eax
ffff800000104e1e:	83 e8 20             	sub    $0x20,%eax
ffff800000104e21:	83 f8 10             	cmp    $0x10,%eax
ffff800000104e24:	77 3a                	ja     ffff800000104e60 <vsprintf+0xa5>
ffff800000104e26:	89 c0                	mov    %eax,%eax
ffff800000104e28:	48 8d 14 c5 00 00 00 	lea    0x0(,%rax,8),%rdx
ffff800000104e2f:	00 
ffff800000104e30:	48 b8 f8 96 11 00 00 	movabs $0xffff8000001196f8,%rax
ffff800000104e37:	80 ff ff 
ffff800000104e3a:	48 01 d0             	add    %rdx,%rax
ffff800000104e3d:	48 8b 00             	mov    (%rax),%rax
ffff800000104e40:	ff e0                	jmpq   *%rax
ffff800000104e42:	83 4d ec 10          	orl    $0x10,-0x14(%rbp)
ffff800000104e46:	eb c0                	jmp    ffff800000104e08 <vsprintf+0x4d>
ffff800000104e48:	83 4d ec 04          	orl    $0x4,-0x14(%rbp)
ffff800000104e4c:	eb ba                	jmp    ffff800000104e08 <vsprintf+0x4d>
ffff800000104e4e:	83 4d ec 08          	orl    $0x8,-0x14(%rbp)
ffff800000104e52:	eb b4                	jmp    ffff800000104e08 <vsprintf+0x4d>
ffff800000104e54:	83 4d ec 20          	orl    $0x20,-0x14(%rbp)
ffff800000104e58:	eb ae                	jmp    ffff800000104e08 <vsprintf+0x4d>
ffff800000104e5a:	83 4d ec 01          	orl    $0x1,-0x14(%rbp)
ffff800000104e5e:	eb a8                	jmp    ffff800000104e08 <vsprintf+0x4d>
ffff800000104e60:	c7 45 e8 ff ff ff ff 	movl   $0xffffffff,-0x18(%rbp)
ffff800000104e67:	48 8b 45 b0          	mov    -0x50(%rbp),%rax
ffff800000104e6b:	0f b6 00             	movzbl (%rax),%eax
ffff800000104e6e:	3c 2f                	cmp    $0x2f,%al
ffff800000104e70:	7e 23                	jle    ffff800000104e95 <vsprintf+0xda>
ffff800000104e72:	48 8b 45 b0          	mov    -0x50(%rbp),%rax
ffff800000104e76:	0f b6 00             	movzbl (%rax),%eax
ffff800000104e79:	3c 39                	cmp    $0x39,%al
ffff800000104e7b:	7f 18                	jg     ffff800000104e95 <vsprintf+0xda>
ffff800000104e7d:	48 8d 45 b0          	lea    -0x50(%rbp),%rax
ffff800000104e81:	48 89 c7             	mov    %rax,%rdi
ffff800000104e84:	48 b8 d6 4a 10 00 00 	movabs $0xffff800000104ad6,%rax
ffff800000104e8b:	80 ff ff 
ffff800000104e8e:	ff d0                	callq  *%rax
ffff800000104e90:	89 45 e8             	mov    %eax,-0x18(%rbp)
ffff800000104e93:	eb 6f                	jmp    ffff800000104f04 <vsprintf+0x149>
ffff800000104e95:	48 8b 45 b0          	mov    -0x50(%rbp),%rax
ffff800000104e99:	0f b6 00             	movzbl (%rax),%eax
ffff800000104e9c:	3c 2a                	cmp    $0x2a,%al
ffff800000104e9e:	75 64                	jne    ffff800000104f04 <vsprintf+0x149>
ffff800000104ea0:	48 8b 45 b0          	mov    -0x50(%rbp),%rax
ffff800000104ea4:	48 83 c0 01          	add    $0x1,%rax
ffff800000104ea8:	48 89 45 b0          	mov    %rax,-0x50(%rbp)
ffff800000104eac:	48 8b 45 a8          	mov    -0x58(%rbp),%rax
ffff800000104eb0:	8b 00                	mov    (%rax),%eax
ffff800000104eb2:	83 f8 30             	cmp    $0x30,%eax
ffff800000104eb5:	73 24                	jae    ffff800000104edb <vsprintf+0x120>
ffff800000104eb7:	48 8b 45 a8          	mov    -0x58(%rbp),%rax
ffff800000104ebb:	48 8b 50 10          	mov    0x10(%rax),%rdx
ffff800000104ebf:	48 8b 45 a8          	mov    -0x58(%rbp),%rax
ffff800000104ec3:	8b 00                	mov    (%rax),%eax
ffff800000104ec5:	89 c0                	mov    %eax,%eax
ffff800000104ec7:	48 01 d0             	add    %rdx,%rax
ffff800000104eca:	48 8b 55 a8          	mov    -0x58(%rbp),%rdx
ffff800000104ece:	8b 12                	mov    (%rdx),%edx
ffff800000104ed0:	8d 4a 08             	lea    0x8(%rdx),%ecx
ffff800000104ed3:	48 8b 55 a8          	mov    -0x58(%rbp),%rdx
ffff800000104ed7:	89 0a                	mov    %ecx,(%rdx)
ffff800000104ed9:	eb 17                	jmp    ffff800000104ef2 <vsprintf+0x137>
ffff800000104edb:	48 8b 45 a8          	mov    -0x58(%rbp),%rax
ffff800000104edf:	48 8b 50 08          	mov    0x8(%rax),%rdx
ffff800000104ee3:	48 89 d0             	mov    %rdx,%rax
ffff800000104ee6:	48 8d 4a 08          	lea    0x8(%rdx),%rcx
ffff800000104eea:	48 8b 55 a8          	mov    -0x58(%rbp),%rdx
ffff800000104eee:	48 89 4a 08          	mov    %rcx,0x8(%rdx)
ffff800000104ef2:	8b 00                	mov    (%rax),%eax
ffff800000104ef4:	89 45 e8             	mov    %eax,-0x18(%rbp)
ffff800000104ef7:	83 7d e8 00          	cmpl   $0x0,-0x18(%rbp)
ffff800000104efb:	79 07                	jns    ffff800000104f04 <vsprintf+0x149>
ffff800000104efd:	f7 5d e8             	negl   -0x18(%rbp)
ffff800000104f00:	83 4d ec 10          	orl    $0x10,-0x14(%rbp)
ffff800000104f04:	c7 45 e4 ff ff ff ff 	movl   $0xffffffff,-0x1c(%rbp)
ffff800000104f0b:	48 8b 45 b0          	mov    -0x50(%rbp),%rax
ffff800000104f0f:	0f b6 00             	movzbl (%rax),%eax
ffff800000104f12:	3c 2e                	cmp    $0x2e,%al
ffff800000104f14:	0f 85 a9 00 00 00    	jne    ffff800000104fc3 <vsprintf+0x208>
ffff800000104f1a:	48 8b 45 b0          	mov    -0x50(%rbp),%rax
ffff800000104f1e:	48 83 c0 01          	add    $0x1,%rax
ffff800000104f22:	48 89 45 b0          	mov    %rax,-0x50(%rbp)
ffff800000104f26:	48 8b 45 b0          	mov    -0x50(%rbp),%rax
ffff800000104f2a:	0f b6 00             	movzbl (%rax),%eax
ffff800000104f2d:	3c 2f                	cmp    $0x2f,%al
ffff800000104f2f:	7e 23                	jle    ffff800000104f54 <vsprintf+0x199>
ffff800000104f31:	48 8b 45 b0          	mov    -0x50(%rbp),%rax
ffff800000104f35:	0f b6 00             	movzbl (%rax),%eax
ffff800000104f38:	3c 39                	cmp    $0x39,%al
ffff800000104f3a:	7f 18                	jg     ffff800000104f54 <vsprintf+0x199>
ffff800000104f3c:	48 8d 45 b0          	lea    -0x50(%rbp),%rax
ffff800000104f40:	48 89 c7             	mov    %rax,%rdi
ffff800000104f43:	48 b8 d6 4a 10 00 00 	movabs $0xffff800000104ad6,%rax
ffff800000104f4a:	80 ff ff 
ffff800000104f4d:	ff d0                	callq  *%rax
ffff800000104f4f:	89 45 e4             	mov    %eax,-0x1c(%rbp)
ffff800000104f52:	eb 62                	jmp    ffff800000104fb6 <vsprintf+0x1fb>
ffff800000104f54:	48 8b 45 b0          	mov    -0x50(%rbp),%rax
ffff800000104f58:	0f b6 00             	movzbl (%rax),%eax
ffff800000104f5b:	3c 2a                	cmp    $0x2a,%al
ffff800000104f5d:	75 57                	jne    ffff800000104fb6 <vsprintf+0x1fb>
ffff800000104f5f:	48 8b 45 b0          	mov    -0x50(%rbp),%rax
ffff800000104f63:	48 83 c0 01          	add    $0x1,%rax
ffff800000104f67:	48 89 45 b0          	mov    %rax,-0x50(%rbp)
ffff800000104f6b:	48 8b 45 a8          	mov    -0x58(%rbp),%rax
ffff800000104f6f:	8b 00                	mov    (%rax),%eax
ffff800000104f71:	83 f8 30             	cmp    $0x30,%eax
ffff800000104f74:	73 24                	jae    ffff800000104f9a <vsprintf+0x1df>
ffff800000104f76:	48 8b 45 a8          	mov    -0x58(%rbp),%rax
ffff800000104f7a:	48 8b 50 10          	mov    0x10(%rax),%rdx
ffff800000104f7e:	48 8b 45 a8          	mov    -0x58(%rbp),%rax
ffff800000104f82:	8b 00                	mov    (%rax),%eax
ffff800000104f84:	89 c0                	mov    %eax,%eax
ffff800000104f86:	48 01 d0             	add    %rdx,%rax
ffff800000104f89:	48 8b 55 a8          	mov    -0x58(%rbp),%rdx
ffff800000104f8d:	8b 12                	mov    (%rdx),%edx
ffff800000104f8f:	8d 4a 08             	lea    0x8(%rdx),%ecx
ffff800000104f92:	48 8b 55 a8          	mov    -0x58(%rbp),%rdx
ffff800000104f96:	89 0a                	mov    %ecx,(%rdx)
ffff800000104f98:	eb 17                	jmp    ffff800000104fb1 <vsprintf+0x1f6>
ffff800000104f9a:	48 8b 45 a8          	mov    -0x58(%rbp),%rax
ffff800000104f9e:	48 8b 50 08          	mov    0x8(%rax),%rdx
ffff800000104fa2:	48 89 d0             	mov    %rdx,%rax
ffff800000104fa5:	48 8d 4a 08          	lea    0x8(%rdx),%rcx
ffff800000104fa9:	48 8b 55 a8          	mov    -0x58(%rbp),%rdx
ffff800000104fad:	48 89 4a 08          	mov    %rcx,0x8(%rdx)
ffff800000104fb1:	8b 00                	mov    (%rax),%eax
ffff800000104fb3:	89 45 e4             	mov    %eax,-0x1c(%rbp)
ffff800000104fb6:	83 7d e4 00          	cmpl   $0x0,-0x1c(%rbp)
ffff800000104fba:	79 07                	jns    ffff800000104fc3 <vsprintf+0x208>
ffff800000104fbc:	c7 45 e4 00 00 00 00 	movl   $0x0,-0x1c(%rbp)
ffff800000104fc3:	c7 45 d8 ff ff ff ff 	movl   $0xffffffff,-0x28(%rbp)
ffff800000104fca:	48 8b 45 b0          	mov    -0x50(%rbp),%rax
ffff800000104fce:	0f b6 00             	movzbl (%rax),%eax
ffff800000104fd1:	3c 68                	cmp    $0x68,%al
ffff800000104fd3:	74 21                	je     ffff800000104ff6 <vsprintf+0x23b>
ffff800000104fd5:	48 8b 45 b0          	mov    -0x50(%rbp),%rax
ffff800000104fd9:	0f b6 00             	movzbl (%rax),%eax
ffff800000104fdc:	3c 6c                	cmp    $0x6c,%al
ffff800000104fde:	74 16                	je     ffff800000104ff6 <vsprintf+0x23b>
ffff800000104fe0:	48 8b 45 b0          	mov    -0x50(%rbp),%rax
ffff800000104fe4:	0f b6 00             	movzbl (%rax),%eax
ffff800000104fe7:	3c 4c                	cmp    $0x4c,%al
ffff800000104fe9:	74 0b                	je     ffff800000104ff6 <vsprintf+0x23b>
ffff800000104feb:	48 8b 45 b0          	mov    -0x50(%rbp),%rax
ffff800000104fef:	0f b6 00             	movzbl (%rax),%eax
ffff800000104ff2:	3c 5a                	cmp    $0x5a,%al
ffff800000104ff4:	75 19                	jne    ffff80000010500f <vsprintf+0x254>
ffff800000104ff6:	48 8b 45 b0          	mov    -0x50(%rbp),%rax
ffff800000104ffa:	0f b6 00             	movzbl (%rax),%eax
ffff800000104ffd:	0f be c0             	movsbl %al,%eax
ffff800000105000:	89 45 d8             	mov    %eax,-0x28(%rbp)
ffff800000105003:	48 8b 45 b0          	mov    -0x50(%rbp),%rax
ffff800000105007:	48 83 c0 01          	add    $0x1,%rax
ffff80000010500b:	48 89 45 b0          	mov    %rax,-0x50(%rbp)
ffff80000010500f:	48 8b 45 b0          	mov    -0x50(%rbp),%rax
ffff800000105013:	0f b6 00             	movzbl (%rax),%eax
ffff800000105016:	0f be c0             	movsbl %al,%eax
ffff800000105019:	83 e8 25             	sub    $0x25,%eax
ffff80000010501c:	83 f8 53             	cmp    $0x53,%eax
ffff80000010501f:	0f 87 3b 06 00 00    	ja     ffff800000105660 <vsprintf+0x8a5>
ffff800000105025:	89 c0                	mov    %eax,%eax
ffff800000105027:	48 8d 14 c5 00 00 00 	lea    0x0(,%rax,8),%rdx
ffff80000010502e:	00 
ffff80000010502f:	48 b8 80 97 11 00 00 	movabs $0xffff800000119780,%rax
ffff800000105036:	80 ff ff 
ffff800000105039:	48 01 d0             	add    %rdx,%rax
ffff80000010503c:	48 8b 00             	mov    (%rax),%rax
ffff80000010503f:	ff e0                	jmpq   *%rax
ffff800000105041:	8b 45 ec             	mov    -0x14(%rbp),%eax
ffff800000105044:	83 e0 10             	and    $0x10,%eax
ffff800000105047:	85 c0                	test   %eax,%eax
ffff800000105049:	75 1b                	jne    ffff800000105066 <vsprintf+0x2ab>
ffff80000010504b:	eb 0f                	jmp    ffff80000010505c <vsprintf+0x2a1>
ffff80000010504d:	48 8b 45 f8          	mov    -0x8(%rbp),%rax
ffff800000105051:	48 8d 50 01          	lea    0x1(%rax),%rdx
ffff800000105055:	48 89 55 f8          	mov    %rdx,-0x8(%rbp)
ffff800000105059:	c6 00 20             	movb   $0x20,(%rax)
ffff80000010505c:	83 6d e8 01          	subl   $0x1,-0x18(%rbp)
ffff800000105060:	83 7d e8 00          	cmpl   $0x0,-0x18(%rbp)
ffff800000105064:	7f e7                	jg     ffff80000010504d <vsprintf+0x292>
ffff800000105066:	48 8b 45 f8          	mov    -0x8(%rbp),%rax
ffff80000010506a:	48 8d 50 01          	lea    0x1(%rax),%rdx
ffff80000010506e:	48 89 55 f8          	mov    %rdx,-0x8(%rbp)
ffff800000105072:	48 8b 55 a8          	mov    -0x58(%rbp),%rdx
ffff800000105076:	8b 12                	mov    (%rdx),%edx
ffff800000105078:	83 fa 30             	cmp    $0x30,%edx
ffff80000010507b:	73 24                	jae    ffff8000001050a1 <vsprintf+0x2e6>
ffff80000010507d:	48 8b 55 a8          	mov    -0x58(%rbp),%rdx
ffff800000105081:	48 8b 4a 10          	mov    0x10(%rdx),%rcx
ffff800000105085:	48 8b 55 a8          	mov    -0x58(%rbp),%rdx
ffff800000105089:	8b 12                	mov    (%rdx),%edx
ffff80000010508b:	89 d2                	mov    %edx,%edx
ffff80000010508d:	48 01 ca             	add    %rcx,%rdx
ffff800000105090:	48 8b 4d a8          	mov    -0x58(%rbp),%rcx
ffff800000105094:	8b 09                	mov    (%rcx),%ecx
ffff800000105096:	8d 71 08             	lea    0x8(%rcx),%esi
ffff800000105099:	48 8b 4d a8          	mov    -0x58(%rbp),%rcx
ffff80000010509d:	89 31                	mov    %esi,(%rcx)
ffff80000010509f:	eb 17                	jmp    ffff8000001050b8 <vsprintf+0x2fd>
ffff8000001050a1:	48 8b 55 a8          	mov    -0x58(%rbp),%rdx
ffff8000001050a5:	48 8b 4a 08          	mov    0x8(%rdx),%rcx
ffff8000001050a9:	48 89 ca             	mov    %rcx,%rdx
ffff8000001050ac:	48 8d 71 08          	lea    0x8(%rcx),%rsi
ffff8000001050b0:	48 8b 4d a8          	mov    -0x58(%rbp),%rcx
ffff8000001050b4:	48 89 71 08          	mov    %rsi,0x8(%rcx)
ffff8000001050b8:	8b 12                	mov    (%rdx),%edx
ffff8000001050ba:	88 10                	mov    %dl,(%rax)
ffff8000001050bc:	eb 0f                	jmp    ffff8000001050cd <vsprintf+0x312>
ffff8000001050be:	48 8b 45 f8          	mov    -0x8(%rbp),%rax
ffff8000001050c2:	48 8d 50 01          	lea    0x1(%rax),%rdx
ffff8000001050c6:	48 89 55 f8          	mov    %rdx,-0x8(%rbp)
ffff8000001050ca:	c6 00 20             	movb   $0x20,(%rax)
ffff8000001050cd:	83 6d e8 01          	subl   $0x1,-0x18(%rbp)
ffff8000001050d1:	83 7d e8 00          	cmpl   $0x0,-0x18(%rbp)
ffff8000001050d5:	7f e7                	jg     ffff8000001050be <vsprintf+0x303>
ffff8000001050d7:	e9 c2 05 00 00       	jmpq   ffff80000010569e <vsprintf+0x8e3>
ffff8000001050dc:	48 8b 45 a8          	mov    -0x58(%rbp),%rax
ffff8000001050e0:	8b 00                	mov    (%rax),%eax
ffff8000001050e2:	83 f8 30             	cmp    $0x30,%eax
ffff8000001050e5:	73 24                	jae    ffff80000010510b <vsprintf+0x350>
ffff8000001050e7:	48 8b 45 a8          	mov    -0x58(%rbp),%rax
ffff8000001050eb:	48 8b 50 10          	mov    0x10(%rax),%rdx
ffff8000001050ef:	48 8b 45 a8          	mov    -0x58(%rbp),%rax
ffff8000001050f3:	8b 00                	mov    (%rax),%eax
ffff8000001050f5:	89 c0                	mov    %eax,%eax
ffff8000001050f7:	48 01 d0             	add    %rdx,%rax
ffff8000001050fa:	48 8b 55 a8          	mov    -0x58(%rbp),%rdx
ffff8000001050fe:	8b 12                	mov    (%rdx),%edx
ffff800000105100:	8d 4a 08             	lea    0x8(%rdx),%ecx
ffff800000105103:	48 8b 55 a8          	mov    -0x58(%rbp),%rdx
ffff800000105107:	89 0a                	mov    %ecx,(%rdx)
ffff800000105109:	eb 17                	jmp    ffff800000105122 <vsprintf+0x367>
ffff80000010510b:	48 8b 45 a8          	mov    -0x58(%rbp),%rax
ffff80000010510f:	48 8b 50 08          	mov    0x8(%rax),%rdx
ffff800000105113:	48 89 d0             	mov    %rdx,%rax
ffff800000105116:	48 8d 4a 08          	lea    0x8(%rdx),%rcx
ffff80000010511a:	48 8b 55 a8          	mov    -0x58(%rbp),%rdx
ffff80000010511e:	48 89 4a 08          	mov    %rcx,0x8(%rdx)
ffff800000105122:	48 8b 00             	mov    (%rax),%rax
ffff800000105125:	48 89 45 f0          	mov    %rax,-0x10(%rbp)
ffff800000105129:	48 83 7d f0 00       	cmpq   $0x0,-0x10(%rbp)
ffff80000010512e:	75 08                	jne    ffff800000105138 <vsprintf+0x37d>
ffff800000105130:	48 c7 45 f0 00 00 00 	movq   $0x0,-0x10(%rbp)
ffff800000105137:	00 
ffff800000105138:	48 8b 45 f0          	mov    -0x10(%rbp),%rax
ffff80000010513c:	48 89 c7             	mov    %rax,%rdi
ffff80000010513f:	48 b8 73 47 10 00 00 	movabs $0xffff800000104773,%rax
ffff800000105146:	80 ff ff 
ffff800000105149:	ff d0                	callq  *%rax
ffff80000010514b:	89 45 e0             	mov    %eax,-0x20(%rbp)
ffff80000010514e:	83 7d e4 00          	cmpl   $0x0,-0x1c(%rbp)
ffff800000105152:	79 08                	jns    ffff80000010515c <vsprintf+0x3a1>
ffff800000105154:	8b 45 e0             	mov    -0x20(%rbp),%eax
ffff800000105157:	89 45 e4             	mov    %eax,-0x1c(%rbp)
ffff80000010515a:	eb 0e                	jmp    ffff80000010516a <vsprintf+0x3af>
ffff80000010515c:	8b 45 e0             	mov    -0x20(%rbp),%eax
ffff80000010515f:	3b 45 e4             	cmp    -0x1c(%rbp),%eax
ffff800000105162:	7e 06                	jle    ffff80000010516a <vsprintf+0x3af>
ffff800000105164:	8b 45 e4             	mov    -0x1c(%rbp),%eax
ffff800000105167:	89 45 e0             	mov    %eax,-0x20(%rbp)
ffff80000010516a:	8b 45 ec             	mov    -0x14(%rbp),%eax
ffff80000010516d:	83 e0 10             	and    $0x10,%eax
ffff800000105170:	85 c0                	test   %eax,%eax
ffff800000105172:	75 1f                	jne    ffff800000105193 <vsprintf+0x3d8>
ffff800000105174:	eb 0f                	jmp    ffff800000105185 <vsprintf+0x3ca>
ffff800000105176:	48 8b 45 f8          	mov    -0x8(%rbp),%rax
ffff80000010517a:	48 8d 50 01          	lea    0x1(%rax),%rdx
ffff80000010517e:	48 89 55 f8          	mov    %rdx,-0x8(%rbp)
ffff800000105182:	c6 00 20             	movb   $0x20,(%rax)
ffff800000105185:	8b 45 e8             	mov    -0x18(%rbp),%eax
ffff800000105188:	8d 50 ff             	lea    -0x1(%rax),%edx
ffff80000010518b:	89 55 e8             	mov    %edx,-0x18(%rbp)
ffff80000010518e:	3b 45 e0             	cmp    -0x20(%rbp),%eax
ffff800000105191:	7f e3                	jg     ffff800000105176 <vsprintf+0x3bb>
ffff800000105193:	c7 45 dc 00 00 00 00 	movl   $0x0,-0x24(%rbp)
ffff80000010519a:	eb 21                	jmp    ffff8000001051bd <vsprintf+0x402>
ffff80000010519c:	48 8b 45 f8          	mov    -0x8(%rbp),%rax
ffff8000001051a0:	48 8d 50 01          	lea    0x1(%rax),%rdx
ffff8000001051a4:	48 89 55 f8          	mov    %rdx,-0x8(%rbp)
ffff8000001051a8:	48 8b 55 f0          	mov    -0x10(%rbp),%rdx
ffff8000001051ac:	48 8d 4a 01          	lea    0x1(%rdx),%rcx
ffff8000001051b0:	48 89 4d f0          	mov    %rcx,-0x10(%rbp)
ffff8000001051b4:	0f b6 12             	movzbl (%rdx),%edx
ffff8000001051b7:	88 10                	mov    %dl,(%rax)
ffff8000001051b9:	83 45 dc 01          	addl   $0x1,-0x24(%rbp)
ffff8000001051bd:	8b 45 dc             	mov    -0x24(%rbp),%eax
ffff8000001051c0:	3b 45 e0             	cmp    -0x20(%rbp),%eax
ffff8000001051c3:	7c d7                	jl     ffff80000010519c <vsprintf+0x3e1>
ffff8000001051c5:	eb 0f                	jmp    ffff8000001051d6 <vsprintf+0x41b>
ffff8000001051c7:	48 8b 45 f8          	mov    -0x8(%rbp),%rax
ffff8000001051cb:	48 8d 50 01          	lea    0x1(%rax),%rdx
ffff8000001051cf:	48 89 55 f8          	mov    %rdx,-0x8(%rbp)
ffff8000001051d3:	c6 00 20             	movb   $0x20,(%rax)
ffff8000001051d6:	8b 45 e8             	mov    -0x18(%rbp),%eax
ffff8000001051d9:	8d 50 ff             	lea    -0x1(%rax),%edx
ffff8000001051dc:	89 55 e8             	mov    %edx,-0x18(%rbp)
ffff8000001051df:	3b 45 e0             	cmp    -0x20(%rbp),%eax
ffff8000001051e2:	7f e3                	jg     ffff8000001051c7 <vsprintf+0x40c>
ffff8000001051e4:	e9 b5 04 00 00       	jmpq   ffff80000010569e <vsprintf+0x8e3>
ffff8000001051e9:	83 7d d8 6c          	cmpl   $0x6c,-0x28(%rbp)
ffff8000001051ed:	75 7e                	jne    ffff80000010526d <vsprintf+0x4b2>
ffff8000001051ef:	48 8b 45 a8          	mov    -0x58(%rbp),%rax
ffff8000001051f3:	8b 00                	mov    (%rax),%eax
ffff8000001051f5:	83 f8 30             	cmp    $0x30,%eax
ffff8000001051f8:	73 24                	jae    ffff80000010521e <vsprintf+0x463>
ffff8000001051fa:	48 8b 45 a8          	mov    -0x58(%rbp),%rax
ffff8000001051fe:	48 8b 50 10          	mov    0x10(%rax),%rdx
ffff800000105202:	48 8b 45 a8          	mov    -0x58(%rbp),%rax
ffff800000105206:	8b 00                	mov    (%rax),%eax
ffff800000105208:	89 c0                	mov    %eax,%eax
ffff80000010520a:	48 01 d0             	add    %rdx,%rax
ffff80000010520d:	48 8b 55 a8          	mov    -0x58(%rbp),%rdx
ffff800000105211:	8b 12                	mov    (%rdx),%edx
ffff800000105213:	8d 4a 08             	lea    0x8(%rdx),%ecx
ffff800000105216:	48 8b 55 a8          	mov    -0x58(%rbp),%rdx
ffff80000010521a:	89 0a                	mov    %ecx,(%rdx)
ffff80000010521c:	eb 17                	jmp    ffff800000105235 <vsprintf+0x47a>
ffff80000010521e:	48 8b 45 a8          	mov    -0x58(%rbp),%rax
ffff800000105222:	48 8b 50 08          	mov    0x8(%rax),%rdx
ffff800000105226:	48 89 d0             	mov    %rdx,%rax
ffff800000105229:	48 8d 4a 08          	lea    0x8(%rdx),%rcx
ffff80000010522d:	48 8b 55 a8          	mov    -0x58(%rbp),%rdx
ffff800000105231:	48 89 4a 08          	mov    %rcx,0x8(%rdx)
ffff800000105235:	48 8b 00             	mov    (%rax),%rax
ffff800000105238:	48 89 c6             	mov    %rax,%rsi
ffff80000010523b:	8b 7d ec             	mov    -0x14(%rbp),%edi
ffff80000010523e:	8b 4d e4             	mov    -0x1c(%rbp),%ecx
ffff800000105241:	8b 55 e8             	mov    -0x18(%rbp),%edx
ffff800000105244:	48 8b 45 f8          	mov    -0x8(%rbp),%rax
ffff800000105248:	41 89 f9             	mov    %edi,%r9d
ffff80000010524b:	41 89 c8             	mov    %ecx,%r8d
ffff80000010524e:	89 d1                	mov    %edx,%ecx
ffff800000105250:	ba 08 00 00 00       	mov    $0x8,%edx
ffff800000105255:	48 89 c7             	mov    %rax,%rdi
ffff800000105258:	48 b8 36 4b 10 00 00 	movabs $0xffff800000104b36,%rax
ffff80000010525f:	80 ff ff 
ffff800000105262:	ff d0                	callq  *%rax
ffff800000105264:	48 89 45 f8          	mov    %rax,-0x8(%rbp)
ffff800000105268:	e9 31 04 00 00       	jmpq   ffff80000010569e <vsprintf+0x8e3>
ffff80000010526d:	48 8b 45 a8          	mov    -0x58(%rbp),%rax
ffff800000105271:	8b 00                	mov    (%rax),%eax
ffff800000105273:	83 f8 30             	cmp    $0x30,%eax
ffff800000105276:	73 24                	jae    ffff80000010529c <vsprintf+0x4e1>
ffff800000105278:	48 8b 45 a8          	mov    -0x58(%rbp),%rax
ffff80000010527c:	48 8b 50 10          	mov    0x10(%rax),%rdx
ffff800000105280:	48 8b 45 a8          	mov    -0x58(%rbp),%rax
ffff800000105284:	8b 00                	mov    (%rax),%eax
ffff800000105286:	89 c0                	mov    %eax,%eax
ffff800000105288:	48 01 d0             	add    %rdx,%rax
ffff80000010528b:	48 8b 55 a8          	mov    -0x58(%rbp),%rdx
ffff80000010528f:	8b 12                	mov    (%rdx),%edx
ffff800000105291:	8d 4a 08             	lea    0x8(%rdx),%ecx
ffff800000105294:	48 8b 55 a8          	mov    -0x58(%rbp),%rdx
ffff800000105298:	89 0a                	mov    %ecx,(%rdx)
ffff80000010529a:	eb 17                	jmp    ffff8000001052b3 <vsprintf+0x4f8>
ffff80000010529c:	48 8b 45 a8          	mov    -0x58(%rbp),%rax
ffff8000001052a0:	48 8b 50 08          	mov    0x8(%rax),%rdx
ffff8000001052a4:	48 89 d0             	mov    %rdx,%rax
ffff8000001052a7:	48 8d 4a 08          	lea    0x8(%rdx),%rcx
ffff8000001052ab:	48 8b 55 a8          	mov    -0x58(%rbp),%rdx
ffff8000001052af:	48 89 4a 08          	mov    %rcx,0x8(%rdx)
ffff8000001052b3:	8b 00                	mov    (%rax),%eax
ffff8000001052b5:	89 c6                	mov    %eax,%esi
ffff8000001052b7:	8b 7d ec             	mov    -0x14(%rbp),%edi
ffff8000001052ba:	8b 4d e4             	mov    -0x1c(%rbp),%ecx
ffff8000001052bd:	8b 55 e8             	mov    -0x18(%rbp),%edx
ffff8000001052c0:	48 8b 45 f8          	mov    -0x8(%rbp),%rax
ffff8000001052c4:	41 89 f9             	mov    %edi,%r9d
ffff8000001052c7:	41 89 c8             	mov    %ecx,%r8d
ffff8000001052ca:	89 d1                	mov    %edx,%ecx
ffff8000001052cc:	ba 08 00 00 00       	mov    $0x8,%edx
ffff8000001052d1:	48 89 c7             	mov    %rax,%rdi
ffff8000001052d4:	48 b8 36 4b 10 00 00 	movabs $0xffff800000104b36,%rax
ffff8000001052db:	80 ff ff 
ffff8000001052de:	ff d0                	callq  *%rax
ffff8000001052e0:	48 89 45 f8          	mov    %rax,-0x8(%rbp)
ffff8000001052e4:	e9 b5 03 00 00       	jmpq   ffff80000010569e <vsprintf+0x8e3>
ffff8000001052e9:	83 7d e8 ff          	cmpl   $0xffffffff,-0x18(%rbp)
ffff8000001052ed:	75 0b                	jne    ffff8000001052fa <vsprintf+0x53f>
ffff8000001052ef:	c7 45 e8 10 00 00 00 	movl   $0x10,-0x18(%rbp)
ffff8000001052f6:	83 4d ec 01          	orl    $0x1,-0x14(%rbp)
ffff8000001052fa:	48 8b 45 a8          	mov    -0x58(%rbp),%rax
ffff8000001052fe:	8b 00                	mov    (%rax),%eax
ffff800000105300:	83 f8 30             	cmp    $0x30,%eax
ffff800000105303:	73 24                	jae    ffff800000105329 <vsprintf+0x56e>
ffff800000105305:	48 8b 45 a8          	mov    -0x58(%rbp),%rax
ffff800000105309:	48 8b 50 10          	mov    0x10(%rax),%rdx
ffff80000010530d:	48 8b 45 a8          	mov    -0x58(%rbp),%rax
ffff800000105311:	8b 00                	mov    (%rax),%eax
ffff800000105313:	89 c0                	mov    %eax,%eax
ffff800000105315:	48 01 d0             	add    %rdx,%rax
ffff800000105318:	48 8b 55 a8          	mov    -0x58(%rbp),%rdx
ffff80000010531c:	8b 12                	mov    (%rdx),%edx
ffff80000010531e:	8d 4a 08             	lea    0x8(%rdx),%ecx
ffff800000105321:	48 8b 55 a8          	mov    -0x58(%rbp),%rdx
ffff800000105325:	89 0a                	mov    %ecx,(%rdx)
ffff800000105327:	eb 17                	jmp    ffff800000105340 <vsprintf+0x585>
ffff800000105329:	48 8b 45 a8          	mov    -0x58(%rbp),%rax
ffff80000010532d:	48 8b 50 08          	mov    0x8(%rax),%rdx
ffff800000105331:	48 89 d0             	mov    %rdx,%rax
ffff800000105334:	48 8d 4a 08          	lea    0x8(%rdx),%rcx
ffff800000105338:	48 8b 55 a8          	mov    -0x58(%rbp),%rdx
ffff80000010533c:	48 89 4a 08          	mov    %rcx,0x8(%rdx)
ffff800000105340:	48 8b 00             	mov    (%rax),%rax
ffff800000105343:	48 89 c6             	mov    %rax,%rsi
ffff800000105346:	8b 7d ec             	mov    -0x14(%rbp),%edi
ffff800000105349:	8b 4d e4             	mov    -0x1c(%rbp),%ecx
ffff80000010534c:	8b 55 e8             	mov    -0x18(%rbp),%edx
ffff80000010534f:	48 8b 45 f8          	mov    -0x8(%rbp),%rax
ffff800000105353:	41 89 f9             	mov    %edi,%r9d
ffff800000105356:	41 89 c8             	mov    %ecx,%r8d
ffff800000105359:	89 d1                	mov    %edx,%ecx
ffff80000010535b:	ba 10 00 00 00       	mov    $0x10,%edx
ffff800000105360:	48 89 c7             	mov    %rax,%rdi
ffff800000105363:	48 b8 36 4b 10 00 00 	movabs $0xffff800000104b36,%rax
ffff80000010536a:	80 ff ff 
ffff80000010536d:	ff d0                	callq  *%rax
ffff80000010536f:	48 89 45 f8          	mov    %rax,-0x8(%rbp)
ffff800000105373:	e9 26 03 00 00       	jmpq   ffff80000010569e <vsprintf+0x8e3>
ffff800000105378:	83 4d ec 40          	orl    $0x40,-0x14(%rbp)
ffff80000010537c:	83 7d d8 6c          	cmpl   $0x6c,-0x28(%rbp)
ffff800000105380:	75 7e                	jne    ffff800000105400 <vsprintf+0x645>
ffff800000105382:	48 8b 45 a8          	mov    -0x58(%rbp),%rax
ffff800000105386:	8b 00                	mov    (%rax),%eax
ffff800000105388:	83 f8 30             	cmp    $0x30,%eax
ffff80000010538b:	73 24                	jae    ffff8000001053b1 <vsprintf+0x5f6>
ffff80000010538d:	48 8b 45 a8          	mov    -0x58(%rbp),%rax
ffff800000105391:	48 8b 50 10          	mov    0x10(%rax),%rdx
ffff800000105395:	48 8b 45 a8          	mov    -0x58(%rbp),%rax
ffff800000105399:	8b 00                	mov    (%rax),%eax
ffff80000010539b:	89 c0                	mov    %eax,%eax
ffff80000010539d:	48 01 d0             	add    %rdx,%rax
ffff8000001053a0:	48 8b 55 a8          	mov    -0x58(%rbp),%rdx
ffff8000001053a4:	8b 12                	mov    (%rdx),%edx
ffff8000001053a6:	8d 4a 08             	lea    0x8(%rdx),%ecx
ffff8000001053a9:	48 8b 55 a8          	mov    -0x58(%rbp),%rdx
ffff8000001053ad:	89 0a                	mov    %ecx,(%rdx)
ffff8000001053af:	eb 17                	jmp    ffff8000001053c8 <vsprintf+0x60d>
ffff8000001053b1:	48 8b 45 a8          	mov    -0x58(%rbp),%rax
ffff8000001053b5:	48 8b 50 08          	mov    0x8(%rax),%rdx
ffff8000001053b9:	48 89 d0             	mov    %rdx,%rax
ffff8000001053bc:	48 8d 4a 08          	lea    0x8(%rdx),%rcx
ffff8000001053c0:	48 8b 55 a8          	mov    -0x58(%rbp),%rdx
ffff8000001053c4:	48 89 4a 08          	mov    %rcx,0x8(%rdx)
ffff8000001053c8:	48 8b 00             	mov    (%rax),%rax
ffff8000001053cb:	48 89 c6             	mov    %rax,%rsi
ffff8000001053ce:	8b 7d ec             	mov    -0x14(%rbp),%edi
ffff8000001053d1:	8b 4d e4             	mov    -0x1c(%rbp),%ecx
ffff8000001053d4:	8b 55 e8             	mov    -0x18(%rbp),%edx
ffff8000001053d7:	48 8b 45 f8          	mov    -0x8(%rbp),%rax
ffff8000001053db:	41 89 f9             	mov    %edi,%r9d
ffff8000001053de:	41 89 c8             	mov    %ecx,%r8d
ffff8000001053e1:	89 d1                	mov    %edx,%ecx
ffff8000001053e3:	ba 10 00 00 00       	mov    $0x10,%edx
ffff8000001053e8:	48 89 c7             	mov    %rax,%rdi
ffff8000001053eb:	48 b8 36 4b 10 00 00 	movabs $0xffff800000104b36,%rax
ffff8000001053f2:	80 ff ff 
ffff8000001053f5:	ff d0                	callq  *%rax
ffff8000001053f7:	48 89 45 f8          	mov    %rax,-0x8(%rbp)
ffff8000001053fb:	e9 9e 02 00 00       	jmpq   ffff80000010569e <vsprintf+0x8e3>
ffff800000105400:	48 8b 45 a8          	mov    -0x58(%rbp),%rax
ffff800000105404:	8b 00                	mov    (%rax),%eax
ffff800000105406:	83 f8 30             	cmp    $0x30,%eax
ffff800000105409:	73 24                	jae    ffff80000010542f <vsprintf+0x674>
ffff80000010540b:	48 8b 45 a8          	mov    -0x58(%rbp),%rax
ffff80000010540f:	48 8b 50 10          	mov    0x10(%rax),%rdx
ffff800000105413:	48 8b 45 a8          	mov    -0x58(%rbp),%rax
ffff800000105417:	8b 00                	mov    (%rax),%eax
ffff800000105419:	89 c0                	mov    %eax,%eax
ffff80000010541b:	48 01 d0             	add    %rdx,%rax
ffff80000010541e:	48 8b 55 a8          	mov    -0x58(%rbp),%rdx
ffff800000105422:	8b 12                	mov    (%rdx),%edx
ffff800000105424:	8d 4a 08             	lea    0x8(%rdx),%ecx
ffff800000105427:	48 8b 55 a8          	mov    -0x58(%rbp),%rdx
ffff80000010542b:	89 0a                	mov    %ecx,(%rdx)
ffff80000010542d:	eb 17                	jmp    ffff800000105446 <vsprintf+0x68b>
ffff80000010542f:	48 8b 45 a8          	mov    -0x58(%rbp),%rax
ffff800000105433:	48 8b 50 08          	mov    0x8(%rax),%rdx
ffff800000105437:	48 89 d0             	mov    %rdx,%rax
ffff80000010543a:	48 8d 4a 08          	lea    0x8(%rdx),%rcx
ffff80000010543e:	48 8b 55 a8          	mov    -0x58(%rbp),%rdx
ffff800000105442:	48 89 4a 08          	mov    %rcx,0x8(%rdx)
ffff800000105446:	8b 00                	mov    (%rax),%eax
ffff800000105448:	89 c6                	mov    %eax,%esi
ffff80000010544a:	8b 7d ec             	mov    -0x14(%rbp),%edi
ffff80000010544d:	8b 4d e4             	mov    -0x1c(%rbp),%ecx
ffff800000105450:	8b 55 e8             	mov    -0x18(%rbp),%edx
ffff800000105453:	48 8b 45 f8          	mov    -0x8(%rbp),%rax
ffff800000105457:	41 89 f9             	mov    %edi,%r9d
ffff80000010545a:	41 89 c8             	mov    %ecx,%r8d
ffff80000010545d:	89 d1                	mov    %edx,%ecx
ffff80000010545f:	ba 10 00 00 00       	mov    $0x10,%edx
ffff800000105464:	48 89 c7             	mov    %rax,%rdi
ffff800000105467:	48 b8 36 4b 10 00 00 	movabs $0xffff800000104b36,%rax
ffff80000010546e:	80 ff ff 
ffff800000105471:	ff d0                	callq  *%rax
ffff800000105473:	48 89 45 f8          	mov    %rax,-0x8(%rbp)
ffff800000105477:	e9 22 02 00 00       	jmpq   ffff80000010569e <vsprintf+0x8e3>
ffff80000010547c:	83 4d ec 02          	orl    $0x2,-0x14(%rbp)
ffff800000105480:	83 7d d8 6c          	cmpl   $0x6c,-0x28(%rbp)
ffff800000105484:	75 7e                	jne    ffff800000105504 <vsprintf+0x749>
ffff800000105486:	48 8b 45 a8          	mov    -0x58(%rbp),%rax
ffff80000010548a:	8b 00                	mov    (%rax),%eax
ffff80000010548c:	83 f8 30             	cmp    $0x30,%eax
ffff80000010548f:	73 24                	jae    ffff8000001054b5 <vsprintf+0x6fa>
ffff800000105491:	48 8b 45 a8          	mov    -0x58(%rbp),%rax
ffff800000105495:	48 8b 50 10          	mov    0x10(%rax),%rdx
ffff800000105499:	48 8b 45 a8          	mov    -0x58(%rbp),%rax
ffff80000010549d:	8b 00                	mov    (%rax),%eax
ffff80000010549f:	89 c0                	mov    %eax,%eax
ffff8000001054a1:	48 01 d0             	add    %rdx,%rax
ffff8000001054a4:	48 8b 55 a8          	mov    -0x58(%rbp),%rdx
ffff8000001054a8:	8b 12                	mov    (%rdx),%edx
ffff8000001054aa:	8d 4a 08             	lea    0x8(%rdx),%ecx
ffff8000001054ad:	48 8b 55 a8          	mov    -0x58(%rbp),%rdx
ffff8000001054b1:	89 0a                	mov    %ecx,(%rdx)
ffff8000001054b3:	eb 17                	jmp    ffff8000001054cc <vsprintf+0x711>
ffff8000001054b5:	48 8b 45 a8          	mov    -0x58(%rbp),%rax
ffff8000001054b9:	48 8b 50 08          	mov    0x8(%rax),%rdx
ffff8000001054bd:	48 89 d0             	mov    %rdx,%rax
ffff8000001054c0:	48 8d 4a 08          	lea    0x8(%rdx),%rcx
ffff8000001054c4:	48 8b 55 a8          	mov    -0x58(%rbp),%rdx
ffff8000001054c8:	48 89 4a 08          	mov    %rcx,0x8(%rdx)
ffff8000001054cc:	48 8b 00             	mov    (%rax),%rax
ffff8000001054cf:	48 89 c6             	mov    %rax,%rsi
ffff8000001054d2:	8b 7d ec             	mov    -0x14(%rbp),%edi
ffff8000001054d5:	8b 4d e4             	mov    -0x1c(%rbp),%ecx
ffff8000001054d8:	8b 55 e8             	mov    -0x18(%rbp),%edx
ffff8000001054db:	48 8b 45 f8          	mov    -0x8(%rbp),%rax
ffff8000001054df:	41 89 f9             	mov    %edi,%r9d
ffff8000001054e2:	41 89 c8             	mov    %ecx,%r8d
ffff8000001054e5:	89 d1                	mov    %edx,%ecx
ffff8000001054e7:	ba 0a 00 00 00       	mov    $0xa,%edx
ffff8000001054ec:	48 89 c7             	mov    %rax,%rdi
ffff8000001054ef:	48 b8 36 4b 10 00 00 	movabs $0xffff800000104b36,%rax
ffff8000001054f6:	80 ff ff 
ffff8000001054f9:	ff d0                	callq  *%rax
ffff8000001054fb:	48 89 45 f8          	mov    %rax,-0x8(%rbp)
ffff8000001054ff:	e9 9a 01 00 00       	jmpq   ffff80000010569e <vsprintf+0x8e3>
ffff800000105504:	48 8b 45 a8          	mov    -0x58(%rbp),%rax
ffff800000105508:	8b 00                	mov    (%rax),%eax
ffff80000010550a:	83 f8 30             	cmp    $0x30,%eax
ffff80000010550d:	73 24                	jae    ffff800000105533 <vsprintf+0x778>
ffff80000010550f:	48 8b 45 a8          	mov    -0x58(%rbp),%rax
ffff800000105513:	48 8b 50 10          	mov    0x10(%rax),%rdx
ffff800000105517:	48 8b 45 a8          	mov    -0x58(%rbp),%rax
ffff80000010551b:	8b 00                	mov    (%rax),%eax
ffff80000010551d:	89 c0                	mov    %eax,%eax
ffff80000010551f:	48 01 d0             	add    %rdx,%rax
ffff800000105522:	48 8b 55 a8          	mov    -0x58(%rbp),%rdx
ffff800000105526:	8b 12                	mov    (%rdx),%edx
ffff800000105528:	8d 4a 08             	lea    0x8(%rdx),%ecx
ffff80000010552b:	48 8b 55 a8          	mov    -0x58(%rbp),%rdx
ffff80000010552f:	89 0a                	mov    %ecx,(%rdx)
ffff800000105531:	eb 17                	jmp    ffff80000010554a <vsprintf+0x78f>
ffff800000105533:	48 8b 45 a8          	mov    -0x58(%rbp),%rax
ffff800000105537:	48 8b 50 08          	mov    0x8(%rax),%rdx
ffff80000010553b:	48 89 d0             	mov    %rdx,%rax
ffff80000010553e:	48 8d 4a 08          	lea    0x8(%rdx),%rcx
ffff800000105542:	48 8b 55 a8          	mov    -0x58(%rbp),%rdx
ffff800000105546:	48 89 4a 08          	mov    %rcx,0x8(%rdx)
ffff80000010554a:	8b 00                	mov    (%rax),%eax
ffff80000010554c:	89 c6                	mov    %eax,%esi
ffff80000010554e:	8b 7d ec             	mov    -0x14(%rbp),%edi
ffff800000105551:	8b 4d e4             	mov    -0x1c(%rbp),%ecx
ffff800000105554:	8b 55 e8             	mov    -0x18(%rbp),%edx
ffff800000105557:	48 8b 45 f8          	mov    -0x8(%rbp),%rax
ffff80000010555b:	41 89 f9             	mov    %edi,%r9d
ffff80000010555e:	41 89 c8             	mov    %ecx,%r8d
ffff800000105561:	89 d1                	mov    %edx,%ecx
ffff800000105563:	ba 0a 00 00 00       	mov    $0xa,%edx
ffff800000105568:	48 89 c7             	mov    %rax,%rdi
ffff80000010556b:	48 b8 36 4b 10 00 00 	movabs $0xffff800000104b36,%rax
ffff800000105572:	80 ff ff 
ffff800000105575:	ff d0                	callq  *%rax
ffff800000105577:	48 89 45 f8          	mov    %rax,-0x8(%rbp)
ffff80000010557b:	e9 1e 01 00 00       	jmpq   ffff80000010569e <vsprintf+0x8e3>
ffff800000105580:	83 7d d8 6c          	cmpl   $0x6c,-0x28(%rbp)
ffff800000105584:	75 64                	jne    ffff8000001055ea <vsprintf+0x82f>
ffff800000105586:	48 8b 45 a8          	mov    -0x58(%rbp),%rax
ffff80000010558a:	8b 00                	mov    (%rax),%eax
ffff80000010558c:	83 f8 30             	cmp    $0x30,%eax
ffff80000010558f:	73 24                	jae    ffff8000001055b5 <vsprintf+0x7fa>
ffff800000105591:	48 8b 45 a8          	mov    -0x58(%rbp),%rax
ffff800000105595:	48 8b 50 10          	mov    0x10(%rax),%rdx
ffff800000105599:	48 8b 45 a8          	mov    -0x58(%rbp),%rax
ffff80000010559d:	8b 00                	mov    (%rax),%eax
ffff80000010559f:	89 c0                	mov    %eax,%eax
ffff8000001055a1:	48 01 d0             	add    %rdx,%rax
ffff8000001055a4:	48 8b 55 a8          	mov    -0x58(%rbp),%rdx
ffff8000001055a8:	8b 12                	mov    (%rdx),%edx
ffff8000001055aa:	8d 4a 08             	lea    0x8(%rdx),%ecx
ffff8000001055ad:	48 8b 55 a8          	mov    -0x58(%rbp),%rdx
ffff8000001055b1:	89 0a                	mov    %ecx,(%rdx)
ffff8000001055b3:	eb 17                	jmp    ffff8000001055cc <vsprintf+0x811>
ffff8000001055b5:	48 8b 45 a8          	mov    -0x58(%rbp),%rax
ffff8000001055b9:	48 8b 50 08          	mov    0x8(%rax),%rdx
ffff8000001055bd:	48 89 d0             	mov    %rdx,%rax
ffff8000001055c0:	48 8d 4a 08          	lea    0x8(%rdx),%rcx
ffff8000001055c4:	48 8b 55 a8          	mov    -0x58(%rbp),%rdx
ffff8000001055c8:	48 89 4a 08          	mov    %rcx,0x8(%rdx)
ffff8000001055cc:	48 8b 00             	mov    (%rax),%rax
ffff8000001055cf:	48 89 45 d0          	mov    %rax,-0x30(%rbp)
ffff8000001055d3:	48 8b 55 f8          	mov    -0x8(%rbp),%rdx
ffff8000001055d7:	48 8b 45 b8          	mov    -0x48(%rbp),%rax
ffff8000001055db:	48 29 c2             	sub    %rax,%rdx
ffff8000001055de:	48 8b 45 d0          	mov    -0x30(%rbp),%rax
ffff8000001055e2:	48 89 10             	mov    %rdx,(%rax)
ffff8000001055e5:	e9 b4 00 00 00       	jmpq   ffff80000010569e <vsprintf+0x8e3>
ffff8000001055ea:	48 8b 45 a8          	mov    -0x58(%rbp),%rax
ffff8000001055ee:	8b 00                	mov    (%rax),%eax
ffff8000001055f0:	83 f8 30             	cmp    $0x30,%eax
ffff8000001055f3:	73 24                	jae    ffff800000105619 <vsprintf+0x85e>
ffff8000001055f5:	48 8b 45 a8          	mov    -0x58(%rbp),%rax
ffff8000001055f9:	48 8b 50 10          	mov    0x10(%rax),%rdx
ffff8000001055fd:	48 8b 45 a8          	mov    -0x58(%rbp),%rax
ffff800000105601:	8b 00                	mov    (%rax),%eax
ffff800000105603:	89 c0                	mov    %eax,%eax
ffff800000105605:	48 01 d0             	add    %rdx,%rax
ffff800000105608:	48 8b 55 a8          	mov    -0x58(%rbp),%rdx
ffff80000010560c:	8b 12                	mov    (%rdx),%edx
ffff80000010560e:	8d 4a 08             	lea    0x8(%rdx),%ecx
ffff800000105611:	48 8b 55 a8          	mov    -0x58(%rbp),%rdx
ffff800000105615:	89 0a                	mov    %ecx,(%rdx)
ffff800000105617:	eb 17                	jmp    ffff800000105630 <vsprintf+0x875>
ffff800000105619:	48 8b 45 a8          	mov    -0x58(%rbp),%rax
ffff80000010561d:	48 8b 50 08          	mov    0x8(%rax),%rdx
ffff800000105621:	48 89 d0             	mov    %rdx,%rax
ffff800000105624:	48 8d 4a 08          	lea    0x8(%rdx),%rcx
ffff800000105628:	48 8b 55 a8          	mov    -0x58(%rbp),%rdx
ffff80000010562c:	48 89 4a 08          	mov    %rcx,0x8(%rdx)
ffff800000105630:	48 8b 00             	mov    (%rax),%rax
ffff800000105633:	48 89 45 c8          	mov    %rax,-0x38(%rbp)
ffff800000105637:	48 8b 55 f8          	mov    -0x8(%rbp),%rdx
ffff80000010563b:	48 8b 45 b8          	mov    -0x48(%rbp),%rax
ffff80000010563f:	48 29 c2             	sub    %rax,%rdx
ffff800000105642:	48 89 d0             	mov    %rdx,%rax
ffff800000105645:	89 c2                	mov    %eax,%edx
ffff800000105647:	48 8b 45 c8          	mov    -0x38(%rbp),%rax
ffff80000010564b:	89 10                	mov    %edx,(%rax)
ffff80000010564d:	eb 4f                	jmp    ffff80000010569e <vsprintf+0x8e3>
ffff80000010564f:	48 8b 45 f8          	mov    -0x8(%rbp),%rax
ffff800000105653:	48 8d 50 01          	lea    0x1(%rax),%rdx
ffff800000105657:	48 89 55 f8          	mov    %rdx,-0x8(%rbp)
ffff80000010565b:	c6 00 25             	movb   $0x25,(%rax)
ffff80000010565e:	eb 3e                	jmp    ffff80000010569e <vsprintf+0x8e3>
ffff800000105660:	48 8b 45 f8          	mov    -0x8(%rbp),%rax
ffff800000105664:	48 8d 50 01          	lea    0x1(%rax),%rdx
ffff800000105668:	48 89 55 f8          	mov    %rdx,-0x8(%rbp)
ffff80000010566c:	c6 00 25             	movb   $0x25,(%rax)
ffff80000010566f:	48 8b 45 b0          	mov    -0x50(%rbp),%rax
ffff800000105673:	0f b6 00             	movzbl (%rax),%eax
ffff800000105676:	84 c0                	test   %al,%al
ffff800000105678:	74 17                	je     ffff800000105691 <vsprintf+0x8d6>
ffff80000010567a:	48 8b 45 f8          	mov    -0x8(%rbp),%rax
ffff80000010567e:	48 8d 50 01          	lea    0x1(%rax),%rdx
ffff800000105682:	48 89 55 f8          	mov    %rdx,-0x8(%rbp)
ffff800000105686:	48 8b 55 b0          	mov    -0x50(%rbp),%rdx
ffff80000010568a:	0f b6 12             	movzbl (%rdx),%edx
ffff80000010568d:	88 10                	mov    %dl,(%rax)
ffff80000010568f:	eb 0c                	jmp    ffff80000010569d <vsprintf+0x8e2>
ffff800000105691:	48 8b 45 b0          	mov    -0x50(%rbp),%rax
ffff800000105695:	48 83 e8 01          	sub    $0x1,%rax
ffff800000105699:	48 89 45 b0          	mov    %rax,-0x50(%rbp)
ffff80000010569d:	90                   	nop
ffff80000010569e:	48 8b 45 b0          	mov    -0x50(%rbp),%rax
ffff8000001056a2:	48 83 c0 01          	add    $0x1,%rax
ffff8000001056a6:	48 89 45 b0          	mov    %rax,-0x50(%rbp)
ffff8000001056aa:	48 8b 45 b0          	mov    -0x50(%rbp),%rax
ffff8000001056ae:	0f b6 00             	movzbl (%rax),%eax
ffff8000001056b1:	84 c0                	test   %al,%al
ffff8000001056b3:	0f 85 23 f7 ff ff    	jne    ffff800000104ddc <vsprintf+0x21>
ffff8000001056b9:	48 8b 45 f8          	mov    -0x8(%rbp),%rax
ffff8000001056bd:	c6 00 00             	movb   $0x0,(%rax)
ffff8000001056c0:	48 8b 55 f8          	mov    -0x8(%rbp),%rdx
ffff8000001056c4:	48 8b 45 b8          	mov    -0x48(%rbp),%rax
ffff8000001056c8:	48 29 c2             	sub    %rax,%rdx
ffff8000001056cb:	48 89 d0             	mov    %rdx,%rax
ffff8000001056ce:	c9                   	leaveq 
ffff8000001056cf:	c3                   	retq   

ffff8000001056d0 <color_printk>:
ffff8000001056d0:	55                   	push   %rbp
ffff8000001056d1:	48 89 e5             	mov    %rsp,%rbp
ffff8000001056d4:	53                   	push   %rbx
ffff8000001056d5:	48 81 ec 00 01 00 00 	sub    $0x100,%rsp
ffff8000001056dc:	89 bd 0c ff ff ff    	mov    %edi,-0xf4(%rbp)
ffff8000001056e2:	89 b5 08 ff ff ff    	mov    %esi,-0xf8(%rbp)
ffff8000001056e8:	48 89 8d 58 ff ff ff 	mov    %rcx,-0xa8(%rbp)
ffff8000001056ef:	4c 89 85 60 ff ff ff 	mov    %r8,-0xa0(%rbp)
ffff8000001056f6:	4c 89 8d 68 ff ff ff 	mov    %r9,-0x98(%rbp)
ffff8000001056fd:	84 c0                	test   %al,%al
ffff8000001056ff:	74 23                	je     ffff800000105724 <color_printk+0x54>
ffff800000105701:	0f 29 85 70 ff ff ff 	movaps %xmm0,-0x90(%rbp)
ffff800000105708:	0f 29 4d 80          	movaps %xmm1,-0x80(%rbp)
ffff80000010570c:	0f 29 55 90          	movaps %xmm2,-0x70(%rbp)
ffff800000105710:	0f 29 5d a0          	movaps %xmm3,-0x60(%rbp)
ffff800000105714:	0f 29 65 b0          	movaps %xmm4,-0x50(%rbp)
ffff800000105718:	0f 29 6d c0          	movaps %xmm5,-0x40(%rbp)
ffff80000010571c:	0f 29 75 d0          	movaps %xmm6,-0x30(%rbp)
ffff800000105720:	0f 29 7d e0          	movaps %xmm7,-0x20(%rbp)
ffff800000105724:	48 89 95 00 ff ff ff 	mov    %rdx,-0x100(%rbp)
ffff80000010572b:	c7 85 34 ff ff ff 00 	movl   $0x0,-0xcc(%rbp)
ffff800000105732:	00 00 00 
ffff800000105735:	c7 85 3c ff ff ff 00 	movl   $0x0,-0xc4(%rbp)
ffff80000010573c:	00 00 00 
ffff80000010573f:	c7 85 38 ff ff ff 00 	movl   $0x0,-0xc8(%rbp)
ffff800000105746:	00 00 00 
ffff800000105749:	c7 85 18 ff ff ff 18 	movl   $0x18,-0xe8(%rbp)
ffff800000105750:	00 00 00 
ffff800000105753:	c7 85 1c ff ff ff 30 	movl   $0x30,-0xe4(%rbp)
ffff80000010575a:	00 00 00 
ffff80000010575d:	48 8d 45 10          	lea    0x10(%rbp),%rax
ffff800000105761:	48 89 85 20 ff ff ff 	mov    %rax,-0xe0(%rbp)
ffff800000105768:	48 8d 85 40 ff ff ff 	lea    -0xc0(%rbp),%rax
ffff80000010576f:	48 89 85 28 ff ff ff 	mov    %rax,-0xd8(%rbp)
ffff800000105776:	48 8d 95 18 ff ff ff 	lea    -0xe8(%rbp),%rdx
ffff80000010577d:	48 8b 85 00 ff ff ff 	mov    -0x100(%rbp),%rax
ffff800000105784:	48 89 c6             	mov    %rax,%rsi
ffff800000105787:	48 bf 00 00 13 00 00 	movabs $0xffff800000130000,%rdi
ffff80000010578e:	80 ff ff 
ffff800000105791:	48 b8 bb 4d 10 00 00 	movabs $0xffff800000104dbb,%rax
ffff800000105798:	80 ff ff 
ffff80000010579b:	ff d0                	callq  *%rax
ffff80000010579d:	89 85 34 ff ff ff    	mov    %eax,-0xcc(%rbp)
ffff8000001057a3:	c7 85 3c ff ff ff 00 	movl   $0x0,-0xc4(%rbp)
ffff8000001057aa:	00 00 00 
ffff8000001057ad:	e9 28 04 00 00       	jmpq   ffff800000105bda <color_printk+0x50a>
ffff8000001057b2:	83 bd 38 ff ff ff 00 	cmpl   $0x0,-0xc8(%rbp)
ffff8000001057b9:	7e 0c                	jle    ffff8000001057c7 <color_printk+0xf7>
ffff8000001057bb:	83 ad 3c ff ff ff 01 	subl   $0x1,-0xc4(%rbp)
ffff8000001057c2:	e9 1b 02 00 00       	jmpq   ffff8000001059e2 <color_printk+0x312>
ffff8000001057c7:	8b 85 3c ff ff ff    	mov    -0xc4(%rbp),%eax
ffff8000001057cd:	48 63 d0             	movslq %eax,%rdx
ffff8000001057d0:	48 b8 00 00 13 00 00 	movabs $0xffff800000130000,%rax
ffff8000001057d7:	80 ff ff 
ffff8000001057da:	48 01 d0             	add    %rdx,%rax
ffff8000001057dd:	0f b6 00             	movzbl (%rax),%eax
ffff8000001057e0:	3c 0a                	cmp    $0xa,%al
ffff8000001057e2:	75 33                	jne    ffff800000105817 <color_printk+0x147>
ffff8000001057e4:	48 b8 40 a4 13 00 00 	movabs $0xffff80000013a440,%rax
ffff8000001057eb:	80 ff ff 
ffff8000001057ee:	8b 40 0c             	mov    0xc(%rax),%eax
ffff8000001057f1:	8d 50 01             	lea    0x1(%rax),%edx
ffff8000001057f4:	48 b8 40 a4 13 00 00 	movabs $0xffff80000013a440,%rax
ffff8000001057fb:	80 ff ff 
ffff8000001057fe:	89 50 0c             	mov    %edx,0xc(%rax)
ffff800000105801:	48 b8 40 a4 13 00 00 	movabs $0xffff80000013a440,%rax
ffff800000105808:	80 ff ff 
ffff80000010580b:	c7 40 08 00 00 00 00 	movl   $0x0,0x8(%rax)
ffff800000105812:	e9 22 03 00 00       	jmpq   ffff800000105b39 <color_printk+0x469>
ffff800000105817:	8b 85 3c ff ff ff    	mov    -0xc4(%rbp),%eax
ffff80000010581d:	48 63 d0             	movslq %eax,%rdx
ffff800000105820:	48 b8 00 00 13 00 00 	movabs $0xffff800000130000,%rax
ffff800000105827:	80 ff ff 
ffff80000010582a:	48 01 d0             	add    %rdx,%rax
ffff80000010582d:	0f b6 00             	movzbl (%rax),%eax
ffff800000105830:	3c 08                	cmp    $0x8,%al
ffff800000105832:	0f 85 5d 01 00 00    	jne    ffff800000105995 <color_printk+0x2c5>
ffff800000105838:	48 b8 40 a4 13 00 00 	movabs $0xffff80000013a440,%rax
ffff80000010583f:	80 ff ff 
ffff800000105842:	8b 40 08             	mov    0x8(%rax),%eax
ffff800000105845:	8d 50 ff             	lea    -0x1(%rax),%edx
ffff800000105848:	48 b8 40 a4 13 00 00 	movabs $0xffff80000013a440,%rax
ffff80000010584f:	80 ff ff 
ffff800000105852:	89 50 08             	mov    %edx,0x8(%rax)
ffff800000105855:	48 b8 40 a4 13 00 00 	movabs $0xffff80000013a440,%rax
ffff80000010585c:	80 ff ff 
ffff80000010585f:	8b 40 08             	mov    0x8(%rax),%eax
ffff800000105862:	85 c0                	test   %eax,%eax
ffff800000105864:	0f 89 a7 00 00 00    	jns    ffff800000105911 <color_printk+0x241>
ffff80000010586a:	48 b8 40 a4 13 00 00 	movabs $0xffff80000013a440,%rax
ffff800000105871:	80 ff ff 
ffff800000105874:	8b 00                	mov    (%rax),%eax
ffff800000105876:	48 ba 40 a4 13 00 00 	movabs $0xffff80000013a440,%rdx
ffff80000010587d:	80 ff ff 
ffff800000105880:	8b 5a 10             	mov    0x10(%rdx),%ebx
ffff800000105883:	99                   	cltd   
ffff800000105884:	f7 fb                	idiv   %ebx
ffff800000105886:	8d 50 ff             	lea    -0x1(%rax),%edx
ffff800000105889:	48 b8 40 a4 13 00 00 	movabs $0xffff80000013a440,%rax
ffff800000105890:	80 ff ff 
ffff800000105893:	8b 40 10             	mov    0x10(%rax),%eax
ffff800000105896:	0f af d0             	imul   %eax,%edx
ffff800000105899:	48 b8 40 a4 13 00 00 	movabs $0xffff80000013a440,%rax
ffff8000001058a0:	80 ff ff 
ffff8000001058a3:	89 50 08             	mov    %edx,0x8(%rax)
ffff8000001058a6:	48 b8 40 a4 13 00 00 	movabs $0xffff80000013a440,%rax
ffff8000001058ad:	80 ff ff 
ffff8000001058b0:	8b 40 0c             	mov    0xc(%rax),%eax
ffff8000001058b3:	8d 50 ff             	lea    -0x1(%rax),%edx
ffff8000001058b6:	48 b8 40 a4 13 00 00 	movabs $0xffff80000013a440,%rax
ffff8000001058bd:	80 ff ff 
ffff8000001058c0:	89 50 0c             	mov    %edx,0xc(%rax)
ffff8000001058c3:	48 b8 40 a4 13 00 00 	movabs $0xffff80000013a440,%rax
ffff8000001058ca:	80 ff ff 
ffff8000001058cd:	8b 40 0c             	mov    0xc(%rax),%eax
ffff8000001058d0:	85 c0                	test   %eax,%eax
ffff8000001058d2:	79 3d                	jns    ffff800000105911 <color_printk+0x241>
ffff8000001058d4:	48 b8 40 a4 13 00 00 	movabs $0xffff80000013a440,%rax
ffff8000001058db:	80 ff ff 
ffff8000001058de:	8b 40 04             	mov    0x4(%rax),%eax
ffff8000001058e1:	48 ba 40 a4 13 00 00 	movabs $0xffff80000013a440,%rdx
ffff8000001058e8:	80 ff ff 
ffff8000001058eb:	8b 5a 14             	mov    0x14(%rdx),%ebx
ffff8000001058ee:	99                   	cltd   
ffff8000001058ef:	f7 fb                	idiv   %ebx
ffff8000001058f1:	8d 50 ff             	lea    -0x1(%rax),%edx
ffff8000001058f4:	48 b8 40 a4 13 00 00 	movabs $0xffff80000013a440,%rax
ffff8000001058fb:	80 ff ff 
ffff8000001058fe:	8b 40 14             	mov    0x14(%rax),%eax
ffff800000105901:	0f af d0             	imul   %eax,%edx
ffff800000105904:	48 b8 40 a4 13 00 00 	movabs $0xffff80000013a440,%rax
ffff80000010590b:	80 ff ff 
ffff80000010590e:	89 50 0c             	mov    %edx,0xc(%rax)
ffff800000105911:	48 b8 40 a4 13 00 00 	movabs $0xffff80000013a440,%rax
ffff800000105918:	80 ff ff 
ffff80000010591b:	8b 50 0c             	mov    0xc(%rax),%edx
ffff80000010591e:	48 b8 40 a4 13 00 00 	movabs $0xffff80000013a440,%rax
ffff800000105925:	80 ff ff 
ffff800000105928:	8b 40 14             	mov    0x14(%rax),%eax
ffff80000010592b:	89 d1                	mov    %edx,%ecx
ffff80000010592d:	0f af c8             	imul   %eax,%ecx
ffff800000105930:	48 b8 40 a4 13 00 00 	movabs $0xffff80000013a440,%rax
ffff800000105937:	80 ff ff 
ffff80000010593a:	8b 50 08             	mov    0x8(%rax),%edx
ffff80000010593d:	48 b8 40 a4 13 00 00 	movabs $0xffff80000013a440,%rax
ffff800000105944:	80 ff ff 
ffff800000105947:	8b 40 10             	mov    0x10(%rax),%eax
ffff80000010594a:	0f af d0             	imul   %eax,%edx
ffff80000010594d:	48 b8 40 a4 13 00 00 	movabs $0xffff80000013a440,%rax
ffff800000105954:	80 ff ff 
ffff800000105957:	8b 30                	mov    (%rax),%esi
ffff800000105959:	48 b8 40 a4 13 00 00 	movabs $0xffff80000013a440,%rax
ffff800000105960:	80 ff ff 
ffff800000105963:	48 8b 40 18          	mov    0x18(%rax),%rax
ffff800000105967:	44 8b 85 08 ff ff ff 	mov    -0xf8(%rbp),%r8d
ffff80000010596e:	8b bd 0c ff ff ff    	mov    -0xf4(%rbp),%edi
ffff800000105974:	c7 04 24 20 00 00 00 	movl   $0x20,(%rsp)
ffff80000010597b:	45 89 c1             	mov    %r8d,%r9d
ffff80000010597e:	41 89 f8             	mov    %edi,%r8d
ffff800000105981:	48 89 c7             	mov    %rax,%rdi
ffff800000105984:	48 b8 e9 49 10 00 00 	movabs $0xffff8000001049e9,%rax
ffff80000010598b:	80 ff ff 
ffff80000010598e:	ff d0                	callq  *%rax
ffff800000105990:	e9 a4 01 00 00       	jmpq   ffff800000105b39 <color_printk+0x469>
ffff800000105995:	8b 85 3c ff ff ff    	mov    -0xc4(%rbp),%eax
ffff80000010599b:	48 63 d0             	movslq %eax,%rdx
ffff80000010599e:	48 b8 00 00 13 00 00 	movabs $0xffff800000130000,%rax
ffff8000001059a5:	80 ff ff 
ffff8000001059a8:	48 01 d0             	add    %rdx,%rax
ffff8000001059ab:	0f b6 00             	movzbl (%rax),%eax
ffff8000001059ae:	3c 09                	cmp    $0x9,%al
ffff8000001059b0:	0f 85 d4 00 00 00    	jne    ffff800000105a8a <color_printk+0x3ba>
ffff8000001059b6:	48 b8 40 a4 13 00 00 	movabs $0xffff80000013a440,%rax
ffff8000001059bd:	80 ff ff 
ffff8000001059c0:	8b 40 08             	mov    0x8(%rax),%eax
ffff8000001059c3:	83 c0 08             	add    $0x8,%eax
ffff8000001059c6:	83 e0 f8             	and    $0xfffffff8,%eax
ffff8000001059c9:	89 c2                	mov    %eax,%edx
ffff8000001059cb:	48 b8 40 a4 13 00 00 	movabs $0xffff80000013a440,%rax
ffff8000001059d2:	80 ff ff 
ffff8000001059d5:	8b 40 08             	mov    0x8(%rax),%eax
ffff8000001059d8:	29 c2                	sub    %eax,%edx
ffff8000001059da:	89 d0                	mov    %edx,%eax
ffff8000001059dc:	89 85 38 ff ff ff    	mov    %eax,-0xc8(%rbp)
ffff8000001059e2:	83 ad 38 ff ff ff 01 	subl   $0x1,-0xc8(%rbp)
ffff8000001059e9:	48 b8 40 a4 13 00 00 	movabs $0xffff80000013a440,%rax
ffff8000001059f0:	80 ff ff 
ffff8000001059f3:	8b 50 0c             	mov    0xc(%rax),%edx
ffff8000001059f6:	48 b8 40 a4 13 00 00 	movabs $0xffff80000013a440,%rax
ffff8000001059fd:	80 ff ff 
ffff800000105a00:	8b 40 14             	mov    0x14(%rax),%eax
ffff800000105a03:	89 d1                	mov    %edx,%ecx
ffff800000105a05:	0f af c8             	imul   %eax,%ecx
ffff800000105a08:	48 b8 40 a4 13 00 00 	movabs $0xffff80000013a440,%rax
ffff800000105a0f:	80 ff ff 
ffff800000105a12:	8b 50 08             	mov    0x8(%rax),%edx
ffff800000105a15:	48 b8 40 a4 13 00 00 	movabs $0xffff80000013a440,%rax
ffff800000105a1c:	80 ff ff 
ffff800000105a1f:	8b 40 10             	mov    0x10(%rax),%eax
ffff800000105a22:	0f af d0             	imul   %eax,%edx
ffff800000105a25:	48 b8 40 a4 13 00 00 	movabs $0xffff80000013a440,%rax
ffff800000105a2c:	80 ff ff 
ffff800000105a2f:	8b 30                	mov    (%rax),%esi
ffff800000105a31:	48 b8 40 a4 13 00 00 	movabs $0xffff80000013a440,%rax
ffff800000105a38:	80 ff ff 
ffff800000105a3b:	48 8b 40 18          	mov    0x18(%rax),%rax
ffff800000105a3f:	44 8b 85 08 ff ff ff 	mov    -0xf8(%rbp),%r8d
ffff800000105a46:	8b bd 0c ff ff ff    	mov    -0xf4(%rbp),%edi
ffff800000105a4c:	c7 04 24 20 00 00 00 	movl   $0x20,(%rsp)
ffff800000105a53:	45 89 c1             	mov    %r8d,%r9d
ffff800000105a56:	41 89 f8             	mov    %edi,%r8d
ffff800000105a59:	48 89 c7             	mov    %rax,%rdi
ffff800000105a5c:	48 b8 e9 49 10 00 00 	movabs $0xffff8000001049e9,%rax
ffff800000105a63:	80 ff ff 
ffff800000105a66:	ff d0                	callq  *%rax
ffff800000105a68:	48 b8 40 a4 13 00 00 	movabs $0xffff80000013a440,%rax
ffff800000105a6f:	80 ff ff 
ffff800000105a72:	8b 40 08             	mov    0x8(%rax),%eax
ffff800000105a75:	8d 50 01             	lea    0x1(%rax),%edx
ffff800000105a78:	48 b8 40 a4 13 00 00 	movabs $0xffff80000013a440,%rax
ffff800000105a7f:	80 ff ff 
ffff800000105a82:	89 50 08             	mov    %edx,0x8(%rax)
ffff800000105a85:	e9 af 00 00 00       	jmpq   ffff800000105b39 <color_printk+0x469>
ffff800000105a8a:	8b 85 3c ff ff ff    	mov    -0xc4(%rbp),%eax
ffff800000105a90:	48 63 d0             	movslq %eax,%rdx
ffff800000105a93:	48 b8 00 00 13 00 00 	movabs $0xffff800000130000,%rax
ffff800000105a9a:	80 ff ff 
ffff800000105a9d:	48 01 d0             	add    %rdx,%rax
ffff800000105aa0:	0f b6 00             	movzbl (%rax),%eax
ffff800000105aa3:	0f b6 f8             	movzbl %al,%edi
ffff800000105aa6:	48 b8 40 a4 13 00 00 	movabs $0xffff80000013a440,%rax
ffff800000105aad:	80 ff ff 
ffff800000105ab0:	8b 50 0c             	mov    0xc(%rax),%edx
ffff800000105ab3:	48 b8 40 a4 13 00 00 	movabs $0xffff80000013a440,%rax
ffff800000105aba:	80 ff ff 
ffff800000105abd:	8b 40 14             	mov    0x14(%rax),%eax
ffff800000105ac0:	89 d1                	mov    %edx,%ecx
ffff800000105ac2:	0f af c8             	imul   %eax,%ecx
ffff800000105ac5:	48 b8 40 a4 13 00 00 	movabs $0xffff80000013a440,%rax
ffff800000105acc:	80 ff ff 
ffff800000105acf:	8b 50 08             	mov    0x8(%rax),%edx
ffff800000105ad2:	48 b8 40 a4 13 00 00 	movabs $0xffff80000013a440,%rax
ffff800000105ad9:	80 ff ff 
ffff800000105adc:	8b 40 10             	mov    0x10(%rax),%eax
ffff800000105adf:	0f af d0             	imul   %eax,%edx
ffff800000105ae2:	48 b8 40 a4 13 00 00 	movabs $0xffff80000013a440,%rax
ffff800000105ae9:	80 ff ff 
ffff800000105aec:	8b 30                	mov    (%rax),%esi
ffff800000105aee:	48 b8 40 a4 13 00 00 	movabs $0xffff80000013a440,%rax
ffff800000105af5:	80 ff ff 
ffff800000105af8:	48 8b 40 18          	mov    0x18(%rax),%rax
ffff800000105afc:	44 8b 8d 08 ff ff ff 	mov    -0xf8(%rbp),%r9d
ffff800000105b03:	44 8b 85 0c ff ff ff 	mov    -0xf4(%rbp),%r8d
ffff800000105b0a:	89 3c 24             	mov    %edi,(%rsp)
ffff800000105b0d:	48 89 c7             	mov    %rax,%rdi
ffff800000105b10:	48 b8 e9 49 10 00 00 	movabs $0xffff8000001049e9,%rax
ffff800000105b17:	80 ff ff 
ffff800000105b1a:	ff d0                	callq  *%rax
ffff800000105b1c:	48 b8 40 a4 13 00 00 	movabs $0xffff80000013a440,%rax
ffff800000105b23:	80 ff ff 
ffff800000105b26:	8b 40 08             	mov    0x8(%rax),%eax
ffff800000105b29:	8d 50 01             	lea    0x1(%rax),%edx
ffff800000105b2c:	48 b8 40 a4 13 00 00 	movabs $0xffff80000013a440,%rax
ffff800000105b33:	80 ff ff 
ffff800000105b36:	89 50 08             	mov    %edx,0x8(%rax)
ffff800000105b39:	48 b8 40 a4 13 00 00 	movabs $0xffff80000013a440,%rax
ffff800000105b40:	80 ff ff 
ffff800000105b43:	8b 48 08             	mov    0x8(%rax),%ecx
ffff800000105b46:	48 b8 40 a4 13 00 00 	movabs $0xffff80000013a440,%rax
ffff800000105b4d:	80 ff ff 
ffff800000105b50:	8b 00                	mov    (%rax),%eax
ffff800000105b52:	48 ba 40 a4 13 00 00 	movabs $0xffff80000013a440,%rdx
ffff800000105b59:	80 ff ff 
ffff800000105b5c:	8b 5a 10             	mov    0x10(%rdx),%ebx
ffff800000105b5f:	99                   	cltd   
ffff800000105b60:	f7 fb                	idiv   %ebx
ffff800000105b62:	39 c1                	cmp    %eax,%ecx
ffff800000105b64:	7c 2e                	jl     ffff800000105b94 <color_printk+0x4c4>
ffff800000105b66:	48 b8 40 a4 13 00 00 	movabs $0xffff80000013a440,%rax
ffff800000105b6d:	80 ff ff 
ffff800000105b70:	8b 40 0c             	mov    0xc(%rax),%eax
ffff800000105b73:	8d 50 01             	lea    0x1(%rax),%edx
ffff800000105b76:	48 b8 40 a4 13 00 00 	movabs $0xffff80000013a440,%rax
ffff800000105b7d:	80 ff ff 
ffff800000105b80:	89 50 0c             	mov    %edx,0xc(%rax)
ffff800000105b83:	48 b8 40 a4 13 00 00 	movabs $0xffff80000013a440,%rax
ffff800000105b8a:	80 ff ff 
ffff800000105b8d:	c7 40 08 00 00 00 00 	movl   $0x0,0x8(%rax)
ffff800000105b94:	48 b8 40 a4 13 00 00 	movabs $0xffff80000013a440,%rax
ffff800000105b9b:	80 ff ff 
ffff800000105b9e:	8b 48 0c             	mov    0xc(%rax),%ecx
ffff800000105ba1:	48 b8 40 a4 13 00 00 	movabs $0xffff80000013a440,%rax
ffff800000105ba8:	80 ff ff 
ffff800000105bab:	8b 40 04             	mov    0x4(%rax),%eax
ffff800000105bae:	48 ba 40 a4 13 00 00 	movabs $0xffff80000013a440,%rdx
ffff800000105bb5:	80 ff ff 
ffff800000105bb8:	8b 5a 14             	mov    0x14(%rdx),%ebx
ffff800000105bbb:	99                   	cltd   
ffff800000105bbc:	f7 fb                	idiv   %ebx
ffff800000105bbe:	39 c1                	cmp    %eax,%ecx
ffff800000105bc0:	7c 11                	jl     ffff800000105bd3 <color_printk+0x503>
ffff800000105bc2:	48 b8 40 a4 13 00 00 	movabs $0xffff80000013a440,%rax
ffff800000105bc9:	80 ff ff 
ffff800000105bcc:	c7 40 0c 00 00 00 00 	movl   $0x0,0xc(%rax)
ffff800000105bd3:	83 85 3c ff ff ff 01 	addl   $0x1,-0xc4(%rbp)
ffff800000105bda:	8b 85 3c ff ff ff    	mov    -0xc4(%rbp),%eax
ffff800000105be0:	3b 85 34 ff ff ff    	cmp    -0xcc(%rbp),%eax
ffff800000105be6:	0f 8c c6 fb ff ff    	jl     ffff8000001057b2 <color_printk+0xe2>
ffff800000105bec:	83 bd 38 ff ff ff 00 	cmpl   $0x0,-0xc8(%rbp)
ffff800000105bf3:	0f 85 b9 fb ff ff    	jne    ffff8000001057b2 <color_printk+0xe2>
ffff800000105bf9:	8b 85 34 ff ff ff    	mov    -0xcc(%rbp),%eax
ffff800000105bff:	48 81 c4 00 01 00 00 	add    $0x100,%rsp
ffff800000105c06:	5b                   	pop    %rbx
ffff800000105c07:	5d                   	pop    %rbp
ffff800000105c08:	c3                   	retq   

ffff800000105c09 <set_intr_gate>:
ffff800000105c09:	55                   	push   %rbp
ffff800000105c0a:	48 89 e5             	mov    %rsp,%rbp
ffff800000105c0d:	89 7d ec             	mov    %edi,-0x14(%rbp)
ffff800000105c10:	89 f0                	mov    %esi,%eax
ffff800000105c12:	48 89 55 e0          	mov    %rdx,-0x20(%rbp)
ffff800000105c16:	88 45 e8             	mov    %al,-0x18(%rbp)
ffff800000105c19:	8b 45 ec             	mov    -0x14(%rbp),%eax
ffff800000105c1c:	48 c1 e0 04          	shl    $0x4,%rax
ffff800000105c20:	48 89 c2             	mov    %rax,%rdx
ffff800000105c23:	48 b8 82 db 10 00 00 	movabs $0xffff80000010db82,%rax
ffff800000105c2a:	80 ff ff 
ffff800000105c2d:	48 8d 34 02          	lea    (%rdx,%rax,1),%rsi
ffff800000105c31:	8b 45 ec             	mov    -0x14(%rbp),%eax
ffff800000105c34:	48 c1 e0 04          	shl    $0x4,%rax
ffff800000105c38:	48 8d 50 08          	lea    0x8(%rax),%rdx
ffff800000105c3c:	48 b8 82 db 10 00 00 	movabs $0xffff80000010db82,%rax
ffff800000105c43:	80 ff ff 
ffff800000105c46:	48 8d 3c 02          	lea    (%rdx,%rax,1),%rdi
ffff800000105c4a:	48 8b 55 e0          	mov    -0x20(%rbp),%rdx
ffff800000105c4e:	b8 00 00 08 00       	mov    $0x80000,%eax
ffff800000105c53:	0f b6 4d e8          	movzbl -0x18(%rbp),%ecx
ffff800000105c57:	66 89 d0             	mov    %dx,%ax
ffff800000105c5a:	48 83 e1 07          	and    $0x7,%rcx
ffff800000105c5e:	48 81 c1 00 8e 00 00 	add    $0x8e00,%rcx
ffff800000105c65:	48 c1 e1 20          	shl    $0x20,%rcx
ffff800000105c69:	48 01 c8             	add    %rcx,%rax
ffff800000105c6c:	48 31 c9             	xor    %rcx,%rcx
ffff800000105c6f:	89 d1                	mov    %edx,%ecx
ffff800000105c71:	48 c1 e9 10          	shr    $0x10,%rcx
ffff800000105c75:	48 c1 e1 30          	shl    $0x30,%rcx
ffff800000105c79:	48 01 c8             	add    %rcx,%rax
ffff800000105c7c:	48 89 06             	mov    %rax,(%rsi)
ffff800000105c7f:	48 c1 ea 20          	shr    $0x20,%rdx
ffff800000105c83:	48 89 17             	mov    %rdx,(%rdi)
ffff800000105c86:	48 89 45 f8          	mov    %rax,-0x8(%rbp)
ffff800000105c8a:	48 89 55 f0          	mov    %rdx,-0x10(%rbp)
ffff800000105c8e:	5d                   	pop    %rbp
ffff800000105c8f:	c3                   	retq   

ffff800000105c90 <set_trap_gate>:
ffff800000105c90:	55                   	push   %rbp
ffff800000105c91:	48 89 e5             	mov    %rsp,%rbp
ffff800000105c94:	89 7d ec             	mov    %edi,-0x14(%rbp)
ffff800000105c97:	89 f0                	mov    %esi,%eax
ffff800000105c99:	48 89 55 e0          	mov    %rdx,-0x20(%rbp)
ffff800000105c9d:	88 45 e8             	mov    %al,-0x18(%rbp)
ffff800000105ca0:	8b 45 ec             	mov    -0x14(%rbp),%eax
ffff800000105ca3:	48 c1 e0 04          	shl    $0x4,%rax
ffff800000105ca7:	48 89 c2             	mov    %rax,%rdx
ffff800000105caa:	48 b8 82 db 10 00 00 	movabs $0xffff80000010db82,%rax
ffff800000105cb1:	80 ff ff 
ffff800000105cb4:	48 8d 34 02          	lea    (%rdx,%rax,1),%rsi
ffff800000105cb8:	8b 45 ec             	mov    -0x14(%rbp),%eax
ffff800000105cbb:	48 c1 e0 04          	shl    $0x4,%rax
ffff800000105cbf:	48 8d 50 08          	lea    0x8(%rax),%rdx
ffff800000105cc3:	48 b8 82 db 10 00 00 	movabs $0xffff80000010db82,%rax
ffff800000105cca:	80 ff ff 
ffff800000105ccd:	48 8d 3c 02          	lea    (%rdx,%rax,1),%rdi
ffff800000105cd1:	48 8b 55 e0          	mov    -0x20(%rbp),%rdx
ffff800000105cd5:	b8 00 00 08 00       	mov    $0x80000,%eax
ffff800000105cda:	0f b6 4d e8          	movzbl -0x18(%rbp),%ecx
ffff800000105cde:	66 89 d0             	mov    %dx,%ax
ffff800000105ce1:	48 83 e1 07          	and    $0x7,%rcx
ffff800000105ce5:	48 81 c1 00 8f 00 00 	add    $0x8f00,%rcx
ffff800000105cec:	48 c1 e1 20          	shl    $0x20,%rcx
ffff800000105cf0:	48 01 c8             	add    %rcx,%rax
ffff800000105cf3:	48 31 c9             	xor    %rcx,%rcx
ffff800000105cf6:	89 d1                	mov    %edx,%ecx
ffff800000105cf8:	48 c1 e9 10          	shr    $0x10,%rcx
ffff800000105cfc:	48 c1 e1 30          	shl    $0x30,%rcx
ffff800000105d00:	48 01 c8             	add    %rcx,%rax
ffff800000105d03:	48 89 06             	mov    %rax,(%rsi)
ffff800000105d06:	48 c1 ea 20          	shr    $0x20,%rdx
ffff800000105d0a:	48 89 17             	mov    %rdx,(%rdi)
ffff800000105d0d:	48 89 45 f8          	mov    %rax,-0x8(%rbp)
ffff800000105d11:	48 89 55 f0          	mov    %rdx,-0x10(%rbp)
ffff800000105d15:	5d                   	pop    %rbp
ffff800000105d16:	c3                   	retq   

ffff800000105d17 <set_system_gate>:
ffff800000105d17:	55                   	push   %rbp
ffff800000105d18:	48 89 e5             	mov    %rsp,%rbp
ffff800000105d1b:	89 7d ec             	mov    %edi,-0x14(%rbp)
ffff800000105d1e:	89 f0                	mov    %esi,%eax
ffff800000105d20:	48 89 55 e0          	mov    %rdx,-0x20(%rbp)
ffff800000105d24:	88 45 e8             	mov    %al,-0x18(%rbp)
ffff800000105d27:	8b 45 ec             	mov    -0x14(%rbp),%eax
ffff800000105d2a:	48 c1 e0 04          	shl    $0x4,%rax
ffff800000105d2e:	48 89 c2             	mov    %rax,%rdx
ffff800000105d31:	48 b8 82 db 10 00 00 	movabs $0xffff80000010db82,%rax
ffff800000105d38:	80 ff ff 
ffff800000105d3b:	48 8d 34 02          	lea    (%rdx,%rax,1),%rsi
ffff800000105d3f:	8b 45 ec             	mov    -0x14(%rbp),%eax
ffff800000105d42:	48 c1 e0 04          	shl    $0x4,%rax
ffff800000105d46:	48 8d 50 08          	lea    0x8(%rax),%rdx
ffff800000105d4a:	48 b8 82 db 10 00 00 	movabs $0xffff80000010db82,%rax
ffff800000105d51:	80 ff ff 
ffff800000105d54:	48 8d 3c 02          	lea    (%rdx,%rax,1),%rdi
ffff800000105d58:	48 8b 55 e0          	mov    -0x20(%rbp),%rdx
ffff800000105d5c:	b8 00 00 08 00       	mov    $0x80000,%eax
ffff800000105d61:	0f b6 4d e8          	movzbl -0x18(%rbp),%ecx
ffff800000105d65:	66 89 d0             	mov    %dx,%ax
ffff800000105d68:	48 83 e1 07          	and    $0x7,%rcx
ffff800000105d6c:	48 81 c1 00 ef 00 00 	add    $0xef00,%rcx
ffff800000105d73:	48 c1 e1 20          	shl    $0x20,%rcx
ffff800000105d77:	48 01 c8             	add    %rcx,%rax
ffff800000105d7a:	48 31 c9             	xor    %rcx,%rcx
ffff800000105d7d:	89 d1                	mov    %edx,%ecx
ffff800000105d7f:	48 c1 e9 10          	shr    $0x10,%rcx
ffff800000105d83:	48 c1 e1 30          	shl    $0x30,%rcx
ffff800000105d87:	48 01 c8             	add    %rcx,%rax
ffff800000105d8a:	48 89 06             	mov    %rax,(%rsi)
ffff800000105d8d:	48 c1 ea 20          	shr    $0x20,%rdx
ffff800000105d91:	48 89 17             	mov    %rdx,(%rdi)
ffff800000105d94:	48 89 45 f8          	mov    %rax,-0x8(%rbp)
ffff800000105d98:	48 89 55 f0          	mov    %rdx,-0x10(%rbp)
ffff800000105d9c:	5d                   	pop    %rbp
ffff800000105d9d:	c3                   	retq   
ffff800000105d9e:	55                   	push   %rbp
ffff800000105d9f:	48 89 e5             	mov    %rsp,%rbp
ffff800000105da2:	48 89 7d f8          	mov    %rdi,-0x8(%rbp)
ffff800000105da6:	48 89 75 f0          	mov    %rsi,-0x10(%rbp)
ffff800000105daa:	48 89 55 e8          	mov    %rdx,-0x18(%rbp)
ffff800000105dae:	48 89 4d e0          	mov    %rcx,-0x20(%rbp)
ffff800000105db2:	4c 89 45 d8          	mov    %r8,-0x28(%rbp)
ffff800000105db6:	4c 89 4d d0          	mov    %r9,-0x30(%rbp)
ffff800000105dba:	48 b8 90 eb 10 00 00 	movabs $0xffff80000010eb90,%rax
ffff800000105dc1:	80 ff ff 
ffff800000105dc4:	48 8b 55 f8          	mov    -0x8(%rbp),%rdx
ffff800000105dc8:	48 89 10             	mov    %rdx,(%rax)
ffff800000105dcb:	48 b8 98 eb 10 00 00 	movabs $0xffff80000010eb98,%rax
ffff800000105dd2:	80 ff ff 
ffff800000105dd5:	48 8b 55 f0          	mov    -0x10(%rbp),%rdx
ffff800000105dd9:	48 89 10             	mov    %rdx,(%rax)
ffff800000105ddc:	48 b8 a0 eb 10 00 00 	movabs $0xffff80000010eba0,%rax
ffff800000105de3:	80 ff ff 
ffff800000105de6:	48 8b 55 e8          	mov    -0x18(%rbp),%rdx
ffff800000105dea:	48 89 10             	mov    %rdx,(%rax)
ffff800000105ded:	48 b8 b0 eb 10 00 00 	movabs $0xffff80000010ebb0,%rax
ffff800000105df4:	80 ff ff 
ffff800000105df7:	48 8b 55 e0          	mov    -0x20(%rbp),%rdx
ffff800000105dfb:	48 89 10             	mov    %rdx,(%rax)
ffff800000105dfe:	48 b8 b8 eb 10 00 00 	movabs $0xffff80000010ebb8,%rax
ffff800000105e05:	80 ff ff 
ffff800000105e08:	48 8b 55 d8          	mov    -0x28(%rbp),%rdx
ffff800000105e0c:	48 89 10             	mov    %rdx,(%rax)
ffff800000105e0f:	48 b8 c0 eb 10 00 00 	movabs $0xffff80000010ebc0,%rax
ffff800000105e16:	80 ff ff 
ffff800000105e19:	48 8b 55 d0          	mov    -0x30(%rbp),%rdx
ffff800000105e1d:	48 89 10             	mov    %rdx,(%rax)
ffff800000105e20:	48 b8 c8 eb 10 00 00 	movabs $0xffff80000010ebc8,%rax
ffff800000105e27:	80 ff ff 
ffff800000105e2a:	48 8b 55 10          	mov    0x10(%rbp),%rdx
ffff800000105e2e:	48 89 10             	mov    %rdx,(%rax)
ffff800000105e31:	48 b8 d0 eb 10 00 00 	movabs $0xffff80000010ebd0,%rax
ffff800000105e38:	80 ff ff 
ffff800000105e3b:	48 8b 55 18          	mov    0x18(%rbp),%rdx
ffff800000105e3f:	48 89 10             	mov    %rdx,(%rax)
ffff800000105e42:	48 b8 d8 eb 10 00 00 	movabs $0xffff80000010ebd8,%rax
ffff800000105e49:	80 ff ff 
ffff800000105e4c:	48 8b 55 20          	mov    0x20(%rbp),%rdx
ffff800000105e50:	48 89 10             	mov    %rdx,(%rax)
ffff800000105e53:	48 b8 e0 eb 10 00 00 	movabs $0xffff80000010ebe0,%rax
ffff800000105e5a:	80 ff ff 
ffff800000105e5d:	48 8b 55 28          	mov    0x28(%rbp),%rdx
ffff800000105e61:	48 89 10             	mov    %rdx,(%rax)
ffff800000105e64:	5d                   	pop    %rbp
ffff800000105e65:	c3                   	retq   

ffff800000105e66 <do_divide_error>:
ffff800000105e66:	55                   	push   %rbp
ffff800000105e67:	48 89 e5             	mov    %rsp,%rbp
ffff800000105e6a:	48 83 ec 10          	sub    $0x10,%rsp
ffff800000105e6e:	48 89 7d f8          	mov    %rdi,-0x8(%rbp)
ffff800000105e72:	48 89 75 f0          	mov    %rsi,-0x10(%rbp)
ffff800000105e76:	48 8b 45 f8          	mov    -0x8(%rbp),%rax
ffff800000105e7a:	48 8b 88 98 00 00 00 	mov    0x98(%rax),%rcx
ffff800000105e81:	48 8b 45 f8          	mov    -0x8(%rbp),%rax
ffff800000105e85:	48 8b 90 b0 00 00 00 	mov    0xb0(%rax),%rdx
ffff800000105e8c:	48 8b 45 f0          	mov    -0x10(%rbp),%rax
ffff800000105e90:	49 89 c9             	mov    %rcx,%r9
ffff800000105e93:	49 89 d0             	mov    %rdx,%r8
ffff800000105e96:	48 89 c1             	mov    %rax,%rcx
ffff800000105e99:	48 ba 20 9a 11 00 00 	movabs $0xffff800000119a20,%rdx
ffff800000105ea0:	80 ff ff 
ffff800000105ea3:	be 00 00 00 00       	mov    $0x0,%esi
ffff800000105ea8:	bf 00 00 ff 00       	mov    $0xff0000,%edi
ffff800000105ead:	b8 00 00 00 00       	mov    $0x0,%eax
ffff800000105eb2:	49 ba d0 56 10 00 00 	movabs $0xffff8000001056d0,%r10
ffff800000105eb9:	80 ff ff 
ffff800000105ebc:	41 ff d2             	callq  *%r10
ffff800000105ebf:	eb fe                	jmp    ffff800000105ebf <do_divide_error+0x59>

ffff800000105ec1 <do_debug>:
ffff800000105ec1:	55                   	push   %rbp
ffff800000105ec2:	48 89 e5             	mov    %rsp,%rbp
ffff800000105ec5:	48 83 ec 10          	sub    $0x10,%rsp
ffff800000105ec9:	48 89 7d f8          	mov    %rdi,-0x8(%rbp)
ffff800000105ecd:	48 89 75 f0          	mov    %rsi,-0x10(%rbp)
ffff800000105ed1:	48 8b 45 f8          	mov    -0x8(%rbp),%rax
ffff800000105ed5:	48 8b 88 98 00 00 00 	mov    0x98(%rax),%rcx
ffff800000105edc:	48 8b 45 f8          	mov    -0x8(%rbp),%rax
ffff800000105ee0:	48 8b 90 b0 00 00 00 	mov    0xb0(%rax),%rdx
ffff800000105ee7:	48 8b 45 f0          	mov    -0x10(%rbp),%rax
ffff800000105eeb:	49 89 c9             	mov    %rcx,%r9
ffff800000105eee:	49 89 d0             	mov    %rdx,%r8
ffff800000105ef1:	48 89 c1             	mov    %rax,%rcx
ffff800000105ef4:	48 ba 60 9a 11 00 00 	movabs $0xffff800000119a60,%rdx
ffff800000105efb:	80 ff ff 
ffff800000105efe:	be 00 00 00 00       	mov    $0x0,%esi
ffff800000105f03:	bf 00 00 ff 00       	mov    $0xff0000,%edi
ffff800000105f08:	b8 00 00 00 00       	mov    $0x0,%eax
ffff800000105f0d:	49 ba d0 56 10 00 00 	movabs $0xffff8000001056d0,%r10
ffff800000105f14:	80 ff ff 
ffff800000105f17:	41 ff d2             	callq  *%r10
ffff800000105f1a:	eb fe                	jmp    ffff800000105f1a <do_debug+0x59>

ffff800000105f1c <do_nmi>:
ffff800000105f1c:	55                   	push   %rbp
ffff800000105f1d:	48 89 e5             	mov    %rsp,%rbp
ffff800000105f20:	48 83 ec 10          	sub    $0x10,%rsp
ffff800000105f24:	48 89 7d f8          	mov    %rdi,-0x8(%rbp)
ffff800000105f28:	48 89 75 f0          	mov    %rsi,-0x10(%rbp)
ffff800000105f2c:	48 8b 45 f8          	mov    -0x8(%rbp),%rax
ffff800000105f30:	48 8b 88 98 00 00 00 	mov    0x98(%rax),%rcx
ffff800000105f37:	48 8b 45 f8          	mov    -0x8(%rbp),%rax
ffff800000105f3b:	48 8b 90 b0 00 00 00 	mov    0xb0(%rax),%rdx
ffff800000105f42:	48 8b 45 f0          	mov    -0x10(%rbp),%rax
ffff800000105f46:	49 89 c9             	mov    %rcx,%r9
ffff800000105f49:	49 89 d0             	mov    %rdx,%r8
ffff800000105f4c:	48 89 c1             	mov    %rax,%rcx
ffff800000105f4f:	48 ba 98 9a 11 00 00 	movabs $0xffff800000119a98,%rdx
ffff800000105f56:	80 ff ff 
ffff800000105f59:	be 00 00 00 00       	mov    $0x0,%esi
ffff800000105f5e:	bf 00 00 ff 00       	mov    $0xff0000,%edi
ffff800000105f63:	b8 00 00 00 00       	mov    $0x0,%eax
ffff800000105f68:	49 ba d0 56 10 00 00 	movabs $0xffff8000001056d0,%r10
ffff800000105f6f:	80 ff ff 
ffff800000105f72:	41 ff d2             	callq  *%r10
ffff800000105f75:	eb fe                	jmp    ffff800000105f75 <do_nmi+0x59>

ffff800000105f77 <do_int3>:
ffff800000105f77:	55                   	push   %rbp
ffff800000105f78:	48 89 e5             	mov    %rsp,%rbp
ffff800000105f7b:	48 83 ec 10          	sub    $0x10,%rsp
ffff800000105f7f:	48 89 7d f8          	mov    %rdi,-0x8(%rbp)
ffff800000105f83:	48 89 75 f0          	mov    %rsi,-0x10(%rbp)
ffff800000105f87:	48 8b 45 f8          	mov    -0x8(%rbp),%rax
ffff800000105f8b:	48 8b 88 98 00 00 00 	mov    0x98(%rax),%rcx
ffff800000105f92:	48 8b 45 f8          	mov    -0x8(%rbp),%rax
ffff800000105f96:	48 8b 90 b0 00 00 00 	mov    0xb0(%rax),%rdx
ffff800000105f9d:	48 8b 45 f0          	mov    -0x10(%rbp),%rax
ffff800000105fa1:	49 89 c9             	mov    %rcx,%r9
ffff800000105fa4:	49 89 d0             	mov    %rdx,%r8
ffff800000105fa7:	48 89 c1             	mov    %rax,%rcx
ffff800000105faa:	48 ba d0 9a 11 00 00 	movabs $0xffff800000119ad0,%rdx
ffff800000105fb1:	80 ff ff 
ffff800000105fb4:	be 00 00 00 00       	mov    $0x0,%esi
ffff800000105fb9:	bf 00 00 ff 00       	mov    $0xff0000,%edi
ffff800000105fbe:	b8 00 00 00 00       	mov    $0x0,%eax
ffff800000105fc3:	49 ba d0 56 10 00 00 	movabs $0xffff8000001056d0,%r10
ffff800000105fca:	80 ff ff 
ffff800000105fcd:	41 ff d2             	callq  *%r10
ffff800000105fd0:	eb fe                	jmp    ffff800000105fd0 <do_int3+0x59>

ffff800000105fd2 <do_overflow>:
ffff800000105fd2:	55                   	push   %rbp
ffff800000105fd3:	48 89 e5             	mov    %rsp,%rbp
ffff800000105fd6:	48 83 ec 10          	sub    $0x10,%rsp
ffff800000105fda:	48 89 7d f8          	mov    %rdi,-0x8(%rbp)
ffff800000105fde:	48 89 75 f0          	mov    %rsi,-0x10(%rbp)
ffff800000105fe2:	48 8b 45 f8          	mov    -0x8(%rbp),%rax
ffff800000105fe6:	48 8b 88 98 00 00 00 	mov    0x98(%rax),%rcx
ffff800000105fed:	48 8b 45 f8          	mov    -0x8(%rbp),%rax
ffff800000105ff1:	48 8b 90 b0 00 00 00 	mov    0xb0(%rax),%rdx
ffff800000105ff8:	48 8b 45 f0          	mov    -0x10(%rbp),%rax
ffff800000105ffc:	49 89 c9             	mov    %rcx,%r9
ffff800000105fff:	49 89 d0             	mov    %rdx,%r8
ffff800000106002:	48 89 c1             	mov    %rax,%rcx
ffff800000106005:	48 ba 08 9b 11 00 00 	movabs $0xffff800000119b08,%rdx
ffff80000010600c:	80 ff ff 
ffff80000010600f:	be 00 00 00 00       	mov    $0x0,%esi
ffff800000106014:	bf 00 00 ff 00       	mov    $0xff0000,%edi
ffff800000106019:	b8 00 00 00 00       	mov    $0x0,%eax
ffff80000010601e:	49 ba d0 56 10 00 00 	movabs $0xffff8000001056d0,%r10
ffff800000106025:	80 ff ff 
ffff800000106028:	41 ff d2             	callq  *%r10
ffff80000010602b:	eb fe                	jmp    ffff80000010602b <do_overflow+0x59>

ffff80000010602d <do_bounds>:
ffff80000010602d:	55                   	push   %rbp
ffff80000010602e:	48 89 e5             	mov    %rsp,%rbp
ffff800000106031:	48 83 ec 10          	sub    $0x10,%rsp
ffff800000106035:	48 89 7d f8          	mov    %rdi,-0x8(%rbp)
ffff800000106039:	48 89 75 f0          	mov    %rsi,-0x10(%rbp)
ffff80000010603d:	48 8b 45 f8          	mov    -0x8(%rbp),%rax
ffff800000106041:	48 8b 88 98 00 00 00 	mov    0x98(%rax),%rcx
ffff800000106048:	48 8b 45 f8          	mov    -0x8(%rbp),%rax
ffff80000010604c:	48 8b 90 b0 00 00 00 	mov    0xb0(%rax),%rdx
ffff800000106053:	48 8b 45 f0          	mov    -0x10(%rbp),%rax
ffff800000106057:	49 89 c9             	mov    %rcx,%r9
ffff80000010605a:	49 89 d0             	mov    %rdx,%r8
ffff80000010605d:	48 89 c1             	mov    %rax,%rcx
ffff800000106060:	48 ba 48 9b 11 00 00 	movabs $0xffff800000119b48,%rdx
ffff800000106067:	80 ff ff 
ffff80000010606a:	be 00 00 00 00       	mov    $0x0,%esi
ffff80000010606f:	bf 00 00 ff 00       	mov    $0xff0000,%edi
ffff800000106074:	b8 00 00 00 00       	mov    $0x0,%eax
ffff800000106079:	49 ba d0 56 10 00 00 	movabs $0xffff8000001056d0,%r10
ffff800000106080:	80 ff ff 
ffff800000106083:	41 ff d2             	callq  *%r10
ffff800000106086:	eb fe                	jmp    ffff800000106086 <do_bounds+0x59>

ffff800000106088 <do_undefined_opcode>:
ffff800000106088:	55                   	push   %rbp
ffff800000106089:	48 89 e5             	mov    %rsp,%rbp
ffff80000010608c:	48 83 ec 10          	sub    $0x10,%rsp
ffff800000106090:	48 89 7d f8          	mov    %rdi,-0x8(%rbp)
ffff800000106094:	48 89 75 f0          	mov    %rsi,-0x10(%rbp)
ffff800000106098:	48 8b 45 f8          	mov    -0x8(%rbp),%rax
ffff80000010609c:	48 8b 88 98 00 00 00 	mov    0x98(%rax),%rcx
ffff8000001060a3:	48 8b 45 f8          	mov    -0x8(%rbp),%rax
ffff8000001060a7:	48 8b 90 b0 00 00 00 	mov    0xb0(%rax),%rdx
ffff8000001060ae:	48 8b 45 f0          	mov    -0x10(%rbp),%rax
ffff8000001060b2:	49 89 c9             	mov    %rcx,%r9
ffff8000001060b5:	49 89 d0             	mov    %rdx,%r8
ffff8000001060b8:	48 89 c1             	mov    %rax,%rcx
ffff8000001060bb:	48 ba 88 9b 11 00 00 	movabs $0xffff800000119b88,%rdx
ffff8000001060c2:	80 ff ff 
ffff8000001060c5:	be 00 00 00 00       	mov    $0x0,%esi
ffff8000001060ca:	bf 00 00 ff 00       	mov    $0xff0000,%edi
ffff8000001060cf:	b8 00 00 00 00       	mov    $0x0,%eax
ffff8000001060d4:	49 ba d0 56 10 00 00 	movabs $0xffff8000001056d0,%r10
ffff8000001060db:	80 ff ff 
ffff8000001060de:	41 ff d2             	callq  *%r10
ffff8000001060e1:	eb fe                	jmp    ffff8000001060e1 <do_undefined_opcode+0x59>

ffff8000001060e3 <do_dev_not_available>:
ffff8000001060e3:	55                   	push   %rbp
ffff8000001060e4:	48 89 e5             	mov    %rsp,%rbp
ffff8000001060e7:	48 83 ec 10          	sub    $0x10,%rsp
ffff8000001060eb:	48 89 7d f8          	mov    %rdi,-0x8(%rbp)
ffff8000001060ef:	48 89 75 f0          	mov    %rsi,-0x10(%rbp)
ffff8000001060f3:	48 8b 45 f8          	mov    -0x8(%rbp),%rax
ffff8000001060f7:	48 8b 88 98 00 00 00 	mov    0x98(%rax),%rcx
ffff8000001060fe:	48 8b 45 f8          	mov    -0x8(%rbp),%rax
ffff800000106102:	48 8b 90 b0 00 00 00 	mov    0xb0(%rax),%rdx
ffff800000106109:	48 8b 45 f0          	mov    -0x10(%rbp),%rax
ffff80000010610d:	49 89 c9             	mov    %rcx,%r9
ffff800000106110:	49 89 d0             	mov    %rdx,%r8
ffff800000106113:	48 89 c1             	mov    %rax,%rcx
ffff800000106116:	48 ba d0 9b 11 00 00 	movabs $0xffff800000119bd0,%rdx
ffff80000010611d:	80 ff ff 
ffff800000106120:	be 00 00 00 00       	mov    $0x0,%esi
ffff800000106125:	bf 00 00 ff 00       	mov    $0xff0000,%edi
ffff80000010612a:	b8 00 00 00 00       	mov    $0x0,%eax
ffff80000010612f:	49 ba d0 56 10 00 00 	movabs $0xffff8000001056d0,%r10
ffff800000106136:	80 ff ff 
ffff800000106139:	41 ff d2             	callq  *%r10
ffff80000010613c:	eb fe                	jmp    ffff80000010613c <do_dev_not_available+0x59>

ffff80000010613e <do_double_fault>:
ffff80000010613e:	55                   	push   %rbp
ffff80000010613f:	48 89 e5             	mov    %rsp,%rbp
ffff800000106142:	48 83 ec 10          	sub    $0x10,%rsp
ffff800000106146:	48 89 7d f8          	mov    %rdi,-0x8(%rbp)
ffff80000010614a:	48 89 75 f0          	mov    %rsi,-0x10(%rbp)
ffff80000010614e:	48 8b 45 f8          	mov    -0x8(%rbp),%rax
ffff800000106152:	48 8b 88 98 00 00 00 	mov    0x98(%rax),%rcx
ffff800000106159:	48 8b 45 f8          	mov    -0x8(%rbp),%rax
ffff80000010615d:	48 8b 90 b0 00 00 00 	mov    0xb0(%rax),%rdx
ffff800000106164:	48 8b 45 f0          	mov    -0x10(%rbp),%rax
ffff800000106168:	49 89 c9             	mov    %rcx,%r9
ffff80000010616b:	49 89 d0             	mov    %rdx,%r8
ffff80000010616e:	48 89 c1             	mov    %rax,%rcx
ffff800000106171:	48 ba 18 9c 11 00 00 	movabs $0xffff800000119c18,%rdx
ffff800000106178:	80 ff ff 
ffff80000010617b:	be 00 00 00 00       	mov    $0x0,%esi
ffff800000106180:	bf 00 00 ff 00       	mov    $0xff0000,%edi
ffff800000106185:	b8 00 00 00 00       	mov    $0x0,%eax
ffff80000010618a:	49 ba d0 56 10 00 00 	movabs $0xffff8000001056d0,%r10
ffff800000106191:	80 ff ff 
ffff800000106194:	41 ff d2             	callq  *%r10
ffff800000106197:	eb fe                	jmp    ffff800000106197 <do_double_fault+0x59>

ffff800000106199 <do_coprocessor_segment_overrun>:
ffff800000106199:	55                   	push   %rbp
ffff80000010619a:	48 89 e5             	mov    %rsp,%rbp
ffff80000010619d:	48 83 ec 10          	sub    $0x10,%rsp
ffff8000001061a1:	48 89 7d f8          	mov    %rdi,-0x8(%rbp)
ffff8000001061a5:	48 89 75 f0          	mov    %rsi,-0x10(%rbp)
ffff8000001061a9:	48 8b 45 f8          	mov    -0x8(%rbp),%rax
ffff8000001061ad:	48 8b 88 98 00 00 00 	mov    0x98(%rax),%rcx
ffff8000001061b4:	48 8b 45 f8          	mov    -0x8(%rbp),%rax
ffff8000001061b8:	48 8b 90 b0 00 00 00 	mov    0xb0(%rax),%rdx
ffff8000001061bf:	48 8b 45 f0          	mov    -0x10(%rbp),%rax
ffff8000001061c3:	49 89 c9             	mov    %rcx,%r9
ffff8000001061c6:	49 89 d0             	mov    %rdx,%r8
ffff8000001061c9:	48 89 c1             	mov    %rax,%rcx
ffff8000001061cc:	48 ba 58 9c 11 00 00 	movabs $0xffff800000119c58,%rdx
ffff8000001061d3:	80 ff ff 
ffff8000001061d6:	be 00 00 00 00       	mov    $0x0,%esi
ffff8000001061db:	bf 00 00 ff 00       	mov    $0xff0000,%edi
ffff8000001061e0:	b8 00 00 00 00       	mov    $0x0,%eax
ffff8000001061e5:	49 ba d0 56 10 00 00 	movabs $0xffff8000001056d0,%r10
ffff8000001061ec:	80 ff ff 
ffff8000001061ef:	41 ff d2             	callq  *%r10
ffff8000001061f2:	eb fe                	jmp    ffff8000001061f2 <do_coprocessor_segment_overrun+0x59>

ffff8000001061f4 <do_invalid_TSS>:
ffff8000001061f4:	55                   	push   %rbp
ffff8000001061f5:	48 89 e5             	mov    %rsp,%rbp
ffff8000001061f8:	48 83 ec 10          	sub    $0x10,%rsp
ffff8000001061fc:	48 89 7d f8          	mov    %rdi,-0x8(%rbp)
ffff800000106200:	48 89 75 f0          	mov    %rsi,-0x10(%rbp)
ffff800000106204:	48 8b 45 f8          	mov    -0x8(%rbp),%rax
ffff800000106208:	48 8b 88 98 00 00 00 	mov    0x98(%rax),%rcx
ffff80000010620f:	48 8b 45 f8          	mov    -0x8(%rbp),%rax
ffff800000106213:	48 8b 90 b0 00 00 00 	mov    0xb0(%rax),%rdx
ffff80000010621a:	48 8b 45 f0          	mov    -0x10(%rbp),%rax
ffff80000010621e:	49 89 c9             	mov    %rcx,%r9
ffff800000106221:	49 89 d0             	mov    %rdx,%r8
ffff800000106224:	48 89 c1             	mov    %rax,%rcx
ffff800000106227:	48 ba a8 9c 11 00 00 	movabs $0xffff800000119ca8,%rdx
ffff80000010622e:	80 ff ff 
ffff800000106231:	be 00 00 00 00       	mov    $0x0,%esi
ffff800000106236:	bf 00 00 ff 00       	mov    $0xff0000,%edi
ffff80000010623b:	b8 00 00 00 00       	mov    $0x0,%eax
ffff800000106240:	49 ba d0 56 10 00 00 	movabs $0xffff8000001056d0,%r10
ffff800000106247:	80 ff ff 
ffff80000010624a:	41 ff d2             	callq  *%r10
ffff80000010624d:	48 8b 45 f0          	mov    -0x10(%rbp),%rax
ffff800000106251:	83 e0 01             	and    $0x1,%eax
ffff800000106254:	48 85 c0             	test   %rax,%rax
ffff800000106257:	74 25                	je     ffff80000010627e <do_invalid_TSS+0x8a>
ffff800000106259:	48 ba e8 9c 11 00 00 	movabs $0xffff800000119ce8,%rdx
ffff800000106260:	80 ff ff 
ffff800000106263:	be 00 00 00 00       	mov    $0x0,%esi
ffff800000106268:	bf 00 00 ff 00       	mov    $0xff0000,%edi
ffff80000010626d:	b8 00 00 00 00       	mov    $0x0,%eax
ffff800000106272:	48 b9 d0 56 10 00 00 	movabs $0xffff8000001056d0,%rcx
ffff800000106279:	80 ff ff 
ffff80000010627c:	ff d1                	callq  *%rcx
ffff80000010627e:	48 8b 45 f0          	mov    -0x10(%rbp),%rax
ffff800000106282:	83 e0 02             	and    $0x2,%eax
ffff800000106285:	48 85 c0             	test   %rax,%rax
ffff800000106288:	74 27                	je     ffff8000001062b1 <do_invalid_TSS+0xbd>
ffff80000010628a:	48 ba 68 9d 11 00 00 	movabs $0xffff800000119d68,%rdx
ffff800000106291:	80 ff ff 
ffff800000106294:	be 00 00 00 00       	mov    $0x0,%esi
ffff800000106299:	bf 00 00 ff 00       	mov    $0xff0000,%edi
ffff80000010629e:	b8 00 00 00 00       	mov    $0x0,%eax
ffff8000001062a3:	48 b9 d0 56 10 00 00 	movabs $0xffff8000001056d0,%rcx
ffff8000001062aa:	80 ff ff 
ffff8000001062ad:	ff d1                	callq  *%rcx
ffff8000001062af:	eb 25                	jmp    ffff8000001062d6 <do_invalid_TSS+0xe2>
ffff8000001062b1:	48 ba 98 9d 11 00 00 	movabs $0xffff800000119d98,%rdx
ffff8000001062b8:	80 ff ff 
ffff8000001062bb:	be 00 00 00 00       	mov    $0x0,%esi
ffff8000001062c0:	bf 00 00 ff 00       	mov    $0xff0000,%edi
ffff8000001062c5:	b8 00 00 00 00       	mov    $0x0,%eax
ffff8000001062ca:	48 b9 d0 56 10 00 00 	movabs $0xffff8000001056d0,%rcx
ffff8000001062d1:	80 ff ff 
ffff8000001062d4:	ff d1                	callq  *%rcx
ffff8000001062d6:	48 8b 45 f0          	mov    -0x10(%rbp),%rax
ffff8000001062da:	83 e0 02             	and    $0x2,%eax
ffff8000001062dd:	48 85 c0             	test   %rax,%rax
ffff8000001062e0:	75 58                	jne    ffff80000010633a <do_invalid_TSS+0x146>
ffff8000001062e2:	48 8b 45 f0          	mov    -0x10(%rbp),%rax
ffff8000001062e6:	83 e0 04             	and    $0x4,%eax
ffff8000001062e9:	48 85 c0             	test   %rax,%rax
ffff8000001062ec:	74 27                	je     ffff800000106315 <do_invalid_TSS+0x121>
ffff8000001062ee:	48 ba d0 9d 11 00 00 	movabs $0xffff800000119dd0,%rdx
ffff8000001062f5:	80 ff ff 
ffff8000001062f8:	be 00 00 00 00       	mov    $0x0,%esi
ffff8000001062fd:	bf 00 00 ff 00       	mov    $0xff0000,%edi
ffff800000106302:	b8 00 00 00 00       	mov    $0x0,%eax
ffff800000106307:	48 b9 d0 56 10 00 00 	movabs $0xffff8000001056d0,%rcx
ffff80000010630e:	80 ff ff 
ffff800000106311:	ff d1                	callq  *%rcx
ffff800000106313:	eb 25                	jmp    ffff80000010633a <do_invalid_TSS+0x146>
ffff800000106315:	48 ba 08 9e 11 00 00 	movabs $0xffff800000119e08,%rdx
ffff80000010631c:	80 ff ff 
ffff80000010631f:	be 00 00 00 00       	mov    $0x0,%esi
ffff800000106324:	bf 00 00 ff 00       	mov    $0xff0000,%edi
ffff800000106329:	b8 00 00 00 00       	mov    $0x0,%eax
ffff80000010632e:	48 b9 d0 56 10 00 00 	movabs $0xffff8000001056d0,%rcx
ffff800000106335:	80 ff ff 
ffff800000106338:	ff d1                	callq  *%rcx
ffff80000010633a:	48 8b 45 f0          	mov    -0x10(%rbp),%rax
ffff80000010633e:	25 f8 ff 00 00       	and    $0xfff8,%eax
ffff800000106343:	48 89 c1             	mov    %rax,%rcx
ffff800000106346:	48 ba 38 9e 11 00 00 	movabs $0xffff800000119e38,%rdx
ffff80000010634d:	80 ff ff 
ffff800000106350:	be 00 00 00 00       	mov    $0x0,%esi
ffff800000106355:	bf 00 00 ff 00       	mov    $0xff0000,%edi
ffff80000010635a:	b8 00 00 00 00       	mov    $0x0,%eax
ffff80000010635f:	49 b8 d0 56 10 00 00 	movabs $0xffff8000001056d0,%r8
ffff800000106366:	80 ff ff 
ffff800000106369:	41 ff d0             	callq  *%r8
ffff80000010636c:	eb fe                	jmp    ffff80000010636c <do_invalid_TSS+0x178>

ffff80000010636e <do_segment_not_present>:
ffff80000010636e:	55                   	push   %rbp
ffff80000010636f:	48 89 e5             	mov    %rsp,%rbp
ffff800000106372:	48 83 ec 10          	sub    $0x10,%rsp
ffff800000106376:	48 89 7d f8          	mov    %rdi,-0x8(%rbp)
ffff80000010637a:	48 89 75 f0          	mov    %rsi,-0x10(%rbp)
ffff80000010637e:	48 8b 45 f8          	mov    -0x8(%rbp),%rax
ffff800000106382:	48 8b 88 98 00 00 00 	mov    0x98(%rax),%rcx
ffff800000106389:	48 8b 45 f8          	mov    -0x8(%rbp),%rax
ffff80000010638d:	48 8b 90 b0 00 00 00 	mov    0xb0(%rax),%rdx
ffff800000106394:	48 8b 45 f0          	mov    -0x10(%rbp),%rax
ffff800000106398:	49 89 c9             	mov    %rcx,%r9
ffff80000010639b:	49 89 d0             	mov    %rdx,%r8
ffff80000010639e:	48 89 c1             	mov    %rax,%rcx
ffff8000001063a1:	48 ba 58 9e 11 00 00 	movabs $0xffff800000119e58,%rdx
ffff8000001063a8:	80 ff ff 
ffff8000001063ab:	be 00 00 00 00       	mov    $0x0,%esi
ffff8000001063b0:	bf 00 00 ff 00       	mov    $0xff0000,%edi
ffff8000001063b5:	b8 00 00 00 00       	mov    $0x0,%eax
ffff8000001063ba:	49 ba d0 56 10 00 00 	movabs $0xffff8000001056d0,%r10
ffff8000001063c1:	80 ff ff 
ffff8000001063c4:	41 ff d2             	callq  *%r10
ffff8000001063c7:	48 8b 45 f0          	mov    -0x10(%rbp),%rax
ffff8000001063cb:	83 e0 01             	and    $0x1,%eax
ffff8000001063ce:	48 85 c0             	test   %rax,%rax
ffff8000001063d1:	74 25                	je     ffff8000001063f8 <do_segment_not_present+0x8a>
ffff8000001063d3:	48 ba e8 9c 11 00 00 	movabs $0xffff800000119ce8,%rdx
ffff8000001063da:	80 ff ff 
ffff8000001063dd:	be 00 00 00 00       	mov    $0x0,%esi
ffff8000001063e2:	bf 00 00 ff 00       	mov    $0xff0000,%edi
ffff8000001063e7:	b8 00 00 00 00       	mov    $0x0,%eax
ffff8000001063ec:	48 b9 d0 56 10 00 00 	movabs $0xffff8000001056d0,%rcx
ffff8000001063f3:	80 ff ff 
ffff8000001063f6:	ff d1                	callq  *%rcx
ffff8000001063f8:	48 8b 45 f0          	mov    -0x10(%rbp),%rax
ffff8000001063fc:	83 e0 02             	and    $0x2,%eax
ffff8000001063ff:	48 85 c0             	test   %rax,%rax
ffff800000106402:	74 27                	je     ffff80000010642b <do_segment_not_present+0xbd>
ffff800000106404:	48 ba 68 9d 11 00 00 	movabs $0xffff800000119d68,%rdx
ffff80000010640b:	80 ff ff 
ffff80000010640e:	be 00 00 00 00       	mov    $0x0,%esi
ffff800000106413:	bf 00 00 ff 00       	mov    $0xff0000,%edi
ffff800000106418:	b8 00 00 00 00       	mov    $0x0,%eax
ffff80000010641d:	48 b9 d0 56 10 00 00 	movabs $0xffff8000001056d0,%rcx
ffff800000106424:	80 ff ff 
ffff800000106427:	ff d1                	callq  *%rcx
ffff800000106429:	eb 25                	jmp    ffff800000106450 <do_segment_not_present+0xe2>
ffff80000010642b:	48 ba 98 9d 11 00 00 	movabs $0xffff800000119d98,%rdx
ffff800000106432:	80 ff ff 
ffff800000106435:	be 00 00 00 00       	mov    $0x0,%esi
ffff80000010643a:	bf 00 00 ff 00       	mov    $0xff0000,%edi
ffff80000010643f:	b8 00 00 00 00       	mov    $0x0,%eax
ffff800000106444:	48 b9 d0 56 10 00 00 	movabs $0xffff8000001056d0,%rcx
ffff80000010644b:	80 ff ff 
ffff80000010644e:	ff d1                	callq  *%rcx
ffff800000106450:	48 8b 45 f0          	mov    -0x10(%rbp),%rax
ffff800000106454:	83 e0 02             	and    $0x2,%eax
ffff800000106457:	48 85 c0             	test   %rax,%rax
ffff80000010645a:	75 58                	jne    ffff8000001064b4 <do_segment_not_present+0x146>
ffff80000010645c:	48 8b 45 f0          	mov    -0x10(%rbp),%rax
ffff800000106460:	83 e0 04             	and    $0x4,%eax
ffff800000106463:	48 85 c0             	test   %rax,%rax
ffff800000106466:	74 27                	je     ffff80000010648f <do_segment_not_present+0x121>
ffff800000106468:	48 ba d0 9d 11 00 00 	movabs $0xffff800000119dd0,%rdx
ffff80000010646f:	80 ff ff 
ffff800000106472:	be 00 00 00 00       	mov    $0x0,%esi
ffff800000106477:	bf 00 00 ff 00       	mov    $0xff0000,%edi
ffff80000010647c:	b8 00 00 00 00       	mov    $0x0,%eax
ffff800000106481:	48 b9 d0 56 10 00 00 	movabs $0xffff8000001056d0,%rcx
ffff800000106488:	80 ff ff 
ffff80000010648b:	ff d1                	callq  *%rcx
ffff80000010648d:	eb 25                	jmp    ffff8000001064b4 <do_segment_not_present+0x146>
ffff80000010648f:	48 ba 08 9e 11 00 00 	movabs $0xffff800000119e08,%rdx
ffff800000106496:	80 ff ff 
ffff800000106499:	be 00 00 00 00       	mov    $0x0,%esi
ffff80000010649e:	bf 00 00 ff 00       	mov    $0xff0000,%edi
ffff8000001064a3:	b8 00 00 00 00       	mov    $0x0,%eax
ffff8000001064a8:	48 b9 d0 56 10 00 00 	movabs $0xffff8000001056d0,%rcx
ffff8000001064af:	80 ff ff 
ffff8000001064b2:	ff d1                	callq  *%rcx
ffff8000001064b4:	48 8b 45 f0          	mov    -0x10(%rbp),%rax
ffff8000001064b8:	25 f8 ff 00 00       	and    $0xfff8,%eax
ffff8000001064bd:	48 89 c1             	mov    %rax,%rcx
ffff8000001064c0:	48 ba 38 9e 11 00 00 	movabs $0xffff800000119e38,%rdx
ffff8000001064c7:	80 ff ff 
ffff8000001064ca:	be 00 00 00 00       	mov    $0x0,%esi
ffff8000001064cf:	bf 00 00 ff 00       	mov    $0xff0000,%edi
ffff8000001064d4:	b8 00 00 00 00       	mov    $0x0,%eax
ffff8000001064d9:	49 b8 d0 56 10 00 00 	movabs $0xffff8000001056d0,%r8
ffff8000001064e0:	80 ff ff 
ffff8000001064e3:	41 ff d0             	callq  *%r8
ffff8000001064e6:	eb fe                	jmp    ffff8000001064e6 <do_segment_not_present+0x178>

ffff8000001064e8 <do_stack_segment_fault>:
ffff8000001064e8:	55                   	push   %rbp
ffff8000001064e9:	48 89 e5             	mov    %rsp,%rbp
ffff8000001064ec:	48 83 ec 10          	sub    $0x10,%rsp
ffff8000001064f0:	48 89 7d f8          	mov    %rdi,-0x8(%rbp)
ffff8000001064f4:	48 89 75 f0          	mov    %rsi,-0x10(%rbp)
ffff8000001064f8:	48 8b 45 f8          	mov    -0x8(%rbp),%rax
ffff8000001064fc:	48 8b 88 98 00 00 00 	mov    0x98(%rax),%rcx
ffff800000106503:	48 8b 45 f8          	mov    -0x8(%rbp),%rax
ffff800000106507:	48 8b 90 b0 00 00 00 	mov    0xb0(%rax),%rdx
ffff80000010650e:	48 8b 45 f0          	mov    -0x10(%rbp),%rax
ffff800000106512:	49 89 c9             	mov    %rcx,%r9
ffff800000106515:	49 89 d0             	mov    %rdx,%r8
ffff800000106518:	48 89 c1             	mov    %rax,%rcx
ffff80000010651b:	48 ba a0 9e 11 00 00 	movabs $0xffff800000119ea0,%rdx
ffff800000106522:	80 ff ff 
ffff800000106525:	be 00 00 00 00       	mov    $0x0,%esi
ffff80000010652a:	bf 00 00 ff 00       	mov    $0xff0000,%edi
ffff80000010652f:	b8 00 00 00 00       	mov    $0x0,%eax
ffff800000106534:	49 ba d0 56 10 00 00 	movabs $0xffff8000001056d0,%r10
ffff80000010653b:	80 ff ff 
ffff80000010653e:	41 ff d2             	callq  *%r10
ffff800000106541:	48 8b 45 f0          	mov    -0x10(%rbp),%rax
ffff800000106545:	83 e0 01             	and    $0x1,%eax
ffff800000106548:	48 85 c0             	test   %rax,%rax
ffff80000010654b:	74 25                	je     ffff800000106572 <do_stack_segment_fault+0x8a>
ffff80000010654d:	48 ba e8 9c 11 00 00 	movabs $0xffff800000119ce8,%rdx
ffff800000106554:	80 ff ff 
ffff800000106557:	be 00 00 00 00       	mov    $0x0,%esi
ffff80000010655c:	bf 00 00 ff 00       	mov    $0xff0000,%edi
ffff800000106561:	b8 00 00 00 00       	mov    $0x0,%eax
ffff800000106566:	48 b9 d0 56 10 00 00 	movabs $0xffff8000001056d0,%rcx
ffff80000010656d:	80 ff ff 
ffff800000106570:	ff d1                	callq  *%rcx
ffff800000106572:	48 8b 45 f0          	mov    -0x10(%rbp),%rax
ffff800000106576:	83 e0 02             	and    $0x2,%eax
ffff800000106579:	48 85 c0             	test   %rax,%rax
ffff80000010657c:	74 27                	je     ffff8000001065a5 <do_stack_segment_fault+0xbd>
ffff80000010657e:	48 ba 68 9d 11 00 00 	movabs $0xffff800000119d68,%rdx
ffff800000106585:	80 ff ff 
ffff800000106588:	be 00 00 00 00       	mov    $0x0,%esi
ffff80000010658d:	bf 00 00 ff 00       	mov    $0xff0000,%edi
ffff800000106592:	b8 00 00 00 00       	mov    $0x0,%eax
ffff800000106597:	48 b9 d0 56 10 00 00 	movabs $0xffff8000001056d0,%rcx
ffff80000010659e:	80 ff ff 
ffff8000001065a1:	ff d1                	callq  *%rcx
ffff8000001065a3:	eb 25                	jmp    ffff8000001065ca <do_stack_segment_fault+0xe2>
ffff8000001065a5:	48 ba 98 9d 11 00 00 	movabs $0xffff800000119d98,%rdx
ffff8000001065ac:	80 ff ff 
ffff8000001065af:	be 00 00 00 00       	mov    $0x0,%esi
ffff8000001065b4:	bf 00 00 ff 00       	mov    $0xff0000,%edi
ffff8000001065b9:	b8 00 00 00 00       	mov    $0x0,%eax
ffff8000001065be:	48 b9 d0 56 10 00 00 	movabs $0xffff8000001056d0,%rcx
ffff8000001065c5:	80 ff ff 
ffff8000001065c8:	ff d1                	callq  *%rcx
ffff8000001065ca:	48 8b 45 f0          	mov    -0x10(%rbp),%rax
ffff8000001065ce:	83 e0 02             	and    $0x2,%eax
ffff8000001065d1:	48 85 c0             	test   %rax,%rax
ffff8000001065d4:	75 58                	jne    ffff80000010662e <do_stack_segment_fault+0x146>
ffff8000001065d6:	48 8b 45 f0          	mov    -0x10(%rbp),%rax
ffff8000001065da:	83 e0 04             	and    $0x4,%eax
ffff8000001065dd:	48 85 c0             	test   %rax,%rax
ffff8000001065e0:	74 27                	je     ffff800000106609 <do_stack_segment_fault+0x121>
ffff8000001065e2:	48 ba d0 9d 11 00 00 	movabs $0xffff800000119dd0,%rdx
ffff8000001065e9:	80 ff ff 
ffff8000001065ec:	be 00 00 00 00       	mov    $0x0,%esi
ffff8000001065f1:	bf 00 00 ff 00       	mov    $0xff0000,%edi
ffff8000001065f6:	b8 00 00 00 00       	mov    $0x0,%eax
ffff8000001065fb:	48 b9 d0 56 10 00 00 	movabs $0xffff8000001056d0,%rcx
ffff800000106602:	80 ff ff 
ffff800000106605:	ff d1                	callq  *%rcx
ffff800000106607:	eb 25                	jmp    ffff80000010662e <do_stack_segment_fault+0x146>
ffff800000106609:	48 ba 08 9e 11 00 00 	movabs $0xffff800000119e08,%rdx
ffff800000106610:	80 ff ff 
ffff800000106613:	be 00 00 00 00       	mov    $0x0,%esi
ffff800000106618:	bf 00 00 ff 00       	mov    $0xff0000,%edi
ffff80000010661d:	b8 00 00 00 00       	mov    $0x0,%eax
ffff800000106622:	48 b9 d0 56 10 00 00 	movabs $0xffff8000001056d0,%rcx
ffff800000106629:	80 ff ff 
ffff80000010662c:	ff d1                	callq  *%rcx
ffff80000010662e:	48 8b 45 f0          	mov    -0x10(%rbp),%rax
ffff800000106632:	25 f8 ff 00 00       	and    $0xfff8,%eax
ffff800000106637:	48 89 c1             	mov    %rax,%rcx
ffff80000010663a:	48 ba 38 9e 11 00 00 	movabs $0xffff800000119e38,%rdx
ffff800000106641:	80 ff ff 
ffff800000106644:	be 00 00 00 00       	mov    $0x0,%esi
ffff800000106649:	bf 00 00 ff 00       	mov    $0xff0000,%edi
ffff80000010664e:	b8 00 00 00 00       	mov    $0x0,%eax
ffff800000106653:	49 b8 d0 56 10 00 00 	movabs $0xffff8000001056d0,%r8
ffff80000010665a:	80 ff ff 
ffff80000010665d:	41 ff d0             	callq  *%r8
ffff800000106660:	eb fe                	jmp    ffff800000106660 <do_stack_segment_fault+0x178>

ffff800000106662 <do_general_protection>:
ffff800000106662:	55                   	push   %rbp
ffff800000106663:	48 89 e5             	mov    %rsp,%rbp
ffff800000106666:	48 83 ec 10          	sub    $0x10,%rsp
ffff80000010666a:	48 89 7d f8          	mov    %rdi,-0x8(%rbp)
ffff80000010666e:	48 89 75 f0          	mov    %rsi,-0x10(%rbp)
ffff800000106672:	48 8b 45 f8          	mov    -0x8(%rbp),%rax
ffff800000106676:	48 8b 88 98 00 00 00 	mov    0x98(%rax),%rcx
ffff80000010667d:	48 8b 45 f8          	mov    -0x8(%rbp),%rax
ffff800000106681:	48 8b 90 b0 00 00 00 	mov    0xb0(%rax),%rdx
ffff800000106688:	48 8b 45 f0          	mov    -0x10(%rbp),%rax
ffff80000010668c:	49 89 c9             	mov    %rcx,%r9
ffff80000010668f:	49 89 d0             	mov    %rdx,%r8
ffff800000106692:	48 89 c1             	mov    %rax,%rcx
ffff800000106695:	48 ba e8 9e 11 00 00 	movabs $0xffff800000119ee8,%rdx
ffff80000010669c:	80 ff ff 
ffff80000010669f:	be 00 00 00 00       	mov    $0x0,%esi
ffff8000001066a4:	bf 00 00 ff 00       	mov    $0xff0000,%edi
ffff8000001066a9:	b8 00 00 00 00       	mov    $0x0,%eax
ffff8000001066ae:	49 ba d0 56 10 00 00 	movabs $0xffff8000001056d0,%r10
ffff8000001066b5:	80 ff ff 
ffff8000001066b8:	41 ff d2             	callq  *%r10
ffff8000001066bb:	48 8b 45 f0          	mov    -0x10(%rbp),%rax
ffff8000001066bf:	83 e0 01             	and    $0x1,%eax
ffff8000001066c2:	48 85 c0             	test   %rax,%rax
ffff8000001066c5:	74 25                	je     ffff8000001066ec <do_general_protection+0x8a>
ffff8000001066c7:	48 ba e8 9c 11 00 00 	movabs $0xffff800000119ce8,%rdx
ffff8000001066ce:	80 ff ff 
ffff8000001066d1:	be 00 00 00 00       	mov    $0x0,%esi
ffff8000001066d6:	bf 00 00 ff 00       	mov    $0xff0000,%edi
ffff8000001066db:	b8 00 00 00 00       	mov    $0x0,%eax
ffff8000001066e0:	48 b9 d0 56 10 00 00 	movabs $0xffff8000001056d0,%rcx
ffff8000001066e7:	80 ff ff 
ffff8000001066ea:	ff d1                	callq  *%rcx
ffff8000001066ec:	48 8b 45 f0          	mov    -0x10(%rbp),%rax
ffff8000001066f0:	83 e0 02             	and    $0x2,%eax
ffff8000001066f3:	48 85 c0             	test   %rax,%rax
ffff8000001066f6:	74 27                	je     ffff80000010671f <do_general_protection+0xbd>
ffff8000001066f8:	48 ba 68 9d 11 00 00 	movabs $0xffff800000119d68,%rdx
ffff8000001066ff:	80 ff ff 
ffff800000106702:	be 00 00 00 00       	mov    $0x0,%esi
ffff800000106707:	bf 00 00 ff 00       	mov    $0xff0000,%edi
ffff80000010670c:	b8 00 00 00 00       	mov    $0x0,%eax
ffff800000106711:	48 b9 d0 56 10 00 00 	movabs $0xffff8000001056d0,%rcx
ffff800000106718:	80 ff ff 
ffff80000010671b:	ff d1                	callq  *%rcx
ffff80000010671d:	eb 25                	jmp    ffff800000106744 <do_general_protection+0xe2>
ffff80000010671f:	48 ba 98 9d 11 00 00 	movabs $0xffff800000119d98,%rdx
ffff800000106726:	80 ff ff 
ffff800000106729:	be 00 00 00 00       	mov    $0x0,%esi
ffff80000010672e:	bf 00 00 ff 00       	mov    $0xff0000,%edi
ffff800000106733:	b8 00 00 00 00       	mov    $0x0,%eax
ffff800000106738:	48 b9 d0 56 10 00 00 	movabs $0xffff8000001056d0,%rcx
ffff80000010673f:	80 ff ff 
ffff800000106742:	ff d1                	callq  *%rcx
ffff800000106744:	48 8b 45 f0          	mov    -0x10(%rbp),%rax
ffff800000106748:	83 e0 02             	and    $0x2,%eax
ffff80000010674b:	48 85 c0             	test   %rax,%rax
ffff80000010674e:	75 58                	jne    ffff8000001067a8 <do_general_protection+0x146>
ffff800000106750:	48 8b 45 f0          	mov    -0x10(%rbp),%rax
ffff800000106754:	83 e0 04             	and    $0x4,%eax
ffff800000106757:	48 85 c0             	test   %rax,%rax
ffff80000010675a:	74 27                	je     ffff800000106783 <do_general_protection+0x121>
ffff80000010675c:	48 ba d0 9d 11 00 00 	movabs $0xffff800000119dd0,%rdx
ffff800000106763:	80 ff ff 
ffff800000106766:	be 00 00 00 00       	mov    $0x0,%esi
ffff80000010676b:	bf 00 00 ff 00       	mov    $0xff0000,%edi
ffff800000106770:	b8 00 00 00 00       	mov    $0x0,%eax
ffff800000106775:	48 b9 d0 56 10 00 00 	movabs $0xffff8000001056d0,%rcx
ffff80000010677c:	80 ff ff 
ffff80000010677f:	ff d1                	callq  *%rcx
ffff800000106781:	eb 25                	jmp    ffff8000001067a8 <do_general_protection+0x146>
ffff800000106783:	48 ba 08 9e 11 00 00 	movabs $0xffff800000119e08,%rdx
ffff80000010678a:	80 ff ff 
ffff80000010678d:	be 00 00 00 00       	mov    $0x0,%esi
ffff800000106792:	bf 00 00 ff 00       	mov    $0xff0000,%edi
ffff800000106797:	b8 00 00 00 00       	mov    $0x0,%eax
ffff80000010679c:	48 b9 d0 56 10 00 00 	movabs $0xffff8000001056d0,%rcx
ffff8000001067a3:	80 ff ff 
ffff8000001067a6:	ff d1                	callq  *%rcx
ffff8000001067a8:	48 8b 45 f0          	mov    -0x10(%rbp),%rax
ffff8000001067ac:	25 f8 ff 00 00       	and    $0xfff8,%eax
ffff8000001067b1:	48 89 c1             	mov    %rax,%rcx
ffff8000001067b4:	48 ba 38 9e 11 00 00 	movabs $0xffff800000119e38,%rdx
ffff8000001067bb:	80 ff ff 
ffff8000001067be:	be 00 00 00 00       	mov    $0x0,%esi
ffff8000001067c3:	bf 00 00 ff 00       	mov    $0xff0000,%edi
ffff8000001067c8:	b8 00 00 00 00       	mov    $0x0,%eax
ffff8000001067cd:	49 b8 d0 56 10 00 00 	movabs $0xffff8000001056d0,%r8
ffff8000001067d4:	80 ff ff 
ffff8000001067d7:	41 ff d0             	callq  *%r8
ffff8000001067da:	eb fe                	jmp    ffff8000001067da <do_general_protection+0x178>

ffff8000001067dc <do_page_fault>:
ffff8000001067dc:	55                   	push   %rbp
ffff8000001067dd:	48 89 e5             	mov    %rsp,%rbp
ffff8000001067e0:	48 83 ec 20          	sub    $0x20,%rsp
ffff8000001067e4:	48 89 7d e8          	mov    %rdi,-0x18(%rbp)
ffff8000001067e8:	48 89 75 e0          	mov    %rsi,-0x20(%rbp)
ffff8000001067ec:	48 c7 45 f8 00 00 00 	movq   $0x0,-0x8(%rbp)
ffff8000001067f3:	00 
ffff8000001067f4:	0f 20 d0             	mov    %cr2,%rax
ffff8000001067f7:	48 89 45 f8          	mov    %rax,-0x8(%rbp)
ffff8000001067fb:	48 8b 45 e8          	mov    -0x18(%rbp),%rax
ffff8000001067ff:	48 8b 88 98 00 00 00 	mov    0x98(%rax),%rcx
ffff800000106806:	48 8b 45 e8          	mov    -0x18(%rbp),%rax
ffff80000010680a:	48 8b 90 b0 00 00 00 	mov    0xb0(%rax),%rdx
ffff800000106811:	48 8b 45 e0          	mov    -0x20(%rbp),%rax
ffff800000106815:	49 89 c9             	mov    %rcx,%r9
ffff800000106818:	49 89 d0             	mov    %rdx,%r8
ffff80000010681b:	48 89 c1             	mov    %rax,%rcx
ffff80000010681e:	48 ba 30 9f 11 00 00 	movabs $0xffff800000119f30,%rdx
ffff800000106825:	80 ff ff 
ffff800000106828:	be 00 00 00 00       	mov    $0x0,%esi
ffff80000010682d:	bf 00 00 ff 00       	mov    $0xff0000,%edi
ffff800000106832:	b8 00 00 00 00       	mov    $0x0,%eax
ffff800000106837:	49 ba d0 56 10 00 00 	movabs $0xffff8000001056d0,%r10
ffff80000010683e:	80 ff ff 
ffff800000106841:	41 ff d2             	callq  *%r10
ffff800000106844:	48 8b 45 e0          	mov    -0x20(%rbp),%rax
ffff800000106848:	83 e0 01             	and    $0x1,%eax
ffff80000010684b:	48 85 c0             	test   %rax,%rax
ffff80000010684e:	75 25                	jne    ffff800000106875 <do_page_fault+0x99>
ffff800000106850:	48 ba 6e 9f 11 00 00 	movabs $0xffff800000119f6e,%rdx
ffff800000106857:	80 ff ff 
ffff80000010685a:	be 00 00 00 00       	mov    $0x0,%esi
ffff80000010685f:	bf 00 00 ff 00       	mov    $0xff0000,%edi
ffff800000106864:	b8 00 00 00 00       	mov    $0x0,%eax
ffff800000106869:	48 b9 d0 56 10 00 00 	movabs $0xffff8000001056d0,%rcx
ffff800000106870:	80 ff ff 
ffff800000106873:	ff d1                	callq  *%rcx
ffff800000106875:	48 8b 45 e0          	mov    -0x20(%rbp),%rax
ffff800000106879:	83 e0 02             	and    $0x2,%eax
ffff80000010687c:	48 85 c0             	test   %rax,%rax
ffff80000010687f:	74 27                	je     ffff8000001068a8 <do_page_fault+0xcc>
ffff800000106881:	48 ba 81 9f 11 00 00 	movabs $0xffff800000119f81,%rdx
ffff800000106888:	80 ff ff 
ffff80000010688b:	be 00 00 00 00       	mov    $0x0,%esi
ffff800000106890:	bf 00 00 ff 00       	mov    $0xff0000,%edi
ffff800000106895:	b8 00 00 00 00       	mov    $0x0,%eax
ffff80000010689a:	48 b9 d0 56 10 00 00 	movabs $0xffff8000001056d0,%rcx
ffff8000001068a1:	80 ff ff 
ffff8000001068a4:	ff d1                	callq  *%rcx
ffff8000001068a6:	eb 25                	jmp    ffff8000001068cd <do_page_fault+0xf1>
ffff8000001068a8:	48 ba 95 9f 11 00 00 	movabs $0xffff800000119f95,%rdx
ffff8000001068af:	80 ff ff 
ffff8000001068b2:	be 00 00 00 00       	mov    $0x0,%esi
ffff8000001068b7:	bf 00 00 ff 00       	mov    $0xff0000,%edi
ffff8000001068bc:	b8 00 00 00 00       	mov    $0x0,%eax
ffff8000001068c1:	48 b9 d0 56 10 00 00 	movabs $0xffff8000001056d0,%rcx
ffff8000001068c8:	80 ff ff 
ffff8000001068cb:	ff d1                	callq  *%rcx
ffff8000001068cd:	48 8b 45 e0          	mov    -0x20(%rbp),%rax
ffff8000001068d1:	83 e0 04             	and    $0x4,%eax
ffff8000001068d4:	48 85 c0             	test   %rax,%rax
ffff8000001068d7:	74 27                	je     ffff800000106900 <do_page_fault+0x124>
ffff8000001068d9:	48 ba a8 9f 11 00 00 	movabs $0xffff800000119fa8,%rdx
ffff8000001068e0:	80 ff ff 
ffff8000001068e3:	be 00 00 00 00       	mov    $0x0,%esi
ffff8000001068e8:	bf 00 00 ff 00       	mov    $0xff0000,%edi
ffff8000001068ed:	b8 00 00 00 00       	mov    $0x0,%eax
ffff8000001068f2:	48 b9 d0 56 10 00 00 	movabs $0xffff8000001056d0,%rcx
ffff8000001068f9:	80 ff ff 
ffff8000001068fc:	ff d1                	callq  *%rcx
ffff8000001068fe:	eb 25                	jmp    ffff800000106925 <do_page_fault+0x149>
ffff800000106900:	48 ba ba 9f 11 00 00 	movabs $0xffff800000119fba,%rdx
ffff800000106907:	80 ff ff 
ffff80000010690a:	be 00 00 00 00       	mov    $0x0,%esi
ffff80000010690f:	bf 00 00 ff 00       	mov    $0xff0000,%edi
ffff800000106914:	b8 00 00 00 00       	mov    $0x0,%eax
ffff800000106919:	48 b9 d0 56 10 00 00 	movabs $0xffff8000001056d0,%rcx
ffff800000106920:	80 ff ff 
ffff800000106923:	ff d1                	callq  *%rcx
ffff800000106925:	48 8b 45 e0          	mov    -0x20(%rbp),%rax
ffff800000106929:	83 e0 08             	and    $0x8,%eax
ffff80000010692c:	48 85 c0             	test   %rax,%rax
ffff80000010692f:	74 25                	je     ffff800000106956 <do_page_fault+0x17a>
ffff800000106931:	48 ba d6 9f 11 00 00 	movabs $0xffff800000119fd6,%rdx
ffff800000106938:	80 ff ff 
ffff80000010693b:	be 00 00 00 00       	mov    $0x0,%esi
ffff800000106940:	bf 00 00 ff 00       	mov    $0xff0000,%edi
ffff800000106945:	b8 00 00 00 00       	mov    $0x0,%eax
ffff80000010694a:	48 b9 d0 56 10 00 00 	movabs $0xffff8000001056d0,%rcx
ffff800000106951:	80 ff ff 
ffff800000106954:	ff d1                	callq  *%rcx
ffff800000106956:	48 8b 45 e0          	mov    -0x20(%rbp),%rax
ffff80000010695a:	83 e0 10             	and    $0x10,%eax
ffff80000010695d:	48 85 c0             	test   %rax,%rax
ffff800000106960:	74 25                	je     ffff800000106987 <do_page_fault+0x1ab>
ffff800000106962:	48 ba f8 9f 11 00 00 	movabs $0xffff800000119ff8,%rdx
ffff800000106969:	80 ff ff 
ffff80000010696c:	be 00 00 00 00       	mov    $0x0,%esi
ffff800000106971:	bf 00 00 ff 00       	mov    $0xff0000,%edi
ffff800000106976:	b8 00 00 00 00       	mov    $0x0,%eax
ffff80000010697b:	48 b9 d0 56 10 00 00 	movabs $0xffff8000001056d0,%rcx
ffff800000106982:	80 ff ff 
ffff800000106985:	ff d1                	callq  *%rcx
ffff800000106987:	48 ba 17 a0 11 00 00 	movabs $0xffff80000011a017,%rdx
ffff80000010698e:	80 ff ff 
ffff800000106991:	be 00 00 00 00       	mov    $0x0,%esi
ffff800000106996:	bf 00 00 ff 00       	mov    $0xff0000,%edi
ffff80000010699b:	b8 00 00 00 00       	mov    $0x0,%eax
ffff8000001069a0:	48 b9 d0 56 10 00 00 	movabs $0xffff8000001056d0,%rcx
ffff8000001069a7:	80 ff ff 
ffff8000001069aa:	ff d1                	callq  *%rcx
ffff8000001069ac:	48 8b 45 f8          	mov    -0x8(%rbp),%rax
ffff8000001069b0:	48 89 c1             	mov    %rax,%rcx
ffff8000001069b3:	48 ba 19 a0 11 00 00 	movabs $0xffff80000011a019,%rdx
ffff8000001069ba:	80 ff ff 
ffff8000001069bd:	be 00 00 00 00       	mov    $0x0,%esi
ffff8000001069c2:	bf 00 00 ff 00       	mov    $0xff0000,%edi
ffff8000001069c7:	b8 00 00 00 00       	mov    $0x0,%eax
ffff8000001069cc:	49 b8 d0 56 10 00 00 	movabs $0xffff8000001056d0,%r8
ffff8000001069d3:	80 ff ff 
ffff8000001069d6:	41 ff d0             	callq  *%r8
ffff8000001069d9:	eb fe                	jmp    ffff8000001069d9 <do_page_fault+0x1fd>

ffff8000001069db <do_x87_FPU_error>:
ffff8000001069db:	55                   	push   %rbp
ffff8000001069dc:	48 89 e5             	mov    %rsp,%rbp
ffff8000001069df:	48 83 ec 10          	sub    $0x10,%rsp
ffff8000001069e3:	48 89 7d f8          	mov    %rdi,-0x8(%rbp)
ffff8000001069e7:	48 89 75 f0          	mov    %rsi,-0x10(%rbp)
ffff8000001069eb:	48 8b 45 f8          	mov    -0x8(%rbp),%rax
ffff8000001069ef:	48 8b 88 98 00 00 00 	mov    0x98(%rax),%rcx
ffff8000001069f6:	48 8b 45 f8          	mov    -0x8(%rbp),%rax
ffff8000001069fa:	48 8b 90 b0 00 00 00 	mov    0xb0(%rax),%rdx
ffff800000106a01:	48 8b 45 f0          	mov    -0x10(%rbp),%rax
ffff800000106a05:	49 89 c9             	mov    %rcx,%r9
ffff800000106a08:	49 89 d0             	mov    %rdx,%r8
ffff800000106a0b:	48 89 c1             	mov    %rax,%rcx
ffff800000106a0e:	48 ba 28 a0 11 00 00 	movabs $0xffff80000011a028,%rdx
ffff800000106a15:	80 ff ff 
ffff800000106a18:	be 00 00 00 00       	mov    $0x0,%esi
ffff800000106a1d:	bf 00 00 ff 00       	mov    $0xff0000,%edi
ffff800000106a22:	b8 00 00 00 00       	mov    $0x0,%eax
ffff800000106a27:	49 ba d0 56 10 00 00 	movabs $0xffff8000001056d0,%r10
ffff800000106a2e:	80 ff ff 
ffff800000106a31:	41 ff d2             	callq  *%r10
ffff800000106a34:	eb fe                	jmp    ffff800000106a34 <do_x87_FPU_error+0x59>

ffff800000106a36 <do_alignment_check>:
ffff800000106a36:	55                   	push   %rbp
ffff800000106a37:	48 89 e5             	mov    %rsp,%rbp
ffff800000106a3a:	48 83 ec 10          	sub    $0x10,%rsp
ffff800000106a3e:	48 89 7d f8          	mov    %rdi,-0x8(%rbp)
ffff800000106a42:	48 89 75 f0          	mov    %rsi,-0x10(%rbp)
ffff800000106a46:	48 8b 45 f8          	mov    -0x8(%rbp),%rax
ffff800000106a4a:	48 8b 88 98 00 00 00 	mov    0x98(%rax),%rcx
ffff800000106a51:	48 8b 45 f8          	mov    -0x8(%rbp),%rax
ffff800000106a55:	48 8b 90 b0 00 00 00 	mov    0xb0(%rax),%rdx
ffff800000106a5c:	48 8b 45 f0          	mov    -0x10(%rbp),%rax
ffff800000106a60:	49 89 c9             	mov    %rcx,%r9
ffff800000106a63:	49 89 d0             	mov    %rdx,%r8
ffff800000106a66:	48 89 c1             	mov    %rax,%rcx
ffff800000106a69:	48 ba 70 a0 11 00 00 	movabs $0xffff80000011a070,%rdx
ffff800000106a70:	80 ff ff 
ffff800000106a73:	be 00 00 00 00       	mov    $0x0,%esi
ffff800000106a78:	bf 00 00 ff 00       	mov    $0xff0000,%edi
ffff800000106a7d:	b8 00 00 00 00       	mov    $0x0,%eax
ffff800000106a82:	49 ba d0 56 10 00 00 	movabs $0xffff8000001056d0,%r10
ffff800000106a89:	80 ff ff 
ffff800000106a8c:	41 ff d2             	callq  *%r10
ffff800000106a8f:	eb fe                	jmp    ffff800000106a8f <do_alignment_check+0x59>

ffff800000106a91 <do_machine_check>:
ffff800000106a91:	55                   	push   %rbp
ffff800000106a92:	48 89 e5             	mov    %rsp,%rbp
ffff800000106a95:	48 83 ec 10          	sub    $0x10,%rsp
ffff800000106a99:	48 89 7d f8          	mov    %rdi,-0x8(%rbp)
ffff800000106a9d:	48 89 75 f0          	mov    %rsi,-0x10(%rbp)
ffff800000106aa1:	48 8b 45 f8          	mov    -0x8(%rbp),%rax
ffff800000106aa5:	48 8b 88 98 00 00 00 	mov    0x98(%rax),%rcx
ffff800000106aac:	48 8b 45 f8          	mov    -0x8(%rbp),%rax
ffff800000106ab0:	48 8b 90 b0 00 00 00 	mov    0xb0(%rax),%rdx
ffff800000106ab7:	48 8b 45 f0          	mov    -0x10(%rbp),%rax
ffff800000106abb:	49 89 c9             	mov    %rcx,%r9
ffff800000106abe:	49 89 d0             	mov    %rdx,%r8
ffff800000106ac1:	48 89 c1             	mov    %rax,%rcx
ffff800000106ac4:	48 ba b8 a0 11 00 00 	movabs $0xffff80000011a0b8,%rdx
ffff800000106acb:	80 ff ff 
ffff800000106ace:	be 00 00 00 00       	mov    $0x0,%esi
ffff800000106ad3:	bf 00 00 ff 00       	mov    $0xff0000,%edi
ffff800000106ad8:	b8 00 00 00 00       	mov    $0x0,%eax
ffff800000106add:	49 ba d0 56 10 00 00 	movabs $0xffff8000001056d0,%r10
ffff800000106ae4:	80 ff ff 
ffff800000106ae7:	41 ff d2             	callq  *%r10
ffff800000106aea:	eb fe                	jmp    ffff800000106aea <do_machine_check+0x59>

ffff800000106aec <do_SIMD_exception>:
ffff800000106aec:	55                   	push   %rbp
ffff800000106aed:	48 89 e5             	mov    %rsp,%rbp
ffff800000106af0:	48 83 ec 10          	sub    $0x10,%rsp
ffff800000106af4:	48 89 7d f8          	mov    %rdi,-0x8(%rbp)
ffff800000106af8:	48 89 75 f0          	mov    %rsi,-0x10(%rbp)
ffff800000106afc:	48 8b 45 f8          	mov    -0x8(%rbp),%rax
ffff800000106b00:	48 8b 88 98 00 00 00 	mov    0x98(%rax),%rcx
ffff800000106b07:	48 8b 45 f8          	mov    -0x8(%rbp),%rax
ffff800000106b0b:	48 8b 90 b0 00 00 00 	mov    0xb0(%rax),%rdx
ffff800000106b12:	48 8b 45 f0          	mov    -0x10(%rbp),%rax
ffff800000106b16:	49 89 c9             	mov    %rcx,%r9
ffff800000106b19:	49 89 d0             	mov    %rdx,%r8
ffff800000106b1c:	48 89 c1             	mov    %rax,%rcx
ffff800000106b1f:	48 ba 00 a1 11 00 00 	movabs $0xffff80000011a100,%rdx
ffff800000106b26:	80 ff ff 
ffff800000106b29:	be 00 00 00 00       	mov    $0x0,%esi
ffff800000106b2e:	bf 00 00 ff 00       	mov    $0xff0000,%edi
ffff800000106b33:	b8 00 00 00 00       	mov    $0x0,%eax
ffff800000106b38:	49 ba d0 56 10 00 00 	movabs $0xffff8000001056d0,%r10
ffff800000106b3f:	80 ff ff 
ffff800000106b42:	41 ff d2             	callq  *%r10
ffff800000106b45:	eb fe                	jmp    ffff800000106b45 <do_SIMD_exception+0x59>

ffff800000106b47 <do_virtualization_exception>:
ffff800000106b47:	55                   	push   %rbp
ffff800000106b48:	48 89 e5             	mov    %rsp,%rbp
ffff800000106b4b:	48 83 ec 10          	sub    $0x10,%rsp
ffff800000106b4f:	48 89 7d f8          	mov    %rdi,-0x8(%rbp)
ffff800000106b53:	48 89 75 f0          	mov    %rsi,-0x10(%rbp)
ffff800000106b57:	48 8b 45 f8          	mov    -0x8(%rbp),%rax
ffff800000106b5b:	48 8b 88 98 00 00 00 	mov    0x98(%rax),%rcx
ffff800000106b62:	48 8b 45 f8          	mov    -0x8(%rbp),%rax
ffff800000106b66:	48 8b 90 b0 00 00 00 	mov    0xb0(%rax),%rdx
ffff800000106b6d:	48 8b 45 f0          	mov    -0x10(%rbp),%rax
ffff800000106b71:	49 89 c9             	mov    %rcx,%r9
ffff800000106b74:	49 89 d0             	mov    %rdx,%r8
ffff800000106b77:	48 89 c1             	mov    %rax,%rcx
ffff800000106b7a:	48 ba 48 a1 11 00 00 	movabs $0xffff80000011a148,%rdx
ffff800000106b81:	80 ff ff 
ffff800000106b84:	be 00 00 00 00       	mov    $0x0,%esi
ffff800000106b89:	bf 00 00 ff 00       	mov    $0xff0000,%edi
ffff800000106b8e:	b8 00 00 00 00       	mov    $0x0,%eax
ffff800000106b93:	49 ba d0 56 10 00 00 	movabs $0xffff8000001056d0,%r10
ffff800000106b9a:	80 ff ff 
ffff800000106b9d:	41 ff d2             	callq  *%r10
ffff800000106ba0:	eb fe                	jmp    ffff800000106ba0 <do_virtualization_exception+0x59>

ffff800000106ba2 <sys_vector_init>:
ffff800000106ba2:	55                   	push   %rbp
ffff800000106ba3:	48 89 e5             	mov    %rsp,%rbp
ffff800000106ba6:	48 ba 92 40 10 00 00 	movabs $0xffff800000104092,%rdx
ffff800000106bad:	80 ff ff 
ffff800000106bb0:	be 01 00 00 00       	mov    $0x1,%esi
ffff800000106bb5:	bf 00 00 00 00       	mov    $0x0,%edi
ffff800000106bba:	48 b8 90 5c 10 00 00 	movabs $0xffff800000105c90,%rax
ffff800000106bc1:	80 ff ff 
ffff800000106bc4:	ff d0                	callq  *%rax
ffff800000106bc6:	48 ba ea 40 10 00 00 	movabs $0xffff8000001040ea,%rdx
ffff800000106bcd:	80 ff ff 
ffff800000106bd0:	be 01 00 00 00       	mov    $0x1,%esi
ffff800000106bd5:	bf 01 00 00 00       	mov    $0x1,%edi
ffff800000106bda:	48 b8 90 5c 10 00 00 	movabs $0xffff800000105c90,%rax
ffff800000106be1:	80 ff ff 
ffff800000106be4:	ff d0                	callq  *%rax
ffff800000106be6:	48 ba fa 40 10 00 00 	movabs $0xffff8000001040fa,%rdx
ffff800000106bed:	80 ff ff 
ffff800000106bf0:	be 01 00 00 00       	mov    $0x1,%esi
ffff800000106bf5:	bf 02 00 00 00       	mov    $0x2,%edi
ffff800000106bfa:	48 b8 09 5c 10 00 00 	movabs $0xffff800000105c09,%rax
ffff800000106c01:	80 ff ff 
ffff800000106c04:	ff d0                	callq  *%rax
ffff800000106c06:	48 ba 40 41 10 00 00 	movabs $0xffff800000104140,%rdx
ffff800000106c0d:	80 ff ff 
ffff800000106c10:	be 01 00 00 00       	mov    $0x1,%esi
ffff800000106c15:	bf 03 00 00 00       	mov    $0x3,%edi
ffff800000106c1a:	48 b8 17 5d 10 00 00 	movabs $0xffff800000105d17,%rax
ffff800000106c21:	80 ff ff 
ffff800000106c24:	ff d0                	callq  *%rax
ffff800000106c26:	48 ba 53 41 10 00 00 	movabs $0xffff800000104153,%rdx
ffff800000106c2d:	80 ff ff 
ffff800000106c30:	be 01 00 00 00       	mov    $0x1,%esi
ffff800000106c35:	bf 04 00 00 00       	mov    $0x4,%edi
ffff800000106c3a:	48 b8 17 5d 10 00 00 	movabs $0xffff800000105d17,%rax
ffff800000106c41:	80 ff ff 
ffff800000106c44:	ff d0                	callq  *%rax
ffff800000106c46:	48 ba 66 41 10 00 00 	movabs $0xffff800000104166,%rdx
ffff800000106c4d:	80 ff ff 
ffff800000106c50:	be 01 00 00 00       	mov    $0x1,%esi
ffff800000106c55:	bf 05 00 00 00       	mov    $0x5,%edi
ffff800000106c5a:	48 b8 17 5d 10 00 00 	movabs $0xffff800000105d17,%rax
ffff800000106c61:	80 ff ff 
ffff800000106c64:	ff d0                	callq  *%rax
ffff800000106c66:	48 ba 79 41 10 00 00 	movabs $0xffff800000104179,%rdx
ffff800000106c6d:	80 ff ff 
ffff800000106c70:	be 01 00 00 00       	mov    $0x1,%esi
ffff800000106c75:	bf 06 00 00 00       	mov    $0x6,%edi
ffff800000106c7a:	48 b8 90 5c 10 00 00 	movabs $0xffff800000105c90,%rax
ffff800000106c81:	80 ff ff 
ffff800000106c84:	ff d0                	callq  *%rax
ffff800000106c86:	48 ba 8c 41 10 00 00 	movabs $0xffff80000010418c,%rdx
ffff800000106c8d:	80 ff ff 
ffff800000106c90:	be 01 00 00 00       	mov    $0x1,%esi
ffff800000106c95:	bf 07 00 00 00       	mov    $0x7,%edi
ffff800000106c9a:	48 b8 90 5c 10 00 00 	movabs $0xffff800000105c90,%rax
ffff800000106ca1:	80 ff ff 
ffff800000106ca4:	ff d0                	callq  *%rax
ffff800000106ca6:	48 ba 9f 41 10 00 00 	movabs $0xffff80000010419f,%rdx
ffff800000106cad:	80 ff ff 
ffff800000106cb0:	be 01 00 00 00       	mov    $0x1,%esi
ffff800000106cb5:	bf 08 00 00 00       	mov    $0x8,%edi
ffff800000106cba:	48 b8 90 5c 10 00 00 	movabs $0xffff800000105c90,%rax
ffff800000106cc1:	80 ff ff 
ffff800000106cc4:	ff d0                	callq  *%rax
ffff800000106cc6:	48 ba b0 41 10 00 00 	movabs $0xffff8000001041b0,%rdx
ffff800000106ccd:	80 ff ff 
ffff800000106cd0:	be 01 00 00 00       	mov    $0x1,%esi
ffff800000106cd5:	bf 09 00 00 00       	mov    $0x9,%edi
ffff800000106cda:	48 b8 90 5c 10 00 00 	movabs $0xffff800000105c90,%rax
ffff800000106ce1:	80 ff ff 
ffff800000106ce4:	ff d0                	callq  *%rax
ffff800000106ce6:	48 ba c3 41 10 00 00 	movabs $0xffff8000001041c3,%rdx
ffff800000106ced:	80 ff ff 
ffff800000106cf0:	be 01 00 00 00       	mov    $0x1,%esi
ffff800000106cf5:	bf 0a 00 00 00       	mov    $0xa,%edi
ffff800000106cfa:	48 b8 90 5c 10 00 00 	movabs $0xffff800000105c90,%rax
ffff800000106d01:	80 ff ff 
ffff800000106d04:	ff d0                	callq  *%rax
ffff800000106d06:	48 ba d4 41 10 00 00 	movabs $0xffff8000001041d4,%rdx
ffff800000106d0d:	80 ff ff 
ffff800000106d10:	be 01 00 00 00       	mov    $0x1,%esi
ffff800000106d15:	bf 0b 00 00 00       	mov    $0xb,%edi
ffff800000106d1a:	48 b8 90 5c 10 00 00 	movabs $0xffff800000105c90,%rax
ffff800000106d21:	80 ff ff 
ffff800000106d24:	ff d0                	callq  *%rax
ffff800000106d26:	48 ba e5 41 10 00 00 	movabs $0xffff8000001041e5,%rdx
ffff800000106d2d:	80 ff ff 
ffff800000106d30:	be 01 00 00 00       	mov    $0x1,%esi
ffff800000106d35:	bf 0c 00 00 00       	mov    $0xc,%edi
ffff800000106d3a:	48 b8 90 5c 10 00 00 	movabs $0xffff800000105c90,%rax
ffff800000106d41:	80 ff ff 
ffff800000106d44:	ff d0                	callq  *%rax
ffff800000106d46:	48 ba f6 41 10 00 00 	movabs $0xffff8000001041f6,%rdx
ffff800000106d4d:	80 ff ff 
ffff800000106d50:	be 01 00 00 00       	mov    $0x1,%esi
ffff800000106d55:	bf 0d 00 00 00       	mov    $0xd,%edi
ffff800000106d5a:	48 b8 90 5c 10 00 00 	movabs $0xffff800000105c90,%rax
ffff800000106d61:	80 ff ff 
ffff800000106d64:	ff d0                	callq  *%rax
ffff800000106d66:	48 ba 07 42 10 00 00 	movabs $0xffff800000104207,%rdx
ffff800000106d6d:	80 ff ff 
ffff800000106d70:	be 01 00 00 00       	mov    $0x1,%esi
ffff800000106d75:	bf 0e 00 00 00       	mov    $0xe,%edi
ffff800000106d7a:	48 b8 90 5c 10 00 00 	movabs $0xffff800000105c90,%rax
ffff800000106d81:	80 ff ff 
ffff800000106d84:	ff d0                	callq  *%rax
ffff800000106d86:	48 ba 18 42 10 00 00 	movabs $0xffff800000104218,%rdx
ffff800000106d8d:	80 ff ff 
ffff800000106d90:	be 01 00 00 00       	mov    $0x1,%esi
ffff800000106d95:	bf 10 00 00 00       	mov    $0x10,%edi
ffff800000106d9a:	48 b8 90 5c 10 00 00 	movabs $0xffff800000105c90,%rax
ffff800000106da1:	80 ff ff 
ffff800000106da4:	ff d0                	callq  *%rax
ffff800000106da6:	48 ba 2b 42 10 00 00 	movabs $0xffff80000010422b,%rdx
ffff800000106dad:	80 ff ff 
ffff800000106db0:	be 01 00 00 00       	mov    $0x1,%esi
ffff800000106db5:	bf 11 00 00 00       	mov    $0x11,%edi
ffff800000106dba:	48 b8 90 5c 10 00 00 	movabs $0xffff800000105c90,%rax
ffff800000106dc1:	80 ff ff 
ffff800000106dc4:	ff d0                	callq  *%rax
ffff800000106dc6:	48 ba 3c 42 10 00 00 	movabs $0xffff80000010423c,%rdx
ffff800000106dcd:	80 ff ff 
ffff800000106dd0:	be 01 00 00 00       	mov    $0x1,%esi
ffff800000106dd5:	bf 12 00 00 00       	mov    $0x12,%edi
ffff800000106dda:	48 b8 90 5c 10 00 00 	movabs $0xffff800000105c90,%rax
ffff800000106de1:	80 ff ff 
ffff800000106de4:	ff d0                	callq  *%rax
ffff800000106de6:	48 ba 4f 42 10 00 00 	movabs $0xffff80000010424f,%rdx
ffff800000106ded:	80 ff ff 
ffff800000106df0:	be 01 00 00 00       	mov    $0x1,%esi
ffff800000106df5:	bf 13 00 00 00       	mov    $0x13,%edi
ffff800000106dfa:	48 b8 90 5c 10 00 00 	movabs $0xffff800000105c90,%rax
ffff800000106e01:	80 ff ff 
ffff800000106e04:	ff d0                	callq  *%rax
ffff800000106e06:	48 ba 62 42 10 00 00 	movabs $0xffff800000104262,%rdx
ffff800000106e0d:	80 ff ff 
ffff800000106e10:	be 01 00 00 00       	mov    $0x1,%esi
ffff800000106e15:	bf 14 00 00 00       	mov    $0x14,%edi
ffff800000106e1a:	48 b8 90 5c 10 00 00 	movabs $0xffff800000105c90,%rax
ffff800000106e21:	80 ff ff 
ffff800000106e24:	ff d0                	callq  *%rax
ffff800000106e26:	5d                   	pop    %rbp
ffff800000106e27:	c3                   	retq   

ffff800000106e28 <list_init>:
ffff800000106e28:	55                   	push   %rbp
ffff800000106e29:	48 89 e5             	mov    %rsp,%rbp
ffff800000106e2c:	48 89 7d f8          	mov    %rdi,-0x8(%rbp)
ffff800000106e30:	48 8b 45 f8          	mov    -0x8(%rbp),%rax
ffff800000106e34:	48 8b 55 f8          	mov    -0x8(%rbp),%rdx
ffff800000106e38:	48 89 10             	mov    %rdx,(%rax)
ffff800000106e3b:	48 8b 45 f8          	mov    -0x8(%rbp),%rax
ffff800000106e3f:	48 8b 55 f8          	mov    -0x8(%rbp),%rdx
ffff800000106e43:	48 89 50 08          	mov    %rdx,0x8(%rax)
ffff800000106e47:	5d                   	pop    %rbp
ffff800000106e48:	c3                   	retq   

ffff800000106e49 <list_add_to_behind>:
ffff800000106e49:	55                   	push   %rbp
ffff800000106e4a:	48 89 e5             	mov    %rsp,%rbp
ffff800000106e4d:	48 89 7d f8          	mov    %rdi,-0x8(%rbp)
ffff800000106e51:	48 89 75 f0          	mov    %rsi,-0x10(%rbp)
ffff800000106e55:	48 8b 45 f8          	mov    -0x8(%rbp),%rax
ffff800000106e59:	48 8b 50 08          	mov    0x8(%rax),%rdx
ffff800000106e5d:	48 8b 45 f0          	mov    -0x10(%rbp),%rax
ffff800000106e61:	48 89 50 08          	mov    %rdx,0x8(%rax)
ffff800000106e65:	48 8b 45 f0          	mov    -0x10(%rbp),%rax
ffff800000106e69:	48 8b 55 f8          	mov    -0x8(%rbp),%rdx
ffff800000106e6d:	48 89 10             	mov    %rdx,(%rax)
ffff800000106e70:	48 8b 45 f0          	mov    -0x10(%rbp),%rax
ffff800000106e74:	48 8b 40 08          	mov    0x8(%rax),%rax
ffff800000106e78:	48 8b 55 f0          	mov    -0x10(%rbp),%rdx
ffff800000106e7c:	48 89 10             	mov    %rdx,(%rax)
ffff800000106e7f:	48 8b 45 f8          	mov    -0x8(%rbp),%rax
ffff800000106e83:	48 8b 55 f0          	mov    -0x10(%rbp),%rdx
ffff800000106e87:	48 89 50 08          	mov    %rdx,0x8(%rax)
ffff800000106e8b:	5d                   	pop    %rbp
ffff800000106e8c:	c3                   	retq   

ffff800000106e8d <list_add_to_before>:
ffff800000106e8d:	55                   	push   %rbp
ffff800000106e8e:	48 89 e5             	mov    %rsp,%rbp
ffff800000106e91:	48 89 7d f8          	mov    %rdi,-0x8(%rbp)
ffff800000106e95:	48 89 75 f0          	mov    %rsi,-0x10(%rbp)
ffff800000106e99:	48 8b 45 f0          	mov    -0x10(%rbp),%rax
ffff800000106e9d:	48 8b 55 f8          	mov    -0x8(%rbp),%rdx
ffff800000106ea1:	48 89 50 08          	mov    %rdx,0x8(%rax)
ffff800000106ea5:	48 8b 45 f8          	mov    -0x8(%rbp),%rax
ffff800000106ea9:	48 8b 00             	mov    (%rax),%rax
ffff800000106eac:	48 8b 55 f0          	mov    -0x10(%rbp),%rdx
ffff800000106eb0:	48 89 50 08          	mov    %rdx,0x8(%rax)
ffff800000106eb4:	48 8b 45 f8          	mov    -0x8(%rbp),%rax
ffff800000106eb8:	48 8b 10             	mov    (%rax),%rdx
ffff800000106ebb:	48 8b 45 f0          	mov    -0x10(%rbp),%rax
ffff800000106ebf:	48 89 10             	mov    %rdx,(%rax)
ffff800000106ec2:	48 8b 45 f8          	mov    -0x8(%rbp),%rax
ffff800000106ec6:	48 8b 55 f0          	mov    -0x10(%rbp),%rdx
ffff800000106eca:	48 89 10             	mov    %rdx,(%rax)
ffff800000106ecd:	5d                   	pop    %rbp
ffff800000106ece:	c3                   	retq   

ffff800000106ecf <list_del>:
ffff800000106ecf:	55                   	push   %rbp
ffff800000106ed0:	48 89 e5             	mov    %rsp,%rbp
ffff800000106ed3:	48 89 7d f8          	mov    %rdi,-0x8(%rbp)
ffff800000106ed7:	48 8b 45 f8          	mov    -0x8(%rbp),%rax
ffff800000106edb:	48 8b 40 08          	mov    0x8(%rax),%rax
ffff800000106edf:	48 8b 55 f8          	mov    -0x8(%rbp),%rdx
ffff800000106ee3:	48 8b 12             	mov    (%rdx),%rdx
ffff800000106ee6:	48 89 10             	mov    %rdx,(%rax)
ffff800000106ee9:	48 8b 45 f8          	mov    -0x8(%rbp),%rax
ffff800000106eed:	48 8b 00             	mov    (%rax),%rax
ffff800000106ef0:	48 8b 55 f8          	mov    -0x8(%rbp),%rdx
ffff800000106ef4:	48 8b 52 08          	mov    0x8(%rdx),%rdx
ffff800000106ef8:	48 89 50 08          	mov    %rdx,0x8(%rax)
ffff800000106efc:	5d                   	pop    %rbp
ffff800000106efd:	c3                   	retq   

ffff800000106efe <list_is_empty>:
ffff800000106efe:	55                   	push   %rbp
ffff800000106eff:	48 89 e5             	mov    %rsp,%rbp
ffff800000106f02:	48 89 7d f8          	mov    %rdi,-0x8(%rbp)
ffff800000106f06:	48 8b 45 f8          	mov    -0x8(%rbp),%rax
ffff800000106f0a:	48 8b 40 08          	mov    0x8(%rax),%rax
ffff800000106f0e:	48 3b 45 f8          	cmp    -0x8(%rbp),%rax
ffff800000106f12:	75 14                	jne    ffff800000106f28 <list_is_empty+0x2a>
ffff800000106f14:	48 8b 45 f8          	mov    -0x8(%rbp),%rax
ffff800000106f18:	48 8b 00             	mov    (%rax),%rax
ffff800000106f1b:	48 3b 45 f8          	cmp    -0x8(%rbp),%rax
ffff800000106f1f:	75 07                	jne    ffff800000106f28 <list_is_empty+0x2a>
ffff800000106f21:	b8 01 00 00 00       	mov    $0x1,%eax
ffff800000106f26:	eb 05                	jmp    ffff800000106f2d <list_is_empty+0x2f>
ffff800000106f28:	b8 00 00 00 00       	mov    $0x0,%eax
ffff800000106f2d:	5d                   	pop    %rbp
ffff800000106f2e:	c3                   	retq   

ffff800000106f2f <list_next>:
ffff800000106f2f:	55                   	push   %rbp
ffff800000106f30:	48 89 e5             	mov    %rsp,%rbp
ffff800000106f33:	48 89 7d f8          	mov    %rdi,-0x8(%rbp)
ffff800000106f37:	48 8b 45 f8          	mov    -0x8(%rbp),%rax
ffff800000106f3b:	48 8b 40 08          	mov    0x8(%rax),%rax
ffff800000106f3f:	48 85 c0             	test   %rax,%rax
ffff800000106f42:	74 0a                	je     ffff800000106f4e <list_next+0x1f>
ffff800000106f44:	48 8b 45 f8          	mov    -0x8(%rbp),%rax
ffff800000106f48:	48 8b 40 08          	mov    0x8(%rax),%rax
ffff800000106f4c:	eb 05                	jmp    ffff800000106f53 <list_next+0x24>
ffff800000106f4e:	b8 00 00 00 00       	mov    $0x0,%eax
ffff800000106f53:	5d                   	pop    %rbp
ffff800000106f54:	c3                   	retq   

ffff800000106f55 <memset>:
ffff800000106f55:	55                   	push   %rbp
ffff800000106f56:	48 89 e5             	mov    %rsp,%rbp
ffff800000106f59:	48 89 7d e8          	mov    %rdi,-0x18(%rbp)
ffff800000106f5d:	89 f0                	mov    %esi,%eax
ffff800000106f5f:	48 89 55 d8          	mov    %rdx,-0x28(%rbp)
ffff800000106f63:	88 45 e4             	mov    %al,-0x1c(%rbp)
ffff800000106f66:	0f b6 55 e4          	movzbl -0x1c(%rbp),%edx
ffff800000106f6a:	48 b8 01 01 01 01 01 	movabs $0x101010101010101,%rax
ffff800000106f71:	01 01 01 
ffff800000106f74:	48 0f af c2          	imul   %rdx,%rax
ffff800000106f78:	48 89 45 f8          	mov    %rax,-0x8(%rbp)
ffff800000106f7c:	48 8b 45 d8          	mov    -0x28(%rbp),%rax
ffff800000106f80:	48 8d 50 07          	lea    0x7(%rax),%rdx
ffff800000106f84:	48 85 c0             	test   %rax,%rax
ffff800000106f87:	48 0f 48 c2          	cmovs  %rdx,%rax
ffff800000106f8b:	48 c1 f8 03          	sar    $0x3,%rax
ffff800000106f8f:	48 89 c2             	mov    %rax,%rdx
ffff800000106f92:	48 8b 45 f8          	mov    -0x8(%rbp),%rax
ffff800000106f96:	48 8b 75 d8          	mov    -0x28(%rbp),%rsi
ffff800000106f9a:	48 8b 7d e8          	mov    -0x18(%rbp),%rdi
ffff800000106f9e:	48 89 d1             	mov    %rdx,%rcx
ffff800000106fa1:	fc                   	cld    
ffff800000106fa2:	f3 48 ab             	rep stos %rax,%es:(%rdi)
ffff800000106fa5:	40 f6 c6 04          	test   $0x4,%sil
ffff800000106fa9:	74 01                	je     ffff800000106fac <memset+0x57>
ffff800000106fab:	ab                   	stos   %eax,%es:(%rdi)
ffff800000106fac:	40 f6 c6 02          	test   $0x2,%sil
ffff800000106fb0:	74 02                	je     ffff800000106fb4 <memset+0x5f>
ffff800000106fb2:	66 ab                	stos   %ax,%es:(%rdi)
ffff800000106fb4:	40 f6 c6 01          	test   $0x1,%sil
ffff800000106fb8:	74 01                	je     ffff800000106fbb <memset+0x66>
ffff800000106fba:	aa                   	stos   %al,%es:(%rdi)
ffff800000106fbb:	89 f8                	mov    %edi,%eax
ffff800000106fbd:	89 ca                	mov    %ecx,%edx
ffff800000106fbf:	89 55 f4             	mov    %edx,-0xc(%rbp)
ffff800000106fc2:	89 45 f0             	mov    %eax,-0x10(%rbp)
ffff800000106fc5:	48 8b 45 e8          	mov    -0x18(%rbp),%rax
ffff800000106fc9:	5d                   	pop    %rbp
ffff800000106fca:	c3                   	retq   
ffff800000106fcb:	55                   	push   %rbp
ffff800000106fcc:	48 89 e5             	mov    %rsp,%rbp
ffff800000106fcf:	0f 20 d8             	mov    %cr3,%rax
ffff800000106fd2:	48 89 45 f8          	mov    %rax,-0x8(%rbp)
ffff800000106fd6:	48 8b 45 f8          	mov    -0x8(%rbp),%rax
ffff800000106fda:	5d                   	pop    %rbp
ffff800000106fdb:	c3                   	retq   

ffff800000106fdc <page_init>:
ffff800000106fdc:	55                   	push   %rbp
ffff800000106fdd:	48 89 e5             	mov    %rsp,%rbp
ffff800000106fe0:	48 89 7d f8          	mov    %rdi,-0x8(%rbp)
ffff800000106fe4:	48 89 75 f0          	mov    %rsi,-0x10(%rbp)
ffff800000106fe8:	48 8b 45 f8          	mov    -0x8(%rbp),%rax
ffff800000106fec:	48 8b 40 10          	mov    0x10(%rax),%rax
ffff800000106ff0:	48 0b 45 f0          	or     -0x10(%rbp),%rax
ffff800000106ff4:	48 89 c2             	mov    %rax,%rdx
ffff800000106ff7:	48 8b 45 f8          	mov    -0x8(%rbp),%rax
ffff800000106ffb:	48 89 50 10          	mov    %rdx,0x10(%rax)
ffff800000106fff:	48 8b 45 f8          	mov    -0x8(%rbp),%rax
ffff800000107003:	48 8b 40 18          	mov    0x18(%rax),%rax
ffff800000107007:	48 85 c0             	test   %rax,%rax
ffff80000010700a:	74 10                	je     ffff80000010701c <page_init+0x40>
ffff80000010700c:	48 8b 45 f8          	mov    -0x8(%rbp),%rax
ffff800000107010:	48 8b 40 10          	mov    0x10(%rax),%rax
ffff800000107014:	83 e0 10             	and    $0x10,%eax
ffff800000107017:	48 85 c0             	test   %rax,%rax
ffff80000010701a:	74 27                	je     ffff800000107043 <page_init+0x67>
ffff80000010701c:	48 8b 45 f8          	mov    -0x8(%rbp),%rax
ffff800000107020:	48 8b 40 18          	mov    0x18(%rax),%rax
ffff800000107024:	48 8d 50 01          	lea    0x1(%rax),%rdx
ffff800000107028:	48 8b 45 f8          	mov    -0x8(%rbp),%rax
ffff80000010702c:	48 89 50 18          	mov    %rdx,0x18(%rax)
ffff800000107030:	48 8b 45 f8          	mov    -0x8(%rbp),%rax
ffff800000107034:	48 8b 00             	mov    (%rax),%rax
ffff800000107037:	48 8b 50 48          	mov    0x48(%rax),%rdx
ffff80000010703b:	48 83 c2 01          	add    $0x1,%rdx
ffff80000010703f:	48 89 50 48          	mov    %rdx,0x48(%rax)
ffff800000107043:	b8 01 00 00 00       	mov    $0x1,%eax
ffff800000107048:	5d                   	pop    %rbp
ffff800000107049:	c3                   	retq   

ffff80000010704a <page_clean>:
ffff80000010704a:	55                   	push   %rbp
ffff80000010704b:	48 89 e5             	mov    %rsp,%rbp
ffff80000010704e:	48 89 7d f8          	mov    %rdi,-0x8(%rbp)
ffff800000107052:	48 8b 45 f8          	mov    -0x8(%rbp),%rax
ffff800000107056:	48 8b 40 18          	mov    0x18(%rax),%rax
ffff80000010705a:	48 8d 50 ff          	lea    -0x1(%rax),%rdx
ffff80000010705e:	48 8b 45 f8          	mov    -0x8(%rbp),%rax
ffff800000107062:	48 89 50 18          	mov    %rdx,0x18(%rax)
ffff800000107066:	48 8b 45 f8          	mov    -0x8(%rbp),%rax
ffff80000010706a:	48 8b 00             	mov    (%rax),%rax
ffff80000010706d:	48 8b 50 48          	mov    0x48(%rax),%rdx
ffff800000107071:	48 83 ea 01          	sub    $0x1,%rdx
ffff800000107075:	48 89 50 48          	mov    %rdx,0x48(%rax)
ffff800000107079:	48 8b 45 f8          	mov    -0x8(%rbp),%rax
ffff80000010707d:	48 8b 40 18          	mov    0x18(%rax),%rax
ffff800000107081:	48 85 c0             	test   %rax,%rax
ffff800000107084:	75 16                	jne    ffff80000010709c <page_clean+0x52>
ffff800000107086:	48 8b 45 f8          	mov    -0x8(%rbp),%rax
ffff80000010708a:	48 8b 40 10          	mov    0x10(%rax),%rax
ffff80000010708e:	83 e0 01             	and    $0x1,%eax
ffff800000107091:	48 89 c2             	mov    %rax,%rdx
ffff800000107094:	48 8b 45 f8          	mov    -0x8(%rbp),%rax
ffff800000107098:	48 89 50 10          	mov    %rdx,0x10(%rax)
ffff80000010709c:	b8 01 00 00 00       	mov    $0x1,%eax
ffff8000001070a1:	5d                   	pop    %rbp
ffff8000001070a2:	c3                   	retq   

ffff8000001070a3 <get_page_attribute>:
ffff8000001070a3:	55                   	push   %rbp
ffff8000001070a4:	48 89 e5             	mov    %rsp,%rbp
ffff8000001070a7:	48 83 ec 10          	sub    $0x10,%rsp
ffff8000001070ab:	48 89 7d f8          	mov    %rdi,-0x8(%rbp)
ffff8000001070af:	48 83 7d f8 00       	cmpq   $0x0,-0x8(%rbp)
ffff8000001070b4:	75 2c                	jne    ffff8000001070e2 <get_page_attribute+0x3f>
ffff8000001070b6:	48 ba 98 a1 11 00 00 	movabs $0xffff80000011a198,%rdx
ffff8000001070bd:	80 ff ff 
ffff8000001070c0:	be 00 00 00 00       	mov    $0x0,%esi
ffff8000001070c5:	bf 00 00 ff 00       	mov    $0xff0000,%edi
ffff8000001070ca:	b8 00 00 00 00       	mov    $0x0,%eax
ffff8000001070cf:	48 b9 d0 56 10 00 00 	movabs $0xffff8000001056d0,%rcx
ffff8000001070d6:	80 ff ff 
ffff8000001070d9:	ff d1                	callq  *%rcx
ffff8000001070db:	b8 00 00 00 00       	mov    $0x0,%eax
ffff8000001070e0:	eb 08                	jmp    ffff8000001070ea <get_page_attribute+0x47>
ffff8000001070e2:	48 8b 45 f8          	mov    -0x8(%rbp),%rax
ffff8000001070e6:	48 8b 40 10          	mov    0x10(%rax),%rax
ffff8000001070ea:	c9                   	leaveq 
ffff8000001070eb:	c3                   	retq   

ffff8000001070ec <set_page_attribute>:
ffff8000001070ec:	55                   	push   %rbp
ffff8000001070ed:	48 89 e5             	mov    %rsp,%rbp
ffff8000001070f0:	48 83 ec 10          	sub    $0x10,%rsp
ffff8000001070f4:	48 89 7d f8          	mov    %rdi,-0x8(%rbp)
ffff8000001070f8:	48 89 75 f0          	mov    %rsi,-0x10(%rbp)
ffff8000001070fc:	48 83 7d f8 00       	cmpq   $0x0,-0x8(%rbp)
ffff800000107101:	75 2c                	jne    ffff80000010712f <set_page_attribute+0x43>
ffff800000107103:	48 ba c8 a1 11 00 00 	movabs $0xffff80000011a1c8,%rdx
ffff80000010710a:	80 ff ff 
ffff80000010710d:	be 00 00 00 00       	mov    $0x0,%esi
ffff800000107112:	bf 00 00 ff 00       	mov    $0xff0000,%edi
ffff800000107117:	b8 00 00 00 00       	mov    $0x0,%eax
ffff80000010711c:	48 b9 d0 56 10 00 00 	movabs $0xffff8000001056d0,%rcx
ffff800000107123:	80 ff ff 
ffff800000107126:	ff d1                	callq  *%rcx
ffff800000107128:	b8 00 00 00 00       	mov    $0x0,%eax
ffff80000010712d:	eb 11                	jmp    ffff800000107140 <set_page_attribute+0x54>
ffff80000010712f:	48 8b 45 f8          	mov    -0x8(%rbp),%rax
ffff800000107133:	48 8b 55 f0          	mov    -0x10(%rbp),%rdx
ffff800000107137:	48 89 50 10          	mov    %rdx,0x10(%rax)
ffff80000010713b:	b8 01 00 00 00       	mov    $0x1,%eax
ffff800000107140:	c9                   	leaveq 
ffff800000107141:	c3                   	retq   

ffff800000107142 <init_memory>:
ffff800000107142:	55                   	push   %rbp
ffff800000107143:	48 89 e5             	mov    %rsp,%rbp
ffff800000107146:	53                   	push   %rbx
ffff800000107147:	48 83 ec 78          	sub    $0x78,%rsp
ffff80000010714b:	48 c7 45 e0 00 00 00 	movq   $0x0,-0x20(%rbp)
ffff800000107152:	00 
ffff800000107153:	48 c7 45 d8 00 00 00 	movq   $0x0,-0x28(%rbp)
ffff80000010715a:	00 
ffff80000010715b:	48 c7 45 c8 00 00 00 	movq   $0x0,-0x38(%rbp)
ffff800000107162:	00 
ffff800000107163:	48 b8 60 07 11 00 00 	movabs $0xffff800000110760,%rax
ffff80000010716a:	80 ff ff 
ffff80000010716d:	48 8b 00             	mov    (%rax),%rax
ffff800000107170:	48 83 c0 24          	add    $0x24,%rax
ffff800000107174:	48 89 45 d8          	mov    %rax,-0x28(%rbp)
ffff800000107178:	c7 45 ec 00 00 00 00 	movl   $0x0,-0x14(%rbp)
ffff80000010717f:	e9 39 01 00 00       	jmpq   ffff8000001072bd <init_memory+0x17b>
ffff800000107184:	48 8b 45 d8          	mov    -0x28(%rbp),%rax
ffff800000107188:	8b 40 10             	mov    0x10(%rax),%eax
ffff80000010718b:	83 f8 01             	cmp    $0x1,%eax
ffff80000010718e:	75 0c                	jne    ffff80000010719c <init_memory+0x5a>
ffff800000107190:	48 8b 45 d8          	mov    -0x28(%rbp),%rax
ffff800000107194:	48 8b 40 08          	mov    0x8(%rax),%rax
ffff800000107198:	48 01 45 e0          	add    %rax,-0x20(%rbp)
ffff80000010719c:	48 b9 e0 15 13 00 00 	movabs $0xffff8000001315e0,%rcx
ffff8000001071a3:	80 ff ff 
ffff8000001071a6:	8b 45 ec             	mov    -0x14(%rbp),%eax
ffff8000001071a9:	48 63 d0             	movslq %eax,%rdx
ffff8000001071ac:	48 89 d0             	mov    %rdx,%rax
ffff8000001071af:	48 c1 e0 02          	shl    $0x2,%rax
ffff8000001071b3:	48 01 d0             	add    %rdx,%rax
ffff8000001071b6:	48 c1 e0 02          	shl    $0x2,%rax
ffff8000001071ba:	48 01 c8             	add    %rcx,%rax
ffff8000001071bd:	48 8b 10             	mov    (%rax),%rdx
ffff8000001071c0:	48 8b 45 d8          	mov    -0x28(%rbp),%rax
ffff8000001071c4:	48 8b 00             	mov    (%rax),%rax
ffff8000001071c7:	48 8d 0c 02          	lea    (%rdx,%rax,1),%rcx
ffff8000001071cb:	48 be e0 15 13 00 00 	movabs $0xffff8000001315e0,%rsi
ffff8000001071d2:	80 ff ff 
ffff8000001071d5:	8b 45 ec             	mov    -0x14(%rbp),%eax
ffff8000001071d8:	48 63 d0             	movslq %eax,%rdx
ffff8000001071db:	48 89 d0             	mov    %rdx,%rax
ffff8000001071de:	48 c1 e0 02          	shl    $0x2,%rax
ffff8000001071e2:	48 01 d0             	add    %rdx,%rax
ffff8000001071e5:	48 c1 e0 02          	shl    $0x2,%rax
ffff8000001071e9:	48 01 f0             	add    %rsi,%rax
ffff8000001071ec:	48 89 08             	mov    %rcx,(%rax)
ffff8000001071ef:	48 b9 e0 15 13 00 00 	movabs $0xffff8000001315e0,%rcx
ffff8000001071f6:	80 ff ff 
ffff8000001071f9:	8b 45 ec             	mov    -0x14(%rbp),%eax
ffff8000001071fc:	48 63 d0             	movslq %eax,%rdx
ffff8000001071ff:	48 89 d0             	mov    %rdx,%rax
ffff800000107202:	48 c1 e0 02          	shl    $0x2,%rax
ffff800000107206:	48 01 d0             	add    %rdx,%rax
ffff800000107209:	48 c1 e0 02          	shl    $0x2,%rax
ffff80000010720d:	48 01 c8             	add    %rcx,%rax
ffff800000107210:	48 83 c0 08          	add    $0x8,%rax
ffff800000107214:	48 8b 10             	mov    (%rax),%rdx
ffff800000107217:	48 8b 45 d8          	mov    -0x28(%rbp),%rax
ffff80000010721b:	48 8b 40 08          	mov    0x8(%rax),%rax
ffff80000010721f:	48 8d 0c 02          	lea    (%rdx,%rax,1),%rcx
ffff800000107223:	48 be e0 15 13 00 00 	movabs $0xffff8000001315e0,%rsi
ffff80000010722a:	80 ff ff 
ffff80000010722d:	8b 45 ec             	mov    -0x14(%rbp),%eax
ffff800000107230:	48 63 d0             	movslq %eax,%rdx
ffff800000107233:	48 89 d0             	mov    %rdx,%rax
ffff800000107236:	48 c1 e0 02          	shl    $0x2,%rax
ffff80000010723a:	48 01 d0             	add    %rdx,%rax
ffff80000010723d:	48 c1 e0 02          	shl    $0x2,%rax
ffff800000107241:	48 01 f0             	add    %rsi,%rax
ffff800000107244:	48 83 c0 08          	add    $0x8,%rax
ffff800000107248:	48 89 08             	mov    %rcx,(%rax)
ffff80000010724b:	48 8b 45 d8          	mov    -0x28(%rbp),%rax
ffff80000010724f:	8b 48 10             	mov    0x10(%rax),%ecx
ffff800000107252:	48 be e0 15 13 00 00 	movabs $0xffff8000001315e0,%rsi
ffff800000107259:	80 ff ff 
ffff80000010725c:	8b 45 ec             	mov    -0x14(%rbp),%eax
ffff80000010725f:	48 63 d0             	movslq %eax,%rdx
ffff800000107262:	48 89 d0             	mov    %rdx,%rax
ffff800000107265:	48 c1 e0 02          	shl    $0x2,%rax
ffff800000107269:	48 01 d0             	add    %rdx,%rax
ffff80000010726c:	48 c1 e0 02          	shl    $0x2,%rax
ffff800000107270:	48 01 f0             	add    %rsi,%rax
ffff800000107273:	48 83 c0 10          	add    $0x10,%rax
ffff800000107277:	89 08                	mov    %ecx,(%rax)
ffff800000107279:	8b 45 ec             	mov    -0x14(%rbp),%eax
ffff80000010727c:	48 63 d0             	movslq %eax,%rdx
ffff80000010727f:	48 b8 e0 15 13 00 00 	movabs $0xffff8000001315e0,%rax
ffff800000107286:	80 ff ff 
ffff800000107289:	48 89 90 80 02 00 00 	mov    %rdx,0x280(%rax)
ffff800000107290:	48 83 45 d8 14       	addq   $0x14,-0x28(%rbp)
ffff800000107295:	48 8b 45 d8          	mov    -0x28(%rbp),%rax
ffff800000107299:	8b 40 10             	mov    0x10(%rax),%eax
ffff80000010729c:	83 f8 04             	cmp    $0x4,%eax
ffff80000010729f:	77 37                	ja     ffff8000001072d8 <init_memory+0x196>
ffff8000001072a1:	48 8b 45 d8          	mov    -0x28(%rbp),%rax
ffff8000001072a5:	48 8b 40 08          	mov    0x8(%rax),%rax
ffff8000001072a9:	48 85 c0             	test   %rax,%rax
ffff8000001072ac:	74 2a                	je     ffff8000001072d8 <init_memory+0x196>
ffff8000001072ae:	48 8b 45 d8          	mov    -0x28(%rbp),%rax
ffff8000001072b2:	8b 40 10             	mov    0x10(%rax),%eax
ffff8000001072b5:	85 c0                	test   %eax,%eax
ffff8000001072b7:	74 1f                	je     ffff8000001072d8 <init_memory+0x196>
ffff8000001072b9:	83 45 ec 01          	addl   $0x1,-0x14(%rbp)
ffff8000001072bd:	8b 55 ec             	mov    -0x14(%rbp),%edx
ffff8000001072c0:	48 b8 60 07 11 00 00 	movabs $0xffff800000110760,%rax
ffff8000001072c7:	80 ff ff 
ffff8000001072ca:	48 8b 00             	mov    (%rax),%rax
ffff8000001072cd:	8b 40 20             	mov    0x20(%rax),%eax
ffff8000001072d0:	39 c2                	cmp    %eax,%edx
ffff8000001072d2:	0f 82 ac fe ff ff    	jb     ffff800000107184 <init_memory+0x42>
ffff8000001072d8:	48 8b 45 e0          	mov    -0x20(%rbp),%rax
ffff8000001072dc:	48 89 c1             	mov    %rax,%rcx
ffff8000001072df:	48 ba f8 a1 11 00 00 	movabs $0xffff80000011a1f8,%rdx
ffff8000001072e6:	80 ff ff 
ffff8000001072e9:	be 00 00 00 00       	mov    $0x0,%esi
ffff8000001072ee:	bf 00 80 ff 00       	mov    $0xff8000,%edi
ffff8000001072f3:	b8 00 00 00 00       	mov    $0x0,%eax
ffff8000001072f8:	49 b8 d0 56 10 00 00 	movabs $0xffff8000001056d0,%r8
ffff8000001072ff:	80 ff ff 
ffff800000107302:	41 ff d0             	callq  *%r8
ffff800000107305:	48 c7 45 e0 00 00 00 	movq   $0x0,-0x20(%rbp)
ffff80000010730c:	00 
ffff80000010730d:	c7 45 ec 00 00 00 00 	movl   $0x0,-0x14(%rbp)
ffff800000107314:	e9 86 01 00 00       	jmpq   ffff80000010749f <init_memory+0x35d>
ffff800000107319:	48 b9 e0 15 13 00 00 	movabs $0xffff8000001315e0,%rcx
ffff800000107320:	80 ff ff 
ffff800000107323:	8b 45 ec             	mov    -0x14(%rbp),%eax
ffff800000107326:	48 63 d0             	movslq %eax,%rdx
ffff800000107329:	48 89 d0             	mov    %rdx,%rax
ffff80000010732c:	48 c1 e0 02          	shl    $0x2,%rax
ffff800000107330:	48 01 d0             	add    %rdx,%rax
ffff800000107333:	48 c1 e0 02          	shl    $0x2,%rax
ffff800000107337:	48 01 c8             	add    %rcx,%rax
ffff80000010733a:	48 83 c0 10          	add    $0x10,%rax
ffff80000010733e:	8b 30                	mov    (%rax),%esi
ffff800000107340:	48 b9 e0 15 13 00 00 	movabs $0xffff8000001315e0,%rcx
ffff800000107347:	80 ff ff 
ffff80000010734a:	8b 45 ec             	mov    -0x14(%rbp),%eax
ffff80000010734d:	48 63 d0             	movslq %eax,%rdx
ffff800000107350:	48 89 d0             	mov    %rdx,%rax
ffff800000107353:	48 c1 e0 02          	shl    $0x2,%rax
ffff800000107357:	48 01 d0             	add    %rdx,%rax
ffff80000010735a:	48 c1 e0 02          	shl    $0x2,%rax
ffff80000010735e:	48 01 c8             	add    %rcx,%rax
ffff800000107361:	48 83 c0 08          	add    $0x8,%rax
ffff800000107365:	48 8b 08             	mov    (%rax),%rcx
ffff800000107368:	48 bf e0 15 13 00 00 	movabs $0xffff8000001315e0,%rdi
ffff80000010736f:	80 ff ff 
ffff800000107372:	8b 45 ec             	mov    -0x14(%rbp),%eax
ffff800000107375:	48 63 d0             	movslq %eax,%rdx
ffff800000107378:	48 89 d0             	mov    %rdx,%rax
ffff80000010737b:	48 c1 e0 02          	shl    $0x2,%rax
ffff80000010737f:	48 01 d0             	add    %rdx,%rax
ffff800000107382:	48 c1 e0 02          	shl    $0x2,%rax
ffff800000107386:	48 01 f8             	add    %rdi,%rax
ffff800000107389:	48 8b 00             	mov    (%rax),%rax
ffff80000010738c:	41 89 f1             	mov    %esi,%r9d
ffff80000010738f:	49 89 c8             	mov    %rcx,%r8
ffff800000107392:	48 89 c1             	mov    %rax,%rcx
ffff800000107395:	48 ba 18 a2 11 00 00 	movabs $0xffff80000011a218,%rdx
ffff80000010739c:	80 ff ff 
ffff80000010739f:	be 00 00 00 00       	mov    $0x0,%esi
ffff8000001073a4:	bf 00 80 ff 00       	mov    $0xff8000,%edi
ffff8000001073a9:	b8 00 00 00 00       	mov    $0x0,%eax
ffff8000001073ae:	49 ba d0 56 10 00 00 	movabs $0xffff8000001056d0,%r10
ffff8000001073b5:	80 ff ff 
ffff8000001073b8:	41 ff d2             	callq  *%r10
ffff8000001073bb:	48 b9 e0 15 13 00 00 	movabs $0xffff8000001315e0,%rcx
ffff8000001073c2:	80 ff ff 
ffff8000001073c5:	8b 45 ec             	mov    -0x14(%rbp),%eax
ffff8000001073c8:	48 63 d0             	movslq %eax,%rdx
ffff8000001073cb:	48 89 d0             	mov    %rdx,%rax
ffff8000001073ce:	48 c1 e0 02          	shl    $0x2,%rax
ffff8000001073d2:	48 01 d0             	add    %rdx,%rax
ffff8000001073d5:	48 c1 e0 02          	shl    $0x2,%rax
ffff8000001073d9:	48 01 c8             	add    %rcx,%rax
ffff8000001073dc:	48 83 c0 10          	add    $0x10,%rax
ffff8000001073e0:	8b 00                	mov    (%rax),%eax
ffff8000001073e2:	83 f8 01             	cmp    $0x1,%eax
ffff8000001073e5:	74 05                	je     ffff8000001073ec <init_memory+0x2aa>
ffff8000001073e7:	e9 af 00 00 00       	jmpq   ffff80000010749b <init_memory+0x359>
ffff8000001073ec:	48 b9 e0 15 13 00 00 	movabs $0xffff8000001315e0,%rcx
ffff8000001073f3:	80 ff ff 
ffff8000001073f6:	8b 45 ec             	mov    -0x14(%rbp),%eax
ffff8000001073f9:	48 63 d0             	movslq %eax,%rdx
ffff8000001073fc:	48 89 d0             	mov    %rdx,%rax
ffff8000001073ff:	48 c1 e0 02          	shl    $0x2,%rax
ffff800000107403:	48 01 d0             	add    %rdx,%rax
ffff800000107406:	48 c1 e0 02          	shl    $0x2,%rax
ffff80000010740a:	48 01 c8             	add    %rcx,%rax
ffff80000010740d:	48 8b 00             	mov    (%rax),%rax
ffff800000107410:	48 05 ff ff 1f 00    	add    $0x1fffff,%rax
ffff800000107416:	48 25 00 00 e0 ff    	and    $0xffffffffffe00000,%rax
ffff80000010741c:	48 89 45 c0          	mov    %rax,-0x40(%rbp)
ffff800000107420:	48 b9 e0 15 13 00 00 	movabs $0xffff8000001315e0,%rcx
ffff800000107427:	80 ff ff 
ffff80000010742a:	8b 45 ec             	mov    -0x14(%rbp),%eax
ffff80000010742d:	48 63 d0             	movslq %eax,%rdx
ffff800000107430:	48 89 d0             	mov    %rdx,%rax
ffff800000107433:	48 c1 e0 02          	shl    $0x2,%rax
ffff800000107437:	48 01 d0             	add    %rdx,%rax
ffff80000010743a:	48 c1 e0 02          	shl    $0x2,%rax
ffff80000010743e:	48 01 c8             	add    %rcx,%rax
ffff800000107441:	48 8b 08             	mov    (%rax),%rcx
ffff800000107444:	48 be e0 15 13 00 00 	movabs $0xffff8000001315e0,%rsi
ffff80000010744b:	80 ff ff 
ffff80000010744e:	8b 45 ec             	mov    -0x14(%rbp),%eax
ffff800000107451:	48 63 d0             	movslq %eax,%rdx
ffff800000107454:	48 89 d0             	mov    %rdx,%rax
ffff800000107457:	48 c1 e0 02          	shl    $0x2,%rax
ffff80000010745b:	48 01 d0             	add    %rdx,%rax
ffff80000010745e:	48 c1 e0 02          	shl    $0x2,%rax
ffff800000107462:	48 01 f0             	add    %rsi,%rax
ffff800000107465:	48 83 c0 08          	add    $0x8,%rax
ffff800000107469:	48 8b 00             	mov    (%rax),%rax
ffff80000010746c:	48 01 c8             	add    %rcx,%rax
ffff80000010746f:	48 25 00 00 e0 ff    	and    $0xffffffffffe00000,%rax
ffff800000107475:	48 89 45 b8          	mov    %rax,-0x48(%rbp)
ffff800000107479:	48 8b 45 b8          	mov    -0x48(%rbp),%rax
ffff80000010747d:	48 3b 45 c0          	cmp    -0x40(%rbp),%rax
ffff800000107481:	77 02                	ja     ffff800000107485 <init_memory+0x343>
ffff800000107483:	eb 16                	jmp    ffff80000010749b <init_memory+0x359>
ffff800000107485:	48 8b 45 c0          	mov    -0x40(%rbp),%rax
ffff800000107489:	48 8b 55 b8          	mov    -0x48(%rbp),%rdx
ffff80000010748d:	48 29 c2             	sub    %rax,%rdx
ffff800000107490:	48 89 d0             	mov    %rdx,%rax
ffff800000107493:	48 c1 e8 15          	shr    $0x15,%rax
ffff800000107497:	48 01 45 e0          	add    %rax,-0x20(%rbp)
ffff80000010749b:	83 45 ec 01          	addl   $0x1,-0x14(%rbp)
ffff80000010749f:	8b 45 ec             	mov    -0x14(%rbp),%eax
ffff8000001074a2:	48 63 d0             	movslq %eax,%rdx
ffff8000001074a5:	48 b8 e0 15 13 00 00 	movabs $0xffff8000001315e0,%rax
ffff8000001074ac:	80 ff ff 
ffff8000001074af:	48 8b 80 80 02 00 00 	mov    0x280(%rax),%rax
ffff8000001074b6:	48 39 c2             	cmp    %rax,%rdx
ffff8000001074b9:	0f 86 5a fe ff ff    	jbe    ffff800000107319 <init_memory+0x1d7>
ffff8000001074bf:	48 b8 e0 15 13 00 00 	movabs $0xffff8000001315e0,%rax
ffff8000001074c6:	80 ff ff 
ffff8000001074c9:	48 8b 90 80 02 00 00 	mov    0x280(%rax),%rdx
ffff8000001074d0:	48 b9 e0 15 13 00 00 	movabs $0xffff8000001315e0,%rcx
ffff8000001074d7:	80 ff ff 
ffff8000001074da:	48 89 d0             	mov    %rdx,%rax
ffff8000001074dd:	48 c1 e0 02          	shl    $0x2,%rax
ffff8000001074e1:	48 01 d0             	add    %rdx,%rax
ffff8000001074e4:	48 c1 e0 02          	shl    $0x2,%rax
ffff8000001074e8:	48 01 c8             	add    %rcx,%rax
ffff8000001074eb:	48 8b 08             	mov    (%rax),%rcx
ffff8000001074ee:	48 b8 e0 15 13 00 00 	movabs $0xffff8000001315e0,%rax
ffff8000001074f5:	80 ff ff 
ffff8000001074f8:	48 8b 90 80 02 00 00 	mov    0x280(%rax),%rdx
ffff8000001074ff:	48 be e0 15 13 00 00 	movabs $0xffff8000001315e0,%rsi
ffff800000107506:	80 ff ff 
ffff800000107509:	48 89 d0             	mov    %rdx,%rax
ffff80000010750c:	48 c1 e0 02          	shl    $0x2,%rax
ffff800000107510:	48 01 d0             	add    %rdx,%rax
ffff800000107513:	48 c1 e0 02          	shl    $0x2,%rax
ffff800000107517:	48 01 f0             	add    %rsi,%rax
ffff80000010751a:	48 83 c0 08          	add    $0x8,%rax
ffff80000010751e:	48 8b 00             	mov    (%rax),%rax
ffff800000107521:	48 01 c8             	add    %rcx,%rax
ffff800000107524:	48 89 45 e0          	mov    %rax,-0x20(%rbp)
ffff800000107528:	48 b8 e0 15 13 00 00 	movabs $0xffff8000001315e0,%rax
ffff80000010752f:	80 ff ff 
ffff800000107532:	48 8b 80 f0 02 00 00 	mov    0x2f0(%rax),%rax
ffff800000107539:	48 05 ff 0f 00 00    	add    $0xfff,%rax
ffff80000010753f:	48 25 00 f0 ff ff    	and    $0xfffffffffffff000,%rax
ffff800000107545:	48 89 c2             	mov    %rax,%rdx
ffff800000107548:	48 b8 e0 15 13 00 00 	movabs $0xffff8000001315e0,%rax
ffff80000010754f:	80 ff ff 
ffff800000107552:	48 89 90 88 02 00 00 	mov    %rdx,0x288(%rax)
ffff800000107559:	48 8b 45 e0          	mov    -0x20(%rbp),%rax
ffff80000010755d:	48 c1 e8 15          	shr    $0x15,%rax
ffff800000107561:	48 89 c2             	mov    %rax,%rdx
ffff800000107564:	48 b8 e0 15 13 00 00 	movabs $0xffff8000001315e0,%rax
ffff80000010756b:	80 ff ff 
ffff80000010756e:	48 89 90 90 02 00 00 	mov    %rdx,0x290(%rax)
ffff800000107575:	48 8b 45 e0          	mov    -0x20(%rbp),%rax
ffff800000107579:	48 c1 e8 15          	shr    $0x15,%rax
ffff80000010757d:	48 83 c0 3f          	add    $0x3f,%rax
ffff800000107581:	48 c1 e8 03          	shr    $0x3,%rax
ffff800000107585:	48 83 e0 f8          	and    $0xfffffffffffffff8,%rax
ffff800000107589:	48 89 c2             	mov    %rax,%rdx
ffff80000010758c:	48 b8 e0 15 13 00 00 	movabs $0xffff8000001315e0,%rax
ffff800000107593:	80 ff ff 
ffff800000107596:	48 89 90 98 02 00 00 	mov    %rdx,0x298(%rax)
ffff80000010759d:	48 b8 e0 15 13 00 00 	movabs $0xffff8000001315e0,%rax
ffff8000001075a4:	80 ff ff 
ffff8000001075a7:	48 8b 80 98 02 00 00 	mov    0x298(%rax),%rax
ffff8000001075ae:	48 89 c2             	mov    %rax,%rdx
ffff8000001075b1:	48 b8 e0 15 13 00 00 	movabs $0xffff8000001315e0,%rax
ffff8000001075b8:	80 ff ff 
ffff8000001075bb:	48 8b 80 88 02 00 00 	mov    0x288(%rax),%rax
ffff8000001075c2:	be ff 00 00 00       	mov    $0xff,%esi
ffff8000001075c7:	48 89 c7             	mov    %rax,%rdi
ffff8000001075ca:	48 b8 55 6f 10 00 00 	movabs $0xffff800000106f55,%rax
ffff8000001075d1:	80 ff ff 
ffff8000001075d4:	ff d0                	callq  *%rax
ffff8000001075d6:	48 b8 e0 15 13 00 00 	movabs $0xffff8000001315e0,%rax
ffff8000001075dd:	80 ff ff 
ffff8000001075e0:	48 8b 80 88 02 00 00 	mov    0x288(%rax),%rax
ffff8000001075e7:	48 89 c2             	mov    %rax,%rdx
ffff8000001075ea:	48 b8 e0 15 13 00 00 	movabs $0xffff8000001315e0,%rax
ffff8000001075f1:	80 ff ff 
ffff8000001075f4:	48 8b 80 98 02 00 00 	mov    0x298(%rax),%rax
ffff8000001075fb:	48 01 d0             	add    %rdx,%rax
ffff8000001075fe:	48 05 ff 0f 00 00    	add    $0xfff,%rax
ffff800000107604:	48 25 00 f0 ff ff    	and    $0xfffffffffffff000,%rax
ffff80000010760a:	48 89 c2             	mov    %rax,%rdx
ffff80000010760d:	48 b8 e0 15 13 00 00 	movabs $0xffff8000001315e0,%rax
ffff800000107614:	80 ff ff 
ffff800000107617:	48 89 90 a0 02 00 00 	mov    %rdx,0x2a0(%rax)
ffff80000010761e:	48 8b 45 e0          	mov    -0x20(%rbp),%rax
ffff800000107622:	48 c1 e8 15          	shr    $0x15,%rax
ffff800000107626:	48 89 c2             	mov    %rax,%rdx
ffff800000107629:	48 b8 e0 15 13 00 00 	movabs $0xffff8000001315e0,%rax
ffff800000107630:	80 ff ff 
ffff800000107633:	48 89 90 a8 02 00 00 	mov    %rdx,0x2a8(%rax)
ffff80000010763a:	48 8b 45 e0          	mov    -0x20(%rbp),%rax
ffff80000010763e:	48 c1 e8 15          	shr    $0x15,%rax
ffff800000107642:	48 89 c2             	mov    %rax,%rdx
ffff800000107645:	48 89 d0             	mov    %rdx,%rax
ffff800000107648:	48 c1 e0 02          	shl    $0x2,%rax
ffff80000010764c:	48 01 d0             	add    %rdx,%rax
ffff80000010764f:	48 c1 e0 03          	shl    $0x3,%rax
ffff800000107653:	48 83 c0 07          	add    $0x7,%rax
ffff800000107657:	48 83 e0 f8          	and    $0xfffffffffffffff8,%rax
ffff80000010765b:	48 89 c2             	mov    %rax,%rdx
ffff80000010765e:	48 b8 e0 15 13 00 00 	movabs $0xffff8000001315e0,%rax
ffff800000107665:	80 ff ff 
ffff800000107668:	48 89 90 b0 02 00 00 	mov    %rdx,0x2b0(%rax)
ffff80000010766f:	48 b8 e0 15 13 00 00 	movabs $0xffff8000001315e0,%rax
ffff800000107676:	80 ff ff 
ffff800000107679:	48 8b 80 b0 02 00 00 	mov    0x2b0(%rax),%rax
ffff800000107680:	48 89 c2             	mov    %rax,%rdx
ffff800000107683:	48 b8 e0 15 13 00 00 	movabs $0xffff8000001315e0,%rax
ffff80000010768a:	80 ff ff 
ffff80000010768d:	48 8b 80 a0 02 00 00 	mov    0x2a0(%rax),%rax
ffff800000107694:	be 00 00 00 00       	mov    $0x0,%esi
ffff800000107699:	48 89 c7             	mov    %rax,%rdi
ffff80000010769c:	48 b8 55 6f 10 00 00 	movabs $0xffff800000106f55,%rax
ffff8000001076a3:	80 ff ff 
ffff8000001076a6:	ff d0                	callq  *%rax
ffff8000001076a8:	48 b8 e0 15 13 00 00 	movabs $0xffff8000001315e0,%rax
ffff8000001076af:	80 ff ff 
ffff8000001076b2:	48 8b 80 a0 02 00 00 	mov    0x2a0(%rax),%rax
ffff8000001076b9:	48 89 c2             	mov    %rax,%rdx
ffff8000001076bc:	48 b8 e0 15 13 00 00 	movabs $0xffff8000001315e0,%rax
ffff8000001076c3:	80 ff ff 
ffff8000001076c6:	48 8b 80 b0 02 00 00 	mov    0x2b0(%rax),%rax
ffff8000001076cd:	48 01 d0             	add    %rdx,%rax
ffff8000001076d0:	48 05 ff 0f 00 00    	add    $0xfff,%rax
ffff8000001076d6:	48 25 00 f0 ff ff    	and    $0xfffffffffffff000,%rax
ffff8000001076dc:	48 89 c2             	mov    %rax,%rdx
ffff8000001076df:	48 b8 e0 15 13 00 00 	movabs $0xffff8000001315e0,%rax
ffff8000001076e6:	80 ff ff 
ffff8000001076e9:	48 89 90 b8 02 00 00 	mov    %rdx,0x2b8(%rax)
ffff8000001076f0:	48 b8 e0 15 13 00 00 	movabs $0xffff8000001315e0,%rax
ffff8000001076f7:	80 ff ff 
ffff8000001076fa:	48 c7 80 c0 02 00 00 	movq   $0x0,0x2c0(%rax)
ffff800000107701:	00 00 00 00 
ffff800000107705:	48 b8 e0 15 13 00 00 	movabs $0xffff8000001315e0,%rax
ffff80000010770c:	80 ff ff 
ffff80000010770f:	48 c7 80 c8 02 00 00 	movq   $0x190,0x2c8(%rax)
ffff800000107716:	90 01 00 00 
ffff80000010771a:	48 b8 e0 15 13 00 00 	movabs $0xffff8000001315e0,%rax
ffff800000107721:	80 ff ff 
ffff800000107724:	48 8b 80 c8 02 00 00 	mov    0x2c8(%rax),%rax
ffff80000010772b:	48 89 c2             	mov    %rax,%rdx
ffff80000010772e:	48 b8 e0 15 13 00 00 	movabs $0xffff8000001315e0,%rax
ffff800000107735:	80 ff ff 
ffff800000107738:	48 8b 80 b8 02 00 00 	mov    0x2b8(%rax),%rax
ffff80000010773f:	be 00 00 00 00       	mov    $0x0,%esi
ffff800000107744:	48 89 c7             	mov    %rax,%rdi
ffff800000107747:	48 b8 55 6f 10 00 00 	movabs $0xffff800000106f55,%rax
ffff80000010774e:	80 ff ff 
ffff800000107751:	ff d0                	callq  *%rax
ffff800000107753:	c7 45 ec 00 00 00 00 	movl   $0x0,-0x14(%rbp)
ffff80000010775a:	e9 ec 02 00 00       	jmpq   ffff800000107a4b <init_memory+0x909>
ffff80000010775f:	48 b9 e0 15 13 00 00 	movabs $0xffff8000001315e0,%rcx
ffff800000107766:	80 ff ff 
ffff800000107769:	8b 45 ec             	mov    -0x14(%rbp),%eax
ffff80000010776c:	48 63 d0             	movslq %eax,%rdx
ffff80000010776f:	48 89 d0             	mov    %rdx,%rax
ffff800000107772:	48 c1 e0 02          	shl    $0x2,%rax
ffff800000107776:	48 01 d0             	add    %rdx,%rax
ffff800000107779:	48 c1 e0 02          	shl    $0x2,%rax
ffff80000010777d:	48 01 c8             	add    %rcx,%rax
ffff800000107780:	48 83 c0 10          	add    $0x10,%rax
ffff800000107784:	8b 00                	mov    (%rax),%eax
ffff800000107786:	83 f8 01             	cmp    $0x1,%eax
ffff800000107789:	74 05                	je     ffff800000107790 <init_memory+0x64e>
ffff80000010778b:	e9 b7 02 00 00       	jmpq   ffff800000107a47 <init_memory+0x905>
ffff800000107790:	48 b9 e0 15 13 00 00 	movabs $0xffff8000001315e0,%rcx
ffff800000107797:	80 ff ff 
ffff80000010779a:	8b 45 ec             	mov    -0x14(%rbp),%eax
ffff80000010779d:	48 63 d0             	movslq %eax,%rdx
ffff8000001077a0:	48 89 d0             	mov    %rdx,%rax
ffff8000001077a3:	48 c1 e0 02          	shl    $0x2,%rax
ffff8000001077a7:	48 01 d0             	add    %rdx,%rax
ffff8000001077aa:	48 c1 e0 02          	shl    $0x2,%rax
ffff8000001077ae:	48 01 c8             	add    %rcx,%rax
ffff8000001077b1:	48 8b 00             	mov    (%rax),%rax
ffff8000001077b4:	48 05 ff ff 1f 00    	add    $0x1fffff,%rax
ffff8000001077ba:	48 25 00 00 e0 ff    	and    $0xffffffffffe00000,%rax
ffff8000001077c0:	48 89 45 b0          	mov    %rax,-0x50(%rbp)
ffff8000001077c4:	48 b9 e0 15 13 00 00 	movabs $0xffff8000001315e0,%rcx
ffff8000001077cb:	80 ff ff 
ffff8000001077ce:	8b 45 ec             	mov    -0x14(%rbp),%eax
ffff8000001077d1:	48 63 d0             	movslq %eax,%rdx
ffff8000001077d4:	48 89 d0             	mov    %rdx,%rax
ffff8000001077d7:	48 c1 e0 02          	shl    $0x2,%rax
ffff8000001077db:	48 01 d0             	add    %rdx,%rax
ffff8000001077de:	48 c1 e0 02          	shl    $0x2,%rax
ffff8000001077e2:	48 01 c8             	add    %rcx,%rax
ffff8000001077e5:	48 8b 08             	mov    (%rax),%rcx
ffff8000001077e8:	48 be e0 15 13 00 00 	movabs $0xffff8000001315e0,%rsi
ffff8000001077ef:	80 ff ff 
ffff8000001077f2:	8b 45 ec             	mov    -0x14(%rbp),%eax
ffff8000001077f5:	48 63 d0             	movslq %eax,%rdx
ffff8000001077f8:	48 89 d0             	mov    %rdx,%rax
ffff8000001077fb:	48 c1 e0 02          	shl    $0x2,%rax
ffff8000001077ff:	48 01 d0             	add    %rdx,%rax
ffff800000107802:	48 c1 e0 02          	shl    $0x2,%rax
ffff800000107806:	48 01 f0             	add    %rsi,%rax
ffff800000107809:	48 83 c0 08          	add    $0x8,%rax
ffff80000010780d:	48 8b 00             	mov    (%rax),%rax
ffff800000107810:	48 01 c8             	add    %rcx,%rax
ffff800000107813:	48 25 00 00 e0 ff    	and    $0xffffffffffe00000,%rax
ffff800000107819:	48 89 45 a8          	mov    %rax,-0x58(%rbp)
ffff80000010781d:	48 8b 45 a8          	mov    -0x58(%rbp),%rax
ffff800000107821:	48 3b 45 b0          	cmp    -0x50(%rbp),%rax
ffff800000107825:	77 05                	ja     ffff80000010782c <init_memory+0x6ea>
ffff800000107827:	e9 1b 02 00 00       	jmpq   ffff800000107a47 <init_memory+0x905>
ffff80000010782c:	48 b8 e0 15 13 00 00 	movabs $0xffff8000001315e0,%rax
ffff800000107833:	80 ff ff 
ffff800000107836:	48 8b 88 b8 02 00 00 	mov    0x2b8(%rax),%rcx
ffff80000010783d:	48 b8 e0 15 13 00 00 	movabs $0xffff8000001315e0,%rax
ffff800000107844:	80 ff ff 
ffff800000107847:	48 8b 90 c0 02 00 00 	mov    0x2c0(%rax),%rdx
ffff80000010784e:	48 89 d0             	mov    %rdx,%rax
ffff800000107851:	48 c1 e0 02          	shl    $0x2,%rax
ffff800000107855:	48 01 d0             	add    %rdx,%rax
ffff800000107858:	48 c1 e0 04          	shl    $0x4,%rax
ffff80000010785c:	48 01 c8             	add    %rcx,%rax
ffff80000010785f:	48 89 45 a0          	mov    %rax,-0x60(%rbp)
ffff800000107863:	48 b8 e0 15 13 00 00 	movabs $0xffff8000001315e0,%rax
ffff80000010786a:	80 ff ff 
ffff80000010786d:	48 8b 80 c0 02 00 00 	mov    0x2c0(%rax),%rax
ffff800000107874:	48 8d 50 01          	lea    0x1(%rax),%rdx
ffff800000107878:	48 b8 e0 15 13 00 00 	movabs $0xffff8000001315e0,%rax
ffff80000010787f:	80 ff ff 
ffff800000107882:	48 89 90 c0 02 00 00 	mov    %rdx,0x2c0(%rax)
ffff800000107889:	48 8b 45 a0          	mov    -0x60(%rbp),%rax
ffff80000010788d:	48 8b 55 b0          	mov    -0x50(%rbp),%rdx
ffff800000107891:	48 89 50 10          	mov    %rdx,0x10(%rax)
ffff800000107895:	48 8b 45 a0          	mov    -0x60(%rbp),%rax
ffff800000107899:	48 8b 55 a8          	mov    -0x58(%rbp),%rdx
ffff80000010789d:	48 89 50 18          	mov    %rdx,0x18(%rax)
ffff8000001078a1:	48 8b 45 b0          	mov    -0x50(%rbp),%rax
ffff8000001078a5:	48 8b 55 a8          	mov    -0x58(%rbp),%rdx
ffff8000001078a9:	48 29 c2             	sub    %rax,%rdx
ffff8000001078ac:	48 8b 45 a0          	mov    -0x60(%rbp),%rax
ffff8000001078b0:	48 89 50 20          	mov    %rdx,0x20(%rax)
ffff8000001078b4:	48 8b 45 a0          	mov    -0x60(%rbp),%rax
ffff8000001078b8:	48 c7 40 38 00 00 00 	movq   $0x0,0x38(%rax)
ffff8000001078bf:	00 
ffff8000001078c0:	48 8b 45 b0          	mov    -0x50(%rbp),%rax
ffff8000001078c4:	48 8b 55 a8          	mov    -0x58(%rbp),%rdx
ffff8000001078c8:	48 29 c2             	sub    %rax,%rdx
ffff8000001078cb:	48 89 d0             	mov    %rdx,%rax
ffff8000001078ce:	48 c1 e8 15          	shr    $0x15,%rax
ffff8000001078d2:	48 89 c2             	mov    %rax,%rdx
ffff8000001078d5:	48 8b 45 a0          	mov    -0x60(%rbp),%rax
ffff8000001078d9:	48 89 50 40          	mov    %rdx,0x40(%rax)
ffff8000001078dd:	48 8b 45 a0          	mov    -0x60(%rbp),%rax
ffff8000001078e1:	48 c7 40 48 00 00 00 	movq   $0x0,0x48(%rax)
ffff8000001078e8:	00 
ffff8000001078e9:	48 8b 45 a0          	mov    -0x60(%rbp),%rax
ffff8000001078ed:	48 c7 40 28 00 00 00 	movq   $0x0,0x28(%rax)
ffff8000001078f4:	00 
ffff8000001078f5:	48 8b 45 a0          	mov    -0x60(%rbp),%rax
ffff8000001078f9:	48 bb e0 15 13 00 00 	movabs $0xffff8000001315e0,%rbx
ffff800000107900:	80 ff ff 
ffff800000107903:	48 89 58 30          	mov    %rbx,0x30(%rax)
ffff800000107907:	48 8b 45 b0          	mov    -0x50(%rbp),%rax
ffff80000010790b:	48 8b 55 a8          	mov    -0x58(%rbp),%rdx
ffff80000010790f:	48 29 c2             	sub    %rax,%rdx
ffff800000107912:	48 89 d0             	mov    %rdx,%rax
ffff800000107915:	48 c1 e8 15          	shr    $0x15,%rax
ffff800000107919:	48 89 c2             	mov    %rax,%rdx
ffff80000010791c:	48 8b 45 a0          	mov    -0x60(%rbp),%rax
ffff800000107920:	48 89 50 08          	mov    %rdx,0x8(%rax)
ffff800000107924:	48 b8 e0 15 13 00 00 	movabs $0xffff8000001315e0,%rax
ffff80000010792b:	80 ff ff 
ffff80000010792e:	48 8b 88 a0 02 00 00 	mov    0x2a0(%rax),%rcx
ffff800000107935:	48 8b 45 b0          	mov    -0x50(%rbp),%rax
ffff800000107939:	48 c1 e8 15          	shr    $0x15,%rax
ffff80000010793d:	48 89 c2             	mov    %rax,%rdx
ffff800000107940:	48 89 d0             	mov    %rdx,%rax
ffff800000107943:	48 c1 e0 02          	shl    $0x2,%rax
ffff800000107947:	48 01 d0             	add    %rdx,%rax
ffff80000010794a:	48 c1 e0 03          	shl    $0x3,%rax
ffff80000010794e:	48 8d 14 01          	lea    (%rcx,%rax,1),%rdx
ffff800000107952:	48 8b 45 a0          	mov    -0x60(%rbp),%rax
ffff800000107956:	48 89 10             	mov    %rdx,(%rax)
ffff800000107959:	48 8b 45 a0          	mov    -0x60(%rbp),%rax
ffff80000010795d:	48 8b 00             	mov    (%rax),%rax
ffff800000107960:	48 89 45 d0          	mov    %rax,-0x30(%rbp)
ffff800000107964:	c7 45 e8 00 00 00 00 	movl   $0x0,-0x18(%rbp)
ffff80000010796b:	e9 c0 00 00 00       	jmpq   ffff800000107a30 <init_memory+0x8ee>
ffff800000107970:	48 8b 45 d0          	mov    -0x30(%rbp),%rax
ffff800000107974:	48 8b 55 a0          	mov    -0x60(%rbp),%rdx
ffff800000107978:	48 89 10             	mov    %rdx,(%rax)
ffff80000010797b:	8b 45 e8             	mov    -0x18(%rbp),%eax
ffff80000010797e:	48 98                	cltq   
ffff800000107980:	48 c1 e0 15          	shl    $0x15,%rax
ffff800000107984:	48 89 c2             	mov    %rax,%rdx
ffff800000107987:	48 8b 45 b0          	mov    -0x50(%rbp),%rax
ffff80000010798b:	48 01 c2             	add    %rax,%rdx
ffff80000010798e:	48 8b 45 d0          	mov    -0x30(%rbp),%rax
ffff800000107992:	48 89 50 08          	mov    %rdx,0x8(%rax)
ffff800000107996:	48 8b 45 d0          	mov    -0x30(%rbp),%rax
ffff80000010799a:	48 c7 40 10 00 00 00 	movq   $0x0,0x10(%rax)
ffff8000001079a1:	00 
ffff8000001079a2:	48 8b 45 d0          	mov    -0x30(%rbp),%rax
ffff8000001079a6:	48 c7 40 18 00 00 00 	movq   $0x0,0x18(%rax)
ffff8000001079ad:	00 
ffff8000001079ae:	48 8b 45 d0          	mov    -0x30(%rbp),%rax
ffff8000001079b2:	48 c7 40 20 00 00 00 	movq   $0x0,0x20(%rax)
ffff8000001079b9:	00 
ffff8000001079ba:	48 b8 e0 15 13 00 00 	movabs $0xffff8000001315e0,%rax
ffff8000001079c1:	80 ff ff 
ffff8000001079c4:	48 8b 90 88 02 00 00 	mov    0x288(%rax),%rdx
ffff8000001079cb:	48 8b 45 d0          	mov    -0x30(%rbp),%rax
ffff8000001079cf:	48 8b 40 08          	mov    0x8(%rax),%rax
ffff8000001079d3:	48 c1 e8 1b          	shr    $0x1b,%rax
ffff8000001079d7:	48 c1 e0 03          	shl    $0x3,%rax
ffff8000001079db:	48 01 c2             	add    %rax,%rdx
ffff8000001079de:	48 b8 e0 15 13 00 00 	movabs $0xffff8000001315e0,%rax
ffff8000001079e5:	80 ff ff 
ffff8000001079e8:	48 8b 88 88 02 00 00 	mov    0x288(%rax),%rcx
ffff8000001079ef:	48 8b 45 d0          	mov    -0x30(%rbp),%rax
ffff8000001079f3:	48 8b 40 08          	mov    0x8(%rax),%rax
ffff8000001079f7:	48 c1 e8 1b          	shr    $0x1b,%rax
ffff8000001079fb:	48 c1 e0 03          	shl    $0x3,%rax
ffff8000001079ff:	48 01 c8             	add    %rcx,%rax
ffff800000107a02:	48 8b 30             	mov    (%rax),%rsi
ffff800000107a05:	48 8b 45 d0          	mov    -0x30(%rbp),%rax
ffff800000107a09:	48 8b 40 08          	mov    0x8(%rax),%rax
ffff800000107a0d:	48 c1 e8 15          	shr    $0x15,%rax
ffff800000107a11:	83 e0 3f             	and    $0x3f,%eax
ffff800000107a14:	bf 01 00 00 00       	mov    $0x1,%edi
ffff800000107a19:	89 c1                	mov    %eax,%ecx
ffff800000107a1b:	48 d3 e7             	shl    %cl,%rdi
ffff800000107a1e:	48 89 f8             	mov    %rdi,%rax
ffff800000107a21:	48 31 f0             	xor    %rsi,%rax
ffff800000107a24:	48 89 02             	mov    %rax,(%rdx)
ffff800000107a27:	83 45 e8 01          	addl   $0x1,-0x18(%rbp)
ffff800000107a2b:	48 83 45 d0 28       	addq   $0x28,-0x30(%rbp)
ffff800000107a30:	8b 45 e8             	mov    -0x18(%rbp),%eax
ffff800000107a33:	48 63 d0             	movslq %eax,%rdx
ffff800000107a36:	48 8b 45 a0          	mov    -0x60(%rbp),%rax
ffff800000107a3a:	48 8b 40 08          	mov    0x8(%rax),%rax
ffff800000107a3e:	48 39 c2             	cmp    %rax,%rdx
ffff800000107a41:	0f 82 29 ff ff ff    	jb     ffff800000107970 <init_memory+0x82e>
ffff800000107a47:	83 45 ec 01          	addl   $0x1,-0x14(%rbp)
ffff800000107a4b:	8b 45 ec             	mov    -0x14(%rbp),%eax
ffff800000107a4e:	48 63 d0             	movslq %eax,%rdx
ffff800000107a51:	48 b8 e0 15 13 00 00 	movabs $0xffff8000001315e0,%rax
ffff800000107a58:	80 ff ff 
ffff800000107a5b:	48 8b 80 80 02 00 00 	mov    0x280(%rax),%rax
ffff800000107a62:	48 39 c2             	cmp    %rax,%rdx
ffff800000107a65:	0f 86 f4 fc ff ff    	jbe    ffff80000010775f <init_memory+0x61d>
ffff800000107a6b:	48 b8 e0 15 13 00 00 	movabs $0xffff8000001315e0,%rax
ffff800000107a72:	80 ff ff 
ffff800000107a75:	48 8b 80 a0 02 00 00 	mov    0x2a0(%rax),%rax
ffff800000107a7c:	48 ba e0 15 13 00 00 	movabs $0xffff8000001315e0,%rdx
ffff800000107a83:	80 ff ff 
ffff800000107a86:	48 8b 92 b8 02 00 00 	mov    0x2b8(%rdx),%rdx
ffff800000107a8d:	48 89 10             	mov    %rdx,(%rax)
ffff800000107a90:	48 b8 e0 15 13 00 00 	movabs $0xffff8000001315e0,%rax
ffff800000107a97:	80 ff ff 
ffff800000107a9a:	48 8b 80 a0 02 00 00 	mov    0x2a0(%rax),%rax
ffff800000107aa1:	48 c7 40 08 00 00 00 	movq   $0x0,0x8(%rax)
ffff800000107aa8:	00 
ffff800000107aa9:	48 b8 e0 15 13 00 00 	movabs $0xffff8000001315e0,%rax
ffff800000107ab0:	80 ff ff 
ffff800000107ab3:	48 8b 80 a0 02 00 00 	mov    0x2a0(%rax),%rax
ffff800000107aba:	be 0b 00 00 00       	mov    $0xb,%esi
ffff800000107abf:	48 89 c7             	mov    %rax,%rdi
ffff800000107ac2:	48 b8 ec 70 10 00 00 	movabs $0xffff8000001070ec,%rax
ffff800000107ac9:	80 ff ff 
ffff800000107acc:	ff d0                	callq  *%rax
ffff800000107ace:	48 b8 e0 15 13 00 00 	movabs $0xffff8000001315e0,%rax
ffff800000107ad5:	80 ff ff 
ffff800000107ad8:	48 8b 80 a0 02 00 00 	mov    0x2a0(%rax),%rax
ffff800000107adf:	48 c7 40 18 01 00 00 	movq   $0x1,0x18(%rax)
ffff800000107ae6:	00 
ffff800000107ae7:	48 b8 e0 15 13 00 00 	movabs $0xffff8000001315e0,%rax
ffff800000107aee:	80 ff ff 
ffff800000107af1:	48 8b 80 a0 02 00 00 	mov    0x2a0(%rax),%rax
ffff800000107af8:	48 c7 40 20 00 00 00 	movq   $0x0,0x20(%rax)
ffff800000107aff:	00 
ffff800000107b00:	48 b8 e0 15 13 00 00 	movabs $0xffff8000001315e0,%rax
ffff800000107b07:	80 ff ff 
ffff800000107b0a:	48 8b 90 c0 02 00 00 	mov    0x2c0(%rax),%rdx
ffff800000107b11:	48 89 d0             	mov    %rdx,%rax
ffff800000107b14:	48 c1 e0 02          	shl    $0x2,%rax
ffff800000107b18:	48 01 d0             	add    %rdx,%rax
ffff800000107b1b:	48 c1 e0 04          	shl    $0x4,%rax
ffff800000107b1f:	48 83 c0 07          	add    $0x7,%rax
ffff800000107b23:	48 83 e0 f8          	and    $0xfffffffffffffff8,%rax
ffff800000107b27:	48 89 c2             	mov    %rax,%rdx
ffff800000107b2a:	48 b8 e0 15 13 00 00 	movabs $0xffff8000001315e0,%rax
ffff800000107b31:	80 ff ff 
ffff800000107b34:	48 89 90 c8 02 00 00 	mov    %rdx,0x2c8(%rax)
ffff800000107b3b:	48 b8 08 10 13 00 00 	movabs $0xffff800000131008,%rax
ffff800000107b42:	80 ff ff 
ffff800000107b45:	c7 00 00 00 00 00    	movl   $0x0,(%rax)
ffff800000107b4b:	48 b8 0c 10 13 00 00 	movabs $0xffff80000013100c,%rax
ffff800000107b52:	80 ff ff 
ffff800000107b55:	c7 00 00 00 00 00    	movl   $0x0,(%rax)
ffff800000107b5b:	48 b8 10 10 13 00 00 	movabs $0xffff800000131010,%rax
ffff800000107b62:	80 ff ff 
ffff800000107b65:	c7 00 00 00 00 00    	movl   $0x0,(%rax)
ffff800000107b6b:	c7 45 ec 00 00 00 00 	movl   $0x0,-0x14(%rbp)
ffff800000107b72:	eb 61                	jmp    ffff800000107bd5 <init_memory+0xa93>
ffff800000107b74:	48 b8 e0 15 13 00 00 	movabs $0xffff8000001315e0,%rax
ffff800000107b7b:	80 ff ff 
ffff800000107b7e:	48 8b 88 b8 02 00 00 	mov    0x2b8(%rax),%rcx
ffff800000107b85:	8b 45 ec             	mov    -0x14(%rbp),%eax
ffff800000107b88:	48 63 d0             	movslq %eax,%rdx
ffff800000107b8b:	48 89 d0             	mov    %rdx,%rax
ffff800000107b8e:	48 c1 e0 02          	shl    $0x2,%rax
ffff800000107b92:	48 01 d0             	add    %rdx,%rax
ffff800000107b95:	48 c1 e0 04          	shl    $0x4,%rax
ffff800000107b99:	48 01 c8             	add    %rcx,%rax
ffff800000107b9c:	48 89 45 98          	mov    %rax,-0x68(%rbp)
ffff800000107ba0:	48 8b 45 98          	mov    -0x68(%rbp),%rax
ffff800000107ba4:	48 8b 50 10          	mov    0x10(%rax),%rdx
ffff800000107ba8:	b8 ff ff ff ff       	mov    $0xffffffff,%eax
ffff800000107bad:	48 39 c2             	cmp    %rax,%rdx
ffff800000107bb0:	76 1f                	jbe    ffff800000107bd1 <init_memory+0xa8f>
ffff800000107bb2:	48 b8 10 10 13 00 00 	movabs $0xffff800000131010,%rax
ffff800000107bb9:	80 ff ff 
ffff800000107bbc:	8b 00                	mov    (%rax),%eax
ffff800000107bbe:	85 c0                	test   %eax,%eax
ffff800000107bc0:	75 0f                	jne    ffff800000107bd1 <init_memory+0xa8f>
ffff800000107bc2:	48 b8 10 10 13 00 00 	movabs $0xffff800000131010,%rax
ffff800000107bc9:	80 ff ff 
ffff800000107bcc:	8b 55 ec             	mov    -0x14(%rbp),%edx
ffff800000107bcf:	89 10                	mov    %edx,(%rax)
ffff800000107bd1:	83 45 ec 01          	addl   $0x1,-0x14(%rbp)
ffff800000107bd5:	8b 45 ec             	mov    -0x14(%rbp),%eax
ffff800000107bd8:	48 63 d0             	movslq %eax,%rdx
ffff800000107bdb:	48 b8 e0 15 13 00 00 	movabs $0xffff8000001315e0,%rax
ffff800000107be2:	80 ff ff 
ffff800000107be5:	48 8b 80 c0 02 00 00 	mov    0x2c0(%rax),%rax
ffff800000107bec:	48 39 c2             	cmp    %rax,%rdx
ffff800000107bef:	72 83                	jb     ffff800000107b74 <init_memory+0xa32>
ffff800000107bf1:	48 b8 e0 15 13 00 00 	movabs $0xffff8000001315e0,%rax
ffff800000107bf8:	80 ff ff 
ffff800000107bfb:	48 8b 80 b8 02 00 00 	mov    0x2b8(%rax),%rax
ffff800000107c02:	48 89 c2             	mov    %rax,%rdx
ffff800000107c05:	48 b8 e0 15 13 00 00 	movabs $0xffff8000001315e0,%rax
ffff800000107c0c:	80 ff ff 
ffff800000107c0f:	48 8b 80 c8 02 00 00 	mov    0x2c8(%rax),%rax
ffff800000107c16:	48 01 d0             	add    %rdx,%rax
ffff800000107c19:	48 05 00 01 00 00    	add    $0x100,%rax
ffff800000107c1f:	48 83 e0 f8          	and    $0xfffffffffffffff8,%rax
ffff800000107c23:	48 89 c2             	mov    %rax,%rdx
ffff800000107c26:	48 b8 e0 15 13 00 00 	movabs $0xffff8000001315e0,%rax
ffff800000107c2d:	80 ff ff 
ffff800000107c30:	48 89 90 00 03 00 00 	mov    %rdx,0x300(%rax)
ffff800000107c37:	48 b8 e0 15 13 00 00 	movabs $0xffff8000001315e0,%rax
ffff800000107c3e:	80 ff ff 
ffff800000107c41:	48 8b 90 00 03 00 00 	mov    0x300(%rax),%rdx
ffff800000107c48:	48 b8 00 00 00 00 00 	movabs $0x800000000000,%rax
ffff800000107c4f:	80 00 00 
ffff800000107c52:	48 01 d0             	add    %rdx,%rax
ffff800000107c55:	48 c1 e8 15          	shr    $0x15,%rax
ffff800000107c59:	89 45 ec             	mov    %eax,-0x14(%rbp)
ffff800000107c5c:	c7 45 e8 01 00 00 00 	movl   $0x1,-0x18(%rbp)
ffff800000107c63:	e9 db 00 00 00       	jmpq   ffff800000107d43 <init_memory+0xc01>
ffff800000107c68:	48 b8 e0 15 13 00 00 	movabs $0xffff8000001315e0,%rax
ffff800000107c6f:	80 ff ff 
ffff800000107c72:	48 8b 88 a0 02 00 00 	mov    0x2a0(%rax),%rcx
ffff800000107c79:	8b 45 e8             	mov    -0x18(%rbp),%eax
ffff800000107c7c:	48 63 d0             	movslq %eax,%rdx
ffff800000107c7f:	48 89 d0             	mov    %rdx,%rax
ffff800000107c82:	48 c1 e0 02          	shl    $0x2,%rax
ffff800000107c86:	48 01 d0             	add    %rdx,%rax
ffff800000107c89:	48 c1 e0 03          	shl    $0x3,%rax
ffff800000107c8d:	48 01 c8             	add    %rcx,%rax
ffff800000107c90:	48 89 45 90          	mov    %rax,-0x70(%rbp)
ffff800000107c94:	48 8b 45 90          	mov    -0x70(%rbp),%rax
ffff800000107c98:	be 0b 00 00 00       	mov    $0xb,%esi
ffff800000107c9d:	48 89 c7             	mov    %rax,%rdi
ffff800000107ca0:	48 b8 dc 6f 10 00 00 	movabs $0xffff800000106fdc,%rax
ffff800000107ca7:	80 ff ff 
ffff800000107caa:	ff d0                	callq  *%rax
ffff800000107cac:	48 b8 e0 15 13 00 00 	movabs $0xffff8000001315e0,%rax
ffff800000107cb3:	80 ff ff 
ffff800000107cb6:	48 8b 90 88 02 00 00 	mov    0x288(%rax),%rdx
ffff800000107cbd:	48 8b 45 90          	mov    -0x70(%rbp),%rax
ffff800000107cc1:	48 8b 40 08          	mov    0x8(%rax),%rax
ffff800000107cc5:	48 c1 e8 1b          	shr    $0x1b,%rax
ffff800000107cc9:	48 c1 e0 03          	shl    $0x3,%rax
ffff800000107ccd:	48 01 c2             	add    %rax,%rdx
ffff800000107cd0:	48 b8 e0 15 13 00 00 	movabs $0xffff8000001315e0,%rax
ffff800000107cd7:	80 ff ff 
ffff800000107cda:	48 8b 88 88 02 00 00 	mov    0x288(%rax),%rcx
ffff800000107ce1:	48 8b 45 90          	mov    -0x70(%rbp),%rax
ffff800000107ce5:	48 8b 40 08          	mov    0x8(%rax),%rax
ffff800000107ce9:	48 c1 e8 1b          	shr    $0x1b,%rax
ffff800000107ced:	48 c1 e0 03          	shl    $0x3,%rax
ffff800000107cf1:	48 01 c8             	add    %rcx,%rax
ffff800000107cf4:	48 8b 30             	mov    (%rax),%rsi
ffff800000107cf7:	48 8b 45 90          	mov    -0x70(%rbp),%rax
ffff800000107cfb:	48 8b 40 08          	mov    0x8(%rax),%rax
ffff800000107cff:	48 c1 e8 15          	shr    $0x15,%rax
ffff800000107d03:	83 e0 3f             	and    $0x3f,%eax
ffff800000107d06:	bf 01 00 00 00       	mov    $0x1,%edi
ffff800000107d0b:	89 c1                	mov    %eax,%ecx
ffff800000107d0d:	48 d3 e7             	shl    %cl,%rdi
ffff800000107d10:	48 89 f8             	mov    %rdi,%rax
ffff800000107d13:	48 09 f0             	or     %rsi,%rax
ffff800000107d16:	48 89 02             	mov    %rax,(%rdx)
ffff800000107d19:	48 8b 45 90          	mov    -0x70(%rbp),%rax
ffff800000107d1d:	48 8b 00             	mov    (%rax),%rax
ffff800000107d20:	48 8b 50 38          	mov    0x38(%rax),%rdx
ffff800000107d24:	48 83 c2 01          	add    $0x1,%rdx
ffff800000107d28:	48 89 50 38          	mov    %rdx,0x38(%rax)
ffff800000107d2c:	48 8b 45 90          	mov    -0x70(%rbp),%rax
ffff800000107d30:	48 8b 00             	mov    (%rax),%rax
ffff800000107d33:	48 8b 50 40          	mov    0x40(%rax),%rdx
ffff800000107d37:	48 83 ea 01          	sub    $0x1,%rdx
ffff800000107d3b:	48 89 50 40          	mov    %rdx,0x40(%rax)
ffff800000107d3f:	83 45 e8 01          	addl   $0x1,-0x18(%rbp)
ffff800000107d43:	8b 45 e8             	mov    -0x18(%rbp),%eax
ffff800000107d46:	3b 45 ec             	cmp    -0x14(%rbp),%eax
ffff800000107d49:	0f 8e 19 ff ff ff    	jle    ffff800000107c68 <init_memory+0xb26>
ffff800000107d4f:	b8 00 00 00 00       	mov    $0x0,%eax
ffff800000107d54:	48 ba 3d 43 10 00 00 	movabs $0xffff80000010433d,%rdx
ffff800000107d5b:	80 ff ff 
ffff800000107d5e:	ff d2                	callq  *%rdx
ffff800000107d60:	48 89 45 c8          	mov    %rax,-0x38(%rbp)
ffff800000107d64:	0f 20 d8             	mov    %cr3,%rax
ffff800000107d67:	0f 22 d8             	mov    %rax,%cr3
ffff800000107d6a:	48 89 45 88          	mov    %rax,-0x78(%rbp)
ffff800000107d6e:	48 83 c4 78          	add    $0x78,%rsp
ffff800000107d72:	5b                   	pop    %rbx
ffff800000107d73:	5d                   	pop    %rbp
ffff800000107d74:	c3                   	retq   

ffff800000107d75 <alloc_pages>:
ffff800000107d75:	55                   	push   %rbp
ffff800000107d76:	48 89 e5             	mov    %rsp,%rbp
ffff800000107d79:	48 81 ec 90 00 00 00 	sub    $0x90,%rsp
ffff800000107d80:	89 bd 7c ff ff ff    	mov    %edi,-0x84(%rbp)
ffff800000107d86:	89 b5 78 ff ff ff    	mov    %esi,-0x88(%rbp)
ffff800000107d8c:	48 89 95 70 ff ff ff 	mov    %rdx,-0x90(%rbp)
ffff800000107d93:	48 c7 45 c8 00 00 00 	movq   $0x0,-0x38(%rbp)
ffff800000107d9a:	00 
ffff800000107d9b:	48 c7 45 f0 00 00 00 	movq   $0x0,-0x10(%rbp)
ffff800000107da2:	00 
ffff800000107da3:	c7 45 ec 00 00 00 00 	movl   $0x0,-0x14(%rbp)
ffff800000107daa:	c7 45 e8 00 00 00 00 	movl   $0x0,-0x18(%rbp)
ffff800000107db1:	83 bd 78 ff ff ff 3f 	cmpl   $0x3f,-0x88(%rbp)
ffff800000107db8:	7f 09                	jg     ffff800000107dc3 <alloc_pages+0x4e>
ffff800000107dba:	83 bd 78 ff ff ff 00 	cmpl   $0x0,-0x88(%rbp)
ffff800000107dc1:	7f 2f                	jg     ffff800000107df2 <alloc_pages+0x7d>
ffff800000107dc3:	48 ba 50 a2 11 00 00 	movabs $0xffff80000011a250,%rdx
ffff800000107dca:	80 ff ff 
ffff800000107dcd:	be 00 00 00 00       	mov    $0x0,%esi
ffff800000107dd2:	bf 00 00 ff 00       	mov    $0xff0000,%edi
ffff800000107dd7:	b8 00 00 00 00       	mov    $0x0,%eax
ffff800000107ddc:	48 b9 d0 56 10 00 00 	movabs $0xffff8000001056d0,%rcx
ffff800000107de3:	80 ff ff 
ffff800000107de6:	ff d1                	callq  *%rcx
ffff800000107de8:	b8 00 00 00 00       	mov    $0x0,%eax
ffff800000107ded:	e9 ce 03 00 00       	jmpq   ffff8000001081c0 <alloc_pages+0x44b>
ffff800000107df2:	8b 85 7c ff ff ff    	mov    -0x84(%rbp),%eax
ffff800000107df8:	83 f8 02             	cmp    $0x2,%eax
ffff800000107dfb:	74 2d                	je     ffff800000107e2a <alloc_pages+0xb5>
ffff800000107dfd:	83 f8 04             	cmp    $0x4,%eax
ffff800000107e00:	74 50                	je     ffff800000107e52 <alloc_pages+0xdd>
ffff800000107e02:	83 f8 01             	cmp    $0x1,%eax
ffff800000107e05:	75 7b                	jne    ffff800000107e82 <alloc_pages+0x10d>
ffff800000107e07:	c7 45 ec 00 00 00 00 	movl   $0x0,-0x14(%rbp)
ffff800000107e0e:	48 b8 08 10 13 00 00 	movabs $0xffff800000131008,%rax
ffff800000107e15:	80 ff ff 
ffff800000107e18:	8b 00                	mov    (%rax),%eax
ffff800000107e1a:	89 45 e8             	mov    %eax,-0x18(%rbp)
ffff800000107e1d:	48 c7 45 f0 01 00 00 	movq   $0x1,-0x10(%rbp)
ffff800000107e24:	00 
ffff800000107e25:	e9 87 00 00 00       	jmpq   ffff800000107eb1 <alloc_pages+0x13c>
ffff800000107e2a:	48 b8 08 10 13 00 00 	movabs $0xffff800000131008,%rax
ffff800000107e31:	80 ff ff 
ffff800000107e34:	8b 00                	mov    (%rax),%eax
ffff800000107e36:	89 45 ec             	mov    %eax,-0x14(%rbp)
ffff800000107e39:	48 b8 0c 10 13 00 00 	movabs $0xffff80000013100c,%rax
ffff800000107e40:	80 ff ff 
ffff800000107e43:	8b 00                	mov    (%rax),%eax
ffff800000107e45:	89 45 e8             	mov    %eax,-0x18(%rbp)
ffff800000107e48:	48 c7 45 f0 01 00 00 	movq   $0x1,-0x10(%rbp)
ffff800000107e4f:	00 
ffff800000107e50:	eb 5f                	jmp    ffff800000107eb1 <alloc_pages+0x13c>
ffff800000107e52:	48 b8 10 10 13 00 00 	movabs $0xffff800000131010,%rax
ffff800000107e59:	80 ff ff 
ffff800000107e5c:	8b 00                	mov    (%rax),%eax
ffff800000107e5e:	89 45 ec             	mov    %eax,-0x14(%rbp)
ffff800000107e61:	48 b8 e0 15 13 00 00 	movabs $0xffff8000001315e0,%rax
ffff800000107e68:	80 ff ff 
ffff800000107e6b:	48 8b 80 c0 02 00 00 	mov    0x2c0(%rax),%rax
ffff800000107e72:	83 e8 01             	sub    $0x1,%eax
ffff800000107e75:	89 45 e8             	mov    %eax,-0x18(%rbp)
ffff800000107e78:	48 c7 45 f0 00 00 00 	movq   $0x0,-0x10(%rbp)
ffff800000107e7f:	00 
ffff800000107e80:	eb 2f                	jmp    ffff800000107eb1 <alloc_pages+0x13c>
ffff800000107e82:	48 ba 78 a2 11 00 00 	movabs $0xffff80000011a278,%rdx
ffff800000107e89:	80 ff ff 
ffff800000107e8c:	be 00 00 00 00       	mov    $0x0,%esi
ffff800000107e91:	bf 00 00 ff 00       	mov    $0xff0000,%edi
ffff800000107e96:	b8 00 00 00 00       	mov    $0x0,%eax
ffff800000107e9b:	48 b9 d0 56 10 00 00 	movabs $0xffff8000001056d0,%rcx
ffff800000107ea2:	80 ff ff 
ffff800000107ea5:	ff d1                	callq  *%rcx
ffff800000107ea7:	b8 00 00 00 00       	mov    $0x0,%eax
ffff800000107eac:	e9 0f 03 00 00       	jmpq   ffff8000001081c0 <alloc_pages+0x44b>
ffff800000107eb1:	8b 45 ec             	mov    -0x14(%rbp),%eax
ffff800000107eb4:	89 45 fc             	mov    %eax,-0x4(%rbp)
ffff800000107eb7:	e9 ce 02 00 00       	jmpq   ffff80000010818a <alloc_pages+0x415>
ffff800000107ebc:	48 b8 e0 15 13 00 00 	movabs $0xffff8000001315e0,%rax
ffff800000107ec3:	80 ff ff 
ffff800000107ec6:	48 8b 88 b8 02 00 00 	mov    0x2b8(%rax),%rcx
ffff800000107ecd:	8b 45 fc             	mov    -0x4(%rbp),%eax
ffff800000107ed0:	48 63 d0             	movslq %eax,%rdx
ffff800000107ed3:	48 89 d0             	mov    %rdx,%rax
ffff800000107ed6:	48 c1 e0 02          	shl    $0x2,%rax
ffff800000107eda:	48 01 d0             	add    %rdx,%rax
ffff800000107edd:	48 c1 e0 04          	shl    $0x4,%rax
ffff800000107ee1:	48 01 c8             	add    %rcx,%rax
ffff800000107ee4:	48 8b 50 40          	mov    0x40(%rax),%rdx
ffff800000107ee8:	8b 85 78 ff ff ff    	mov    -0x88(%rbp),%eax
ffff800000107eee:	48 98                	cltq   
ffff800000107ef0:	48 39 c2             	cmp    %rax,%rdx
ffff800000107ef3:	73 05                	jae    ffff800000107efa <alloc_pages+0x185>
ffff800000107ef5:	e9 8c 02 00 00       	jmpq   ffff800000108186 <alloc_pages+0x411>
ffff800000107efa:	48 b8 e0 15 13 00 00 	movabs $0xffff8000001315e0,%rax
ffff800000107f01:	80 ff ff 
ffff800000107f04:	48 8b 88 b8 02 00 00 	mov    0x2b8(%rax),%rcx
ffff800000107f0b:	8b 45 fc             	mov    -0x4(%rbp),%eax
ffff800000107f0e:	48 63 d0             	movslq %eax,%rdx
ffff800000107f11:	48 89 d0             	mov    %rdx,%rax
ffff800000107f14:	48 c1 e0 02          	shl    $0x2,%rax
ffff800000107f18:	48 01 d0             	add    %rdx,%rax
ffff800000107f1b:	48 c1 e0 04          	shl    $0x4,%rax
ffff800000107f1f:	48 01 c8             	add    %rcx,%rax
ffff800000107f22:	48 89 45 c0          	mov    %rax,-0x40(%rbp)
ffff800000107f26:	48 8b 45 c0          	mov    -0x40(%rbp),%rax
ffff800000107f2a:	48 8b 40 10          	mov    0x10(%rax),%rax
ffff800000107f2e:	48 c1 e8 15          	shr    $0x15,%rax
ffff800000107f32:	48 89 45 b8          	mov    %rax,-0x48(%rbp)
ffff800000107f36:	48 8b 45 c0          	mov    -0x40(%rbp),%rax
ffff800000107f3a:	48 8b 40 18          	mov    0x18(%rax),%rax
ffff800000107f3e:	48 c1 e8 15          	shr    $0x15,%rax
ffff800000107f42:	48 89 45 b0          	mov    %rax,-0x50(%rbp)
ffff800000107f46:	48 8b 45 b8          	mov    -0x48(%rbp),%rax
ffff800000107f4a:	83 e0 3f             	and    $0x3f,%eax
ffff800000107f4d:	48 89 c2             	mov    %rax,%rdx
ffff800000107f50:	b8 40 00 00 00       	mov    $0x40,%eax
ffff800000107f55:	48 29 d0             	sub    %rdx,%rax
ffff800000107f58:	48 89 45 a8          	mov    %rax,-0x58(%rbp)
ffff800000107f5c:	48 8b 45 b8          	mov    -0x48(%rbp),%rax
ffff800000107f60:	48 89 45 e0          	mov    %rax,-0x20(%rbp)
ffff800000107f64:	e9 0f 02 00 00       	jmpq   ffff800000108178 <alloc_pages+0x403>
ffff800000107f69:	48 b8 e0 15 13 00 00 	movabs $0xffff8000001315e0,%rax
ffff800000107f70:	80 ff ff 
ffff800000107f73:	48 8b 80 88 02 00 00 	mov    0x288(%rax),%rax
ffff800000107f7a:	48 8b 55 e0          	mov    -0x20(%rbp),%rdx
ffff800000107f7e:	48 c1 ea 06          	shr    $0x6,%rdx
ffff800000107f82:	48 c1 e2 03          	shl    $0x3,%rdx
ffff800000107f86:	48 01 d0             	add    %rdx,%rax
ffff800000107f89:	48 89 45 a0          	mov    %rax,-0x60(%rbp)
ffff800000107f8d:	48 c7 45 d8 00 00 00 	movq   $0x0,-0x28(%rbp)
ffff800000107f94:	00 
ffff800000107f95:	48 8b 45 e0          	mov    -0x20(%rbp),%rax
ffff800000107f99:	83 e0 3f             	and    $0x3f,%eax
ffff800000107f9c:	48 89 45 98          	mov    %rax,-0x68(%rbp)
ffff800000107fa0:	8b 85 78 ff ff ff    	mov    -0x88(%rbp),%eax
ffff800000107fa6:	ba 01 00 00 00       	mov    $0x1,%edx
ffff800000107fab:	89 c1                	mov    %eax,%ecx
ffff800000107fad:	48 d3 e2             	shl    %cl,%rdx
ffff800000107fb0:	48 89 d0             	mov    %rdx,%rax
ffff800000107fb3:	48 83 e8 01          	sub    $0x1,%rax
ffff800000107fb7:	48 89 45 90          	mov    %rax,-0x70(%rbp)
ffff800000107fbb:	48 8b 45 98          	mov    -0x68(%rbp),%rax
ffff800000107fbf:	48 89 45 d8          	mov    %rax,-0x28(%rbp)
ffff800000107fc3:	e9 8a 01 00 00       	jmpq   ffff800000108152 <alloc_pages+0x3dd>
ffff800000107fc8:	48 83 7d d8 00       	cmpq   $0x0,-0x28(%rbp)
ffff800000107fcd:	74 38                	je     ffff800000108007 <alloc_pages+0x292>
ffff800000107fcf:	48 8b 45 a0          	mov    -0x60(%rbp),%rax
ffff800000107fd3:	48 8b 10             	mov    (%rax),%rdx
ffff800000107fd6:	48 8b 45 d8          	mov    -0x28(%rbp),%rax
ffff800000107fda:	48 89 d6             	mov    %rdx,%rsi
ffff800000107fdd:	89 c1                	mov    %eax,%ecx
ffff800000107fdf:	48 d3 ee             	shr    %cl,%rsi
ffff800000107fe2:	48 8b 45 a0          	mov    -0x60(%rbp),%rax
ffff800000107fe6:	48 83 c0 08          	add    $0x8,%rax
ffff800000107fea:	48 8b 10             	mov    (%rax),%rdx
ffff800000107fed:	48 8b 45 d8          	mov    -0x28(%rbp),%rax
ffff800000107ff1:	b9 40 00 00 00       	mov    $0x40,%ecx
ffff800000107ff6:	29 c1                	sub    %eax,%ecx
ffff800000107ff8:	89 c8                	mov    %ecx,%eax
ffff800000107ffa:	89 c1                	mov    %eax,%ecx
ffff800000107ffc:	48 d3 e2             	shl    %cl,%rdx
ffff800000107fff:	48 89 d0             	mov    %rdx,%rax
ffff800000108002:	48 09 f0             	or     %rsi,%rax
ffff800000108005:	eb 07                	jmp    ffff80000010800e <alloc_pages+0x299>
ffff800000108007:	48 8b 45 a0          	mov    -0x60(%rbp),%rax
ffff80000010800b:	48 8b 00             	mov    (%rax),%rax
ffff80000010800e:	48 23 45 90          	and    -0x70(%rbp),%rax
ffff800000108012:	48 85 c0             	test   %rax,%rax
ffff800000108015:	0f 85 32 01 00 00    	jne    ffff80000010814d <alloc_pages+0x3d8>
ffff80000010801b:	48 8b 45 d8          	mov    -0x28(%rbp),%rax
ffff80000010801f:	48 8b 55 e0          	mov    -0x20(%rbp),%rdx
ffff800000108023:	48 01 d0             	add    %rdx,%rax
ffff800000108026:	48 2b 45 98          	sub    -0x68(%rbp),%rax
ffff80000010802a:	48 89 45 c8          	mov    %rax,-0x38(%rbp)
ffff80000010802e:	48 c7 45 d0 00 00 00 	movq   $0x0,-0x30(%rbp)
ffff800000108035:	00 
ffff800000108036:	e9 d7 00 00 00       	jmpq   ffff800000108112 <alloc_pages+0x39d>
ffff80000010803b:	48 b8 e0 15 13 00 00 	movabs $0xffff8000001315e0,%rax
ffff800000108042:	80 ff ff 
ffff800000108045:	48 8b 88 a0 02 00 00 	mov    0x2a0(%rax),%rcx
ffff80000010804c:	48 8b 45 d0          	mov    -0x30(%rbp),%rax
ffff800000108050:	48 8b 55 c8          	mov    -0x38(%rbp),%rdx
ffff800000108054:	48 01 c2             	add    %rax,%rdx
ffff800000108057:	48 89 d0             	mov    %rdx,%rax
ffff80000010805a:	48 c1 e0 02          	shl    $0x2,%rax
ffff80000010805e:	48 01 d0             	add    %rdx,%rax
ffff800000108061:	48 c1 e0 03          	shl    $0x3,%rax
ffff800000108065:	48 01 c8             	add    %rcx,%rax
ffff800000108068:	48 89 45 88          	mov    %rax,-0x78(%rbp)
ffff80000010806c:	48 b8 e0 15 13 00 00 	movabs $0xffff8000001315e0,%rax
ffff800000108073:	80 ff ff 
ffff800000108076:	48 8b 90 88 02 00 00 	mov    0x288(%rax),%rdx
ffff80000010807d:	48 8b 45 88          	mov    -0x78(%rbp),%rax
ffff800000108081:	48 8b 40 08          	mov    0x8(%rax),%rax
ffff800000108085:	48 c1 e8 1b          	shr    $0x1b,%rax
ffff800000108089:	48 c1 e0 03          	shl    $0x3,%rax
ffff80000010808d:	48 01 c2             	add    %rax,%rdx
ffff800000108090:	48 b8 e0 15 13 00 00 	movabs $0xffff8000001315e0,%rax
ffff800000108097:	80 ff ff 
ffff80000010809a:	48 8b 88 88 02 00 00 	mov    0x288(%rax),%rcx
ffff8000001080a1:	48 8b 45 88          	mov    -0x78(%rbp),%rax
ffff8000001080a5:	48 8b 40 08          	mov    0x8(%rax),%rax
ffff8000001080a9:	48 c1 e8 1b          	shr    $0x1b,%rax
ffff8000001080ad:	48 c1 e0 03          	shl    $0x3,%rax
ffff8000001080b1:	48 01 c8             	add    %rcx,%rax
ffff8000001080b4:	48 8b 30             	mov    (%rax),%rsi
ffff8000001080b7:	48 8b 45 88          	mov    -0x78(%rbp),%rax
ffff8000001080bb:	48 8b 40 08          	mov    0x8(%rax),%rax
ffff8000001080bf:	48 c1 e8 15          	shr    $0x15,%rax
ffff8000001080c3:	83 e0 3f             	and    $0x3f,%eax
ffff8000001080c6:	bf 01 00 00 00       	mov    $0x1,%edi
ffff8000001080cb:	89 c1                	mov    %eax,%ecx
ffff8000001080cd:	48 d3 e7             	shl    %cl,%rdi
ffff8000001080d0:	48 89 f8             	mov    %rdi,%rax
ffff8000001080d3:	48 09 f0             	or     %rsi,%rax
ffff8000001080d6:	48 89 02             	mov    %rax,(%rdx)
ffff8000001080d9:	48 8b 45 c0          	mov    -0x40(%rbp),%rax
ffff8000001080dd:	48 8b 40 38          	mov    0x38(%rax),%rax
ffff8000001080e1:	48 8d 50 01          	lea    0x1(%rax),%rdx
ffff8000001080e5:	48 8b 45 c0          	mov    -0x40(%rbp),%rax
ffff8000001080e9:	48 89 50 38          	mov    %rdx,0x38(%rax)
ffff8000001080ed:	48 8b 45 c0          	mov    -0x40(%rbp),%rax
ffff8000001080f1:	48 8b 40 40          	mov    0x40(%rax),%rax
ffff8000001080f5:	48 8d 50 ff          	lea    -0x1(%rax),%rdx
ffff8000001080f9:	48 8b 45 c0          	mov    -0x40(%rbp),%rax
ffff8000001080fd:	48 89 50 40          	mov    %rdx,0x40(%rax)
ffff800000108101:	48 8b 45 88          	mov    -0x78(%rbp),%rax
ffff800000108105:	48 8b 55 f0          	mov    -0x10(%rbp),%rdx
ffff800000108109:	48 89 50 10          	mov    %rdx,0x10(%rax)
ffff80000010810d:	48 83 45 d0 01       	addq   $0x1,-0x30(%rbp)
ffff800000108112:	8b 85 78 ff ff ff    	mov    -0x88(%rbp),%eax
ffff800000108118:	48 98                	cltq   
ffff80000010811a:	48 3b 45 d0          	cmp    -0x30(%rbp),%rax
ffff80000010811e:	0f 87 17 ff ff ff    	ja     ffff80000010803b <alloc_pages+0x2c6>
ffff800000108124:	90                   	nop
ffff800000108125:	48 b8 e0 15 13 00 00 	movabs $0xffff8000001315e0,%rax
ffff80000010812c:	80 ff ff 
ffff80000010812f:	48 8b 88 a0 02 00 00 	mov    0x2a0(%rax),%rcx
ffff800000108136:	48 8b 55 c8          	mov    -0x38(%rbp),%rdx
ffff80000010813a:	48 89 d0             	mov    %rdx,%rax
ffff80000010813d:	48 c1 e0 02          	shl    $0x2,%rax
ffff800000108141:	48 01 d0             	add    %rdx,%rax
ffff800000108144:	48 c1 e0 03          	shl    $0x3,%rax
ffff800000108148:	48 01 c8             	add    %rcx,%rax
ffff80000010814b:	eb 73                	jmp    ffff8000001081c0 <alloc_pages+0x44b>
ffff80000010814d:	48 83 45 d8 01       	addq   $0x1,-0x28(%rbp)
ffff800000108152:	48 83 7d d8 3f       	cmpq   $0x3f,-0x28(%rbp)
ffff800000108157:	0f 86 6b fe ff ff    	jbe    ffff800000107fc8 <alloc_pages+0x253>
ffff80000010815d:	48 8b 45 e0          	mov    -0x20(%rbp),%rax
ffff800000108161:	83 e0 3f             	and    $0x3f,%eax
ffff800000108164:	48 85 c0             	test   %rax,%rax
ffff800000108167:	74 06                	je     ffff80000010816f <alloc_pages+0x3fa>
ffff800000108169:	48 8b 45 a8          	mov    -0x58(%rbp),%rax
ffff80000010816d:	eb 05                	jmp    ffff800000108174 <alloc_pages+0x3ff>
ffff80000010816f:	b8 40 00 00 00       	mov    $0x40,%eax
ffff800000108174:	48 01 45 e0          	add    %rax,-0x20(%rbp)
ffff800000108178:	48 8b 45 e0          	mov    -0x20(%rbp),%rax
ffff80000010817c:	48 3b 45 b0          	cmp    -0x50(%rbp),%rax
ffff800000108180:	0f 82 e3 fd ff ff    	jb     ffff800000107f69 <alloc_pages+0x1f4>
ffff800000108186:	83 45 fc 01          	addl   $0x1,-0x4(%rbp)
ffff80000010818a:	8b 45 fc             	mov    -0x4(%rbp),%eax
ffff80000010818d:	3b 45 e8             	cmp    -0x18(%rbp),%eax
ffff800000108190:	0f 8e 26 fd ff ff    	jle    ffff800000107ebc <alloc_pages+0x147>
ffff800000108196:	48 ba b0 a2 11 00 00 	movabs $0xffff80000011a2b0,%rdx
ffff80000010819d:	80 ff ff 
ffff8000001081a0:	be 00 00 00 00       	mov    $0x0,%esi
ffff8000001081a5:	bf 00 00 ff 00       	mov    $0xff0000,%edi
ffff8000001081aa:	b8 00 00 00 00       	mov    $0x0,%eax
ffff8000001081af:	48 b9 d0 56 10 00 00 	movabs $0xffff8000001056d0,%rcx
ffff8000001081b6:	80 ff ff 
ffff8000001081b9:	ff d1                	callq  *%rcx
ffff8000001081bb:	b8 00 00 00 00       	mov    $0x0,%eax
ffff8000001081c0:	c9                   	leaveq 
ffff8000001081c1:	c3                   	retq   

ffff8000001081c2 <free_pages>:
ffff8000001081c2:	55                   	push   %rbp
ffff8000001081c3:	48 89 e5             	mov    %rsp,%rbp
ffff8000001081c6:	48 83 ec 20          	sub    $0x20,%rsp
ffff8000001081ca:	48 89 7d e8          	mov    %rdi,-0x18(%rbp)
ffff8000001081ce:	89 75 e4             	mov    %esi,-0x1c(%rbp)
ffff8000001081d1:	c7 45 fc 00 00 00 00 	movl   $0x0,-0x4(%rbp)
ffff8000001081d8:	48 83 7d e8 00       	cmpq   $0x0,-0x18(%rbp)
ffff8000001081dd:	75 2a                	jne    ffff800000108209 <free_pages+0x47>
ffff8000001081df:	48 ba d8 a2 11 00 00 	movabs $0xffff80000011a2d8,%rdx
ffff8000001081e6:	80 ff ff 
ffff8000001081e9:	be 00 00 00 00       	mov    $0x0,%esi
ffff8000001081ee:	bf 00 00 ff 00       	mov    $0xff0000,%edi
ffff8000001081f3:	b8 00 00 00 00       	mov    $0x0,%eax
ffff8000001081f8:	48 b9 d0 56 10 00 00 	movabs $0xffff8000001056d0,%rcx
ffff8000001081ff:	80 ff ff 
ffff800000108202:	ff d1                	callq  *%rcx
ffff800000108204:	e9 f9 00 00 00       	jmpq   ffff800000108302 <free_pages+0x140>
ffff800000108209:	83 7d e4 3f          	cmpl   $0x3f,-0x1c(%rbp)
ffff80000010820d:	7f 06                	jg     ffff800000108215 <free_pages+0x53>
ffff80000010820f:	83 7d e4 00          	cmpl   $0x0,-0x1c(%rbp)
ffff800000108213:	7f 2a                	jg     ffff80000010823f <free_pages+0x7d>
ffff800000108215:	48 ba 00 a3 11 00 00 	movabs $0xffff80000011a300,%rdx
ffff80000010821c:	80 ff ff 
ffff80000010821f:	be 00 00 00 00       	mov    $0x0,%esi
ffff800000108224:	bf 00 00 ff 00       	mov    $0xff0000,%edi
ffff800000108229:	b8 00 00 00 00       	mov    $0x0,%eax
ffff80000010822e:	48 b9 d0 56 10 00 00 	movabs $0xffff8000001056d0,%rcx
ffff800000108235:	80 ff ff 
ffff800000108238:	ff d1                	callq  *%rcx
ffff80000010823a:	e9 c3 00 00 00       	jmpq   ffff800000108302 <free_pages+0x140>
ffff80000010823f:	c7 45 fc 00 00 00 00 	movl   $0x0,-0x4(%rbp)
ffff800000108246:	e9 ab 00 00 00       	jmpq   ffff8000001082f6 <free_pages+0x134>
ffff80000010824b:	48 b8 e0 15 13 00 00 	movabs $0xffff8000001315e0,%rax
ffff800000108252:	80 ff ff 
ffff800000108255:	48 8b 90 88 02 00 00 	mov    0x288(%rax),%rdx
ffff80000010825c:	48 8b 45 e8          	mov    -0x18(%rbp),%rax
ffff800000108260:	48 8b 40 08          	mov    0x8(%rax),%rax
ffff800000108264:	48 c1 e8 1b          	shr    $0x1b,%rax
ffff800000108268:	48 c1 e0 03          	shl    $0x3,%rax
ffff80000010826c:	48 01 c2             	add    %rax,%rdx
ffff80000010826f:	48 b8 e0 15 13 00 00 	movabs $0xffff8000001315e0,%rax
ffff800000108276:	80 ff ff 
ffff800000108279:	48 8b 88 88 02 00 00 	mov    0x288(%rax),%rcx
ffff800000108280:	48 8b 45 e8          	mov    -0x18(%rbp),%rax
ffff800000108284:	48 8b 40 08          	mov    0x8(%rax),%rax
ffff800000108288:	48 c1 e8 1b          	shr    $0x1b,%rax
ffff80000010828c:	48 c1 e0 03          	shl    $0x3,%rax
ffff800000108290:	48 01 c8             	add    %rcx,%rax
ffff800000108293:	48 8b 30             	mov    (%rax),%rsi
ffff800000108296:	48 8b 45 e8          	mov    -0x18(%rbp),%rax
ffff80000010829a:	48 8b 40 08          	mov    0x8(%rax),%rax
ffff80000010829e:	48 c1 e8 15          	shr    $0x15,%rax
ffff8000001082a2:	83 e0 3f             	and    $0x3f,%eax
ffff8000001082a5:	bf 01 00 00 00       	mov    $0x1,%edi
ffff8000001082aa:	89 c1                	mov    %eax,%ecx
ffff8000001082ac:	48 d3 e7             	shl    %cl,%rdi
ffff8000001082af:	48 89 f8             	mov    %rdi,%rax
ffff8000001082b2:	48 f7 d0             	not    %rax
ffff8000001082b5:	48 21 f0             	and    %rsi,%rax
ffff8000001082b8:	48 89 02             	mov    %rax,(%rdx)
ffff8000001082bb:	48 8b 45 e8          	mov    -0x18(%rbp),%rax
ffff8000001082bf:	48 8b 00             	mov    (%rax),%rax
ffff8000001082c2:	48 8b 50 38          	mov    0x38(%rax),%rdx
ffff8000001082c6:	48 83 ea 01          	sub    $0x1,%rdx
ffff8000001082ca:	48 89 50 38          	mov    %rdx,0x38(%rax)
ffff8000001082ce:	48 8b 45 e8          	mov    -0x18(%rbp),%rax
ffff8000001082d2:	48 8b 00             	mov    (%rax),%rax
ffff8000001082d5:	48 8b 50 40          	mov    0x40(%rax),%rdx
ffff8000001082d9:	48 83 c2 01          	add    $0x1,%rdx
ffff8000001082dd:	48 89 50 40          	mov    %rdx,0x40(%rax)
ffff8000001082e1:	48 8b 45 e8          	mov    -0x18(%rbp),%rax
ffff8000001082e5:	48 c7 40 10 00 00 00 	movq   $0x0,0x10(%rax)
ffff8000001082ec:	00 
ffff8000001082ed:	83 45 fc 01          	addl   $0x1,-0x4(%rbp)
ffff8000001082f1:	48 83 45 e8 28       	addq   $0x28,-0x18(%rbp)
ffff8000001082f6:	8b 45 fc             	mov    -0x4(%rbp),%eax
ffff8000001082f9:	3b 45 e4             	cmp    -0x1c(%rbp),%eax
ffff8000001082fc:	0f 8c 49 ff ff ff    	jl     ffff80000010824b <free_pages+0x89>
ffff800000108302:	c9                   	leaveq 
ffff800000108303:	c3                   	retq   

ffff800000108304 <kmalloc>:
ffff800000108304:	55                   	push   %rbp
ffff800000108305:	48 89 e5             	mov    %rsp,%rbp
ffff800000108308:	48 83 ec 30          	sub    $0x30,%rsp
ffff80000010830c:	48 89 7d d8          	mov    %rdi,-0x28(%rbp)
ffff800000108310:	48 89 75 d0          	mov    %rsi,-0x30(%rbp)
ffff800000108314:	48 c7 45 f0 00 00 00 	movq   $0x0,-0x10(%rbp)
ffff80000010831b:	00 
ffff80000010831c:	48 81 7d d8 00 00 10 	cmpq   $0x100000,-0x28(%rbp)
ffff800000108323:	00 
ffff800000108324:	76 37                	jbe    ffff80000010835d <kmalloc+0x59>
ffff800000108326:	48 8b 45 d8          	mov    -0x28(%rbp),%rax
ffff80000010832a:	48 89 c1             	mov    %rax,%rcx
ffff80000010832d:	48 ba 28 a3 11 00 00 	movabs $0xffff80000011a328,%rdx
ffff800000108334:	80 ff ff 
ffff800000108337:	be 00 00 00 00       	mov    $0x0,%esi
ffff80000010833c:	bf 00 00 ff 00       	mov    $0xff0000,%edi
ffff800000108341:	b8 00 00 00 00       	mov    $0x0,%eax
ffff800000108346:	49 b8 d0 56 10 00 00 	movabs $0xffff8000001056d0,%r8
ffff80000010834d:	80 ff ff 
ffff800000108350:	41 ff d0             	callq  *%r8
ffff800000108353:	b8 00 00 00 00       	mov    $0x0,%eax
ffff800000108358:	e9 73 04 00 00       	jmpq   ffff8000001087d0 <kmalloc+0x4cc>
ffff80000010835d:	c7 45 fc 00 00 00 00 	movl   $0x0,-0x4(%rbp)
ffff800000108364:	eb 31                	jmp    ffff800000108397 <kmalloc+0x93>
ffff800000108366:	48 b9 00 fc 10 00 00 	movabs $0xffff80000010fc00,%rcx
ffff80000010836d:	80 ff ff 
ffff800000108370:	8b 45 fc             	mov    -0x4(%rbp),%eax
ffff800000108373:	48 98                	cltq   
ffff800000108375:	48 c1 e0 03          	shl    $0x3,%rax
ffff800000108379:	48 8d 14 c5 00 00 00 	lea    0x0(,%rax,8),%rdx
ffff800000108380:	00 
ffff800000108381:	48 29 c2             	sub    %rax,%rdx
ffff800000108384:	48 8d 04 11          	lea    (%rcx,%rdx,1),%rax
ffff800000108388:	48 8b 00             	mov    (%rax),%rax
ffff80000010838b:	48 3b 45 d8          	cmp    -0x28(%rbp),%rax
ffff80000010838f:	72 02                	jb     ffff800000108393 <kmalloc+0x8f>
ffff800000108391:	eb 0a                	jmp    ffff80000010839d <kmalloc+0x99>
ffff800000108393:	83 45 fc 01          	addl   $0x1,-0x4(%rbp)
ffff800000108397:	83 7d fc 0f          	cmpl   $0xf,-0x4(%rbp)
ffff80000010839b:	7e c9                	jle    ffff800000108366 <kmalloc+0x62>
ffff80000010839d:	48 b9 00 fc 10 00 00 	movabs $0xffff80000010fc00,%rcx
ffff8000001083a4:	80 ff ff 
ffff8000001083a7:	8b 45 fc             	mov    -0x4(%rbp),%eax
ffff8000001083aa:	48 98                	cltq   
ffff8000001083ac:	48 c1 e0 03          	shl    $0x3,%rax
ffff8000001083b0:	48 8d 14 c5 00 00 00 	lea    0x0(,%rax,8),%rdx
ffff8000001083b7:	00 
ffff8000001083b8:	48 29 c2             	sub    %rax,%rdx
ffff8000001083bb:	48 8d 04 11          	lea    (%rcx,%rdx,1),%rax
ffff8000001083bf:	48 83 c0 10          	add    $0x10,%rax
ffff8000001083c3:	48 8b 40 08          	mov    0x8(%rax),%rax
ffff8000001083c7:	48 89 45 f0          	mov    %rax,-0x10(%rbp)
ffff8000001083cb:	48 b9 00 fc 10 00 00 	movabs $0xffff80000010fc00,%rcx
ffff8000001083d2:	80 ff ff 
ffff8000001083d5:	8b 45 fc             	mov    -0x4(%rbp),%eax
ffff8000001083d8:	48 98                	cltq   
ffff8000001083da:	48 c1 e0 03          	shl    $0x3,%rax
ffff8000001083de:	48 8d 14 c5 00 00 00 	lea    0x0(,%rax,8),%rdx
ffff8000001083e5:	00 
ffff8000001083e6:	48 29 c2             	sub    %rax,%rdx
ffff8000001083e9:	48 8d 04 11          	lea    (%rcx,%rdx,1),%rax
ffff8000001083ed:	48 83 c0 10          	add    $0x10,%rax
ffff8000001083f1:	48 8b 00             	mov    (%rax),%rax
ffff8000001083f4:	48 85 c0             	test   %rax,%rax
ffff8000001083f7:	74 67                	je     ffff800000108460 <kmalloc+0x15c>
ffff8000001083f9:	48 8b 45 f0          	mov    -0x10(%rbp),%rax
ffff8000001083fd:	48 8b 40 20          	mov    0x20(%rax),%rax
ffff800000108401:	48 85 c0             	test   %rax,%rax
ffff800000108404:	75 54                	jne    ffff80000010845a <kmalloc+0x156>
ffff800000108406:	48 8b 45 f0          	mov    -0x10(%rbp),%rax
ffff80000010840a:	48 89 c7             	mov    %rax,%rdi
ffff80000010840d:	48 b8 2f 6f 10 00 00 	movabs $0xffff800000106f2f,%rax
ffff800000108414:	80 ff ff 
ffff800000108417:	ff d0                	callq  *%rax
ffff800000108419:	48 89 45 e8          	mov    %rax,-0x18(%rbp)
ffff80000010841d:	48 8b 45 e8          	mov    -0x18(%rbp),%rax
ffff800000108421:	48 89 45 f0          	mov    %rax,-0x10(%rbp)
ffff800000108425:	48 b9 00 fc 10 00 00 	movabs $0xffff80000010fc00,%rcx
ffff80000010842c:	80 ff ff 
ffff80000010842f:	8b 45 fc             	mov    -0x4(%rbp),%eax
ffff800000108432:	48 98                	cltq   
ffff800000108434:	48 c1 e0 03          	shl    $0x3,%rax
ffff800000108438:	48 8d 14 c5 00 00 00 	lea    0x0(,%rax,8),%rdx
ffff80000010843f:	00 
ffff800000108440:	48 29 c2             	sub    %rax,%rdx
ffff800000108443:	48 8d 04 11          	lea    (%rcx,%rdx,1),%rax
ffff800000108447:	48 83 c0 10          	add    $0x10,%rax
ffff80000010844b:	48 8b 40 08          	mov    0x8(%rax),%rax
ffff80000010844f:	48 3b 45 f0          	cmp    -0x10(%rbp),%rax
ffff800000108453:	75 a4                	jne    ffff8000001083f9 <kmalloc+0xf5>
ffff800000108455:	e9 60 01 00 00       	jmpq   ffff8000001085ba <kmalloc+0x2b6>
ffff80000010845a:	90                   	nop
ffff80000010845b:	e9 5a 01 00 00       	jmpq   ffff8000001085ba <kmalloc+0x2b6>
ffff800000108460:	48 b9 00 fc 10 00 00 	movabs $0xffff80000010fc00,%rcx
ffff800000108467:	80 ff ff 
ffff80000010846a:	8b 45 fc             	mov    -0x4(%rbp),%eax
ffff80000010846d:	48 98                	cltq   
ffff80000010846f:	48 c1 e0 03          	shl    $0x3,%rax
ffff800000108473:	48 8d 14 c5 00 00 00 	lea    0x0(,%rax,8),%rdx
ffff80000010847a:	00 
ffff80000010847b:	48 29 c2             	sub    %rax,%rdx
ffff80000010847e:	48 8d 04 11          	lea    (%rcx,%rdx,1),%rax
ffff800000108482:	48 8b 00             	mov    (%rax),%rax
ffff800000108485:	48 89 c7             	mov    %rax,%rdi
ffff800000108488:	48 b8 d2 87 10 00 00 	movabs $0xffff8000001087d2,%rax
ffff80000010848f:	80 ff ff 
ffff800000108492:	ff d0                	callq  *%rax
ffff800000108494:	48 89 45 f0          	mov    %rax,-0x10(%rbp)
ffff800000108498:	48 83 7d f0 00       	cmpq   $0x0,-0x10(%rbp)
ffff80000010849d:	75 2f                	jne    ffff8000001084ce <kmalloc+0x1ca>
ffff80000010849f:	48 ba 58 a3 11 00 00 	movabs $0xffff80000011a358,%rdx
ffff8000001084a6:	80 ff ff 
ffff8000001084a9:	be 00 00 00 00       	mov    $0x0,%esi
ffff8000001084ae:	bf ff 00 00 00       	mov    $0xff,%edi
ffff8000001084b3:	b8 00 00 00 00       	mov    $0x0,%eax
ffff8000001084b8:	48 b9 d0 56 10 00 00 	movabs $0xffff8000001056d0,%rcx
ffff8000001084bf:	80 ff ff 
ffff8000001084c2:	ff d1                	callq  *%rcx
ffff8000001084c4:	b8 00 00 00 00       	mov    $0x0,%eax
ffff8000001084c9:	e9 02 03 00 00       	jmpq   ffff8000001087d0 <kmalloc+0x4cc>
ffff8000001084ce:	48 b9 00 fc 10 00 00 	movabs $0xffff80000010fc00,%rcx
ffff8000001084d5:	80 ff ff 
ffff8000001084d8:	8b 45 fc             	mov    -0x4(%rbp),%eax
ffff8000001084db:	48 98                	cltq   
ffff8000001084dd:	48 c1 e0 03          	shl    $0x3,%rax
ffff8000001084e1:	48 8d 14 c5 00 00 00 	lea    0x0(,%rax,8),%rdx
ffff8000001084e8:	00 
ffff8000001084e9:	48 29 c2             	sub    %rax,%rdx
ffff8000001084ec:	48 8d 04 11          	lea    (%rcx,%rdx,1),%rax
ffff8000001084f0:	48 83 c0 10          	add    $0x10,%rax
ffff8000001084f4:	48 8b 10             	mov    (%rax),%rdx
ffff8000001084f7:	48 8b 45 f0          	mov    -0x10(%rbp),%rax
ffff8000001084fb:	48 8b 40 38          	mov    0x38(%rax),%rax
ffff8000001084ff:	48 8d 0c 02          	lea    (%rdx,%rax,1),%rcx
ffff800000108503:	48 be 00 fc 10 00 00 	movabs $0xffff80000010fc00,%rsi
ffff80000010850a:	80 ff ff 
ffff80000010850d:	8b 45 fc             	mov    -0x4(%rbp),%eax
ffff800000108510:	48 98                	cltq   
ffff800000108512:	48 c1 e0 03          	shl    $0x3,%rax
ffff800000108516:	48 8d 14 c5 00 00 00 	lea    0x0(,%rax,8),%rdx
ffff80000010851d:	00 
ffff80000010851e:	48 29 c2             	sub    %rax,%rdx
ffff800000108521:	48 8d 04 16          	lea    (%rsi,%rdx,1),%rax
ffff800000108525:	48 83 c0 10          	add    $0x10,%rax
ffff800000108529:	48 89 08             	mov    %rcx,(%rax)
ffff80000010852c:	48 b9 00 fc 10 00 00 	movabs $0xffff80000010fc00,%rcx
ffff800000108533:	80 ff ff 
ffff800000108536:	8b 45 fc             	mov    -0x4(%rbp),%eax
ffff800000108539:	48 98                	cltq   
ffff80000010853b:	48 c1 e0 03          	shl    $0x3,%rax
ffff80000010853f:	48 8d 14 c5 00 00 00 	lea    0x0(,%rax,8),%rdx
ffff800000108546:	00 
ffff800000108547:	48 29 c2             	sub    %rax,%rdx
ffff80000010854a:	48 8d 04 11          	lea    (%rcx,%rdx,1),%rax
ffff80000010854e:	48 8b 00             	mov    (%rax),%rax
ffff800000108551:	48 89 c1             	mov    %rax,%rcx
ffff800000108554:	48 ba 88 a3 11 00 00 	movabs $0xffff80000011a388,%rdx
ffff80000010855b:	80 ff ff 
ffff80000010855e:	be 00 00 00 00       	mov    $0x0,%esi
ffff800000108563:	bf ff 00 00 00       	mov    $0xff,%edi
ffff800000108568:	b8 00 00 00 00       	mov    $0x0,%eax
ffff80000010856d:	49 b8 d0 56 10 00 00 	movabs $0xffff8000001056d0,%r8
ffff800000108574:	80 ff ff 
ffff800000108577:	41 ff d0             	callq  *%r8
ffff80000010857a:	48 8b 4d f0          	mov    -0x10(%rbp),%rcx
ffff80000010857e:	48 be 00 fc 10 00 00 	movabs $0xffff80000010fc00,%rsi
ffff800000108585:	80 ff ff 
ffff800000108588:	8b 45 fc             	mov    -0x4(%rbp),%eax
ffff80000010858b:	48 98                	cltq   
ffff80000010858d:	48 c1 e0 03          	shl    $0x3,%rax
ffff800000108591:	48 8d 14 c5 00 00 00 	lea    0x0(,%rax,8),%rdx
ffff800000108598:	00 
ffff800000108599:	48 29 c2             	sub    %rax,%rdx
ffff80000010859c:	48 8d 04 16          	lea    (%rsi,%rdx,1),%rax
ffff8000001085a0:	48 83 c0 10          	add    $0x10,%rax
ffff8000001085a4:	48 8b 40 08          	mov    0x8(%rax),%rax
ffff8000001085a8:	48 89 ce             	mov    %rcx,%rsi
ffff8000001085ab:	48 89 c7             	mov    %rax,%rdi
ffff8000001085ae:	48 b8 8d 6e 10 00 00 	movabs $0xffff800000106e8d,%rax
ffff8000001085b5:	80 ff ff 
ffff8000001085b8:	ff d0                	callq  *%rax
ffff8000001085ba:	c7 45 f8 00 00 00 00 	movl   $0x0,-0x8(%rbp)
ffff8000001085c1:	e9 c9 01 00 00       	jmpq   ffff80000010878f <kmalloc+0x48b>
ffff8000001085c6:	48 8b 45 f0          	mov    -0x10(%rbp),%rax
ffff8000001085ca:	48 8b 40 40          	mov    0x40(%rax),%rax
ffff8000001085ce:	8b 55 f8             	mov    -0x8(%rbp),%edx
ffff8000001085d1:	c1 fa 06             	sar    $0x6,%edx
ffff8000001085d4:	48 63 d2             	movslq %edx,%rdx
ffff8000001085d7:	48 c1 e2 03          	shl    $0x3,%rdx
ffff8000001085db:	48 01 d0             	add    %rdx,%rax
ffff8000001085de:	48 8b 00             	mov    (%rax),%rax
ffff8000001085e1:	48 83 f8 ff          	cmp    $0xffffffffffffffff,%rax
ffff8000001085e5:	75 09                	jne    ffff8000001085f0 <kmalloc+0x2ec>
ffff8000001085e7:	83 45 f8 3f          	addl   $0x3f,-0x8(%rbp)
ffff8000001085eb:	e9 9b 01 00 00       	jmpq   ffff80000010878b <kmalloc+0x487>
ffff8000001085f0:	48 8b 45 f0          	mov    -0x10(%rbp),%rax
ffff8000001085f4:	48 8b 40 40          	mov    0x40(%rax),%rax
ffff8000001085f8:	8b 55 f8             	mov    -0x8(%rbp),%edx
ffff8000001085fb:	c1 fa 06             	sar    $0x6,%edx
ffff8000001085fe:	48 63 d2             	movslq %edx,%rdx
ffff800000108601:	48 c1 e2 03          	shl    $0x3,%rdx
ffff800000108605:	48 01 d0             	add    %rdx,%rax
ffff800000108608:	48 8b 30             	mov    (%rax),%rsi
ffff80000010860b:	8b 45 f8             	mov    -0x8(%rbp),%eax
ffff80000010860e:	99                   	cltd   
ffff80000010860f:	c1 ea 1a             	shr    $0x1a,%edx
ffff800000108612:	01 d0                	add    %edx,%eax
ffff800000108614:	83 e0 3f             	and    $0x3f,%eax
ffff800000108617:	29 d0                	sub    %edx,%eax
ffff800000108619:	89 c1                	mov    %eax,%ecx
ffff80000010861b:	48 d3 ee             	shr    %cl,%rsi
ffff80000010861e:	48 89 f0             	mov    %rsi,%rax
ffff800000108621:	83 e0 01             	and    $0x1,%eax
ffff800000108624:	48 85 c0             	test   %rax,%rax
ffff800000108627:	0f 85 5e 01 00 00    	jne    ffff80000010878b <kmalloc+0x487>
ffff80000010862d:	48 8b 45 f0          	mov    -0x10(%rbp),%rax
ffff800000108631:	48 8b 40 40          	mov    0x40(%rax),%rax
ffff800000108635:	8b 55 f8             	mov    -0x8(%rbp),%edx
ffff800000108638:	c1 fa 06             	sar    $0x6,%edx
ffff80000010863b:	48 63 d2             	movslq %edx,%rdx
ffff80000010863e:	48 c1 e2 03          	shl    $0x3,%rdx
ffff800000108642:	48 8d 34 10          	lea    (%rax,%rdx,1),%rsi
ffff800000108646:	48 8b 45 f0          	mov    -0x10(%rbp),%rax
ffff80000010864a:	48 8b 40 40          	mov    0x40(%rax),%rax
ffff80000010864e:	8b 55 f8             	mov    -0x8(%rbp),%edx
ffff800000108651:	c1 fa 06             	sar    $0x6,%edx
ffff800000108654:	48 63 d2             	movslq %edx,%rdx
ffff800000108657:	48 c1 e2 03          	shl    $0x3,%rdx
ffff80000010865b:	48 01 d0             	add    %rdx,%rax
ffff80000010865e:	48 8b 38             	mov    (%rax),%rdi
ffff800000108661:	8b 45 f8             	mov    -0x8(%rbp),%eax
ffff800000108664:	99                   	cltd   
ffff800000108665:	c1 ea 1a             	shr    $0x1a,%edx
ffff800000108668:	01 d0                	add    %edx,%eax
ffff80000010866a:	83 e0 3f             	and    $0x3f,%eax
ffff80000010866d:	29 d0                	sub    %edx,%eax
ffff80000010866f:	ba 01 00 00 00       	mov    $0x1,%edx
ffff800000108674:	89 c1                	mov    %eax,%ecx
ffff800000108676:	48 d3 e2             	shl    %cl,%rdx
ffff800000108679:	48 89 d0             	mov    %rdx,%rax
ffff80000010867c:	48 09 f8             	or     %rdi,%rax
ffff80000010867f:	48 89 06             	mov    %rax,(%rsi)
ffff800000108682:	48 8b 45 f0          	mov    -0x10(%rbp),%rax
ffff800000108686:	48 8b 40 18          	mov    0x18(%rax),%rax
ffff80000010868a:	48 8d 50 01          	lea    0x1(%rax),%rdx
ffff80000010868e:	48 8b 45 f0          	mov    -0x10(%rbp),%rax
ffff800000108692:	48 89 50 18          	mov    %rdx,0x18(%rax)
ffff800000108696:	48 8b 45 f0          	mov    -0x10(%rbp),%rax
ffff80000010869a:	48 8b 40 20          	mov    0x20(%rax),%rax
ffff80000010869e:	48 8d 50 ff          	lea    -0x1(%rax),%rdx
ffff8000001086a2:	48 8b 45 f0          	mov    -0x10(%rbp),%rax
ffff8000001086a6:	48 89 50 20          	mov    %rdx,0x20(%rax)
ffff8000001086aa:	48 b9 00 fc 10 00 00 	movabs $0xffff80000010fc00,%rcx
ffff8000001086b1:	80 ff ff 
ffff8000001086b4:	8b 45 fc             	mov    -0x4(%rbp),%eax
ffff8000001086b7:	48 98                	cltq   
ffff8000001086b9:	48 c1 e0 03          	shl    $0x3,%rax
ffff8000001086bd:	48 8d 14 c5 00 00 00 	lea    0x0(,%rax,8),%rdx
ffff8000001086c4:	00 
ffff8000001086c5:	48 29 c2             	sub    %rax,%rdx
ffff8000001086c8:	48 8d 04 11          	lea    (%rcx,%rdx,1),%rax
ffff8000001086cc:	48 83 c0 10          	add    $0x10,%rax
ffff8000001086d0:	48 8b 00             	mov    (%rax),%rax
ffff8000001086d3:	48 8d 48 ff          	lea    -0x1(%rax),%rcx
ffff8000001086d7:	48 be 00 fc 10 00 00 	movabs $0xffff80000010fc00,%rsi
ffff8000001086de:	80 ff ff 
ffff8000001086e1:	8b 45 fc             	mov    -0x4(%rbp),%eax
ffff8000001086e4:	48 98                	cltq   
ffff8000001086e6:	48 c1 e0 03          	shl    $0x3,%rax
ffff8000001086ea:	48 8d 14 c5 00 00 00 	lea    0x0(,%rax,8),%rdx
ffff8000001086f1:	00 
ffff8000001086f2:	48 29 c2             	sub    %rax,%rdx
ffff8000001086f5:	48 8d 04 16          	lea    (%rsi,%rdx,1),%rax
ffff8000001086f9:	48 83 c0 10          	add    $0x10,%rax
ffff8000001086fd:	48 89 08             	mov    %rcx,(%rax)
ffff800000108700:	48 b9 00 fc 10 00 00 	movabs $0xffff80000010fc00,%rcx
ffff800000108707:	80 ff ff 
ffff80000010870a:	8b 45 fc             	mov    -0x4(%rbp),%eax
ffff80000010870d:	48 98                	cltq   
ffff80000010870f:	48 c1 e0 03          	shl    $0x3,%rax
ffff800000108713:	48 8d 14 c5 00 00 00 	lea    0x0(,%rax,8),%rdx
ffff80000010871a:	00 
ffff80000010871b:	48 29 c2             	sub    %rax,%rdx
ffff80000010871e:	48 8d 04 11          	lea    (%rcx,%rdx,1),%rax
ffff800000108722:	48 8b 40 08          	mov    0x8(%rax),%rax
ffff800000108726:	48 8d 48 01          	lea    0x1(%rax),%rcx
ffff80000010872a:	48 be 00 fc 10 00 00 	movabs $0xffff80000010fc00,%rsi
ffff800000108731:	80 ff ff 
ffff800000108734:	8b 45 fc             	mov    -0x4(%rbp),%eax
ffff800000108737:	48 98                	cltq   
ffff800000108739:	48 c1 e0 03          	shl    $0x3,%rax
ffff80000010873d:	48 8d 14 c5 00 00 00 	lea    0x0(,%rax,8),%rdx
ffff800000108744:	00 
ffff800000108745:	48 29 c2             	sub    %rax,%rdx
ffff800000108748:	48 8d 04 16          	lea    (%rsi,%rdx,1),%rax
ffff80000010874c:	48 89 48 08          	mov    %rcx,0x8(%rax)
ffff800000108750:	48 8b 45 f0          	mov    -0x10(%rbp),%rax
ffff800000108754:	48 8b 48 28          	mov    0x28(%rax),%rcx
ffff800000108758:	48 be 00 fc 10 00 00 	movabs $0xffff80000010fc00,%rsi
ffff80000010875f:	80 ff ff 
ffff800000108762:	8b 45 fc             	mov    -0x4(%rbp),%eax
ffff800000108765:	48 98                	cltq   
ffff800000108767:	48 c1 e0 03          	shl    $0x3,%rax
ffff80000010876b:	48 8d 14 c5 00 00 00 	lea    0x0(,%rax,8),%rdx
ffff800000108772:	00 
ffff800000108773:	48 29 c2             	sub    %rax,%rdx
ffff800000108776:	48 8d 04 16          	lea    (%rsi,%rdx,1),%rax
ffff80000010877a:	48 8b 10             	mov    (%rax),%rdx
ffff80000010877d:	8b 45 f8             	mov    -0x8(%rbp),%eax
ffff800000108780:	48 98                	cltq   
ffff800000108782:	48 0f af c2          	imul   %rdx,%rax
ffff800000108786:	48 01 c8             	add    %rcx,%rax
ffff800000108789:	eb 45                	jmp    ffff8000001087d0 <kmalloc+0x4cc>
ffff80000010878b:	83 45 f8 01          	addl   $0x1,-0x8(%rbp)
ffff80000010878f:	8b 45 f8             	mov    -0x8(%rbp),%eax
ffff800000108792:	48 63 d0             	movslq %eax,%rdx
ffff800000108795:	48 8b 45 f0          	mov    -0x10(%rbp),%rax
ffff800000108799:	48 8b 40 38          	mov    0x38(%rax),%rax
ffff80000010879d:	48 39 c2             	cmp    %rax,%rdx
ffff8000001087a0:	0f 82 20 fe ff ff    	jb     ffff8000001085c6 <kmalloc+0x2c2>
ffff8000001087a6:	48 ba b8 a3 11 00 00 	movabs $0xffff80000011a3b8,%rdx
ffff8000001087ad:	80 ff ff 
ffff8000001087b0:	be 00 00 00 00       	mov    $0x0,%esi
ffff8000001087b5:	bf ff 00 00 00       	mov    $0xff,%edi
ffff8000001087ba:	b8 00 00 00 00       	mov    $0x0,%eax
ffff8000001087bf:	48 b9 d0 56 10 00 00 	movabs $0xffff8000001056d0,%rcx
ffff8000001087c6:	80 ff ff 
ffff8000001087c9:	ff d1                	callq  *%rcx
ffff8000001087cb:	b8 00 00 00 00       	mov    $0x0,%eax
ffff8000001087d0:	c9                   	leaveq 
ffff8000001087d1:	c3                   	retq   

ffff8000001087d2 <kmalloc_create>:
ffff8000001087d2:	55                   	push   %rbp
ffff8000001087d3:	48 89 e5             	mov    %rsp,%rbp
ffff8000001087d6:	48 83 ec 40          	sub    $0x40,%rsp
ffff8000001087da:	48 89 7d c8          	mov    %rdi,-0x38(%rbp)
ffff8000001087de:	48 c7 45 f0 00 00 00 	movq   $0x0,-0x10(%rbp)
ffff8000001087e5:	00 
ffff8000001087e6:	48 c7 45 e8 00 00 00 	movq   $0x0,-0x18(%rbp)
ffff8000001087ed:	00 
ffff8000001087ee:	48 c7 45 e0 00 00 00 	movq   $0x0,-0x20(%rbp)
ffff8000001087f5:	00 
ffff8000001087f6:	48 c7 45 d8 00 00 00 	movq   $0x0,-0x28(%rbp)
ffff8000001087fd:	00 
ffff8000001087fe:	ba 00 00 00 00       	mov    $0x0,%edx
ffff800000108803:	be 01 00 00 00       	mov    $0x1,%esi
ffff800000108808:	bf 02 00 00 00       	mov    $0x2,%edi
ffff80000010880d:	48 b8 75 7d 10 00 00 	movabs $0xffff800000107d75,%rax
ffff800000108814:	80 ff ff 
ffff800000108817:	ff d0                	callq  *%rax
ffff800000108819:	48 89 45 e8          	mov    %rax,-0x18(%rbp)
ffff80000010881d:	48 83 7d e8 00       	cmpq   $0x0,-0x18(%rbp)
ffff800000108822:	75 2f                	jne    ffff800000108853 <kmalloc_create+0x81>
ffff800000108824:	48 ba e0 a3 11 00 00 	movabs $0xffff80000011a3e0,%rdx
ffff80000010882b:	80 ff ff 
ffff80000010882e:	be 00 00 00 00       	mov    $0x0,%esi
ffff800000108833:	bf 00 00 ff 00       	mov    $0xff0000,%edi
ffff800000108838:	b8 00 00 00 00       	mov    $0x0,%eax
ffff80000010883d:	48 b9 d0 56 10 00 00 	movabs $0xffff8000001056d0,%rcx
ffff800000108844:	80 ff ff 
ffff800000108847:	ff d1                	callq  *%rcx
ffff800000108849:	b8 00 00 00 00       	mov    $0x0,%eax
ffff80000010884e:	e9 5c 04 00 00       	jmpq   ffff800000108caf <kmalloc_create+0x4dd>
ffff800000108853:	48 8b 45 e8          	mov    -0x18(%rbp),%rax
ffff800000108857:	be 08 00 00 00       	mov    $0x8,%esi
ffff80000010885c:	48 89 c7             	mov    %rax,%rdi
ffff80000010885f:	48 b8 dc 6f 10 00 00 	movabs $0xffff800000106fdc,%rax
ffff800000108866:	80 ff ff 
ffff800000108869:	ff d0                	callq  *%rax
ffff80000010886b:	48 8b 45 c8          	mov    -0x38(%rbp),%rax
ffff80000010886f:	48 3d 00 10 00 00    	cmp    $0x1000,%rax
ffff800000108875:	0f 84 74 02 00 00    	je     ffff800000108aef <kmalloc_create+0x31d>
ffff80000010887b:	48 3d 00 10 00 00    	cmp    $0x1000,%rax
ffff800000108881:	77 62                	ja     ffff8000001088e5 <kmalloc_create+0x113>
ffff800000108883:	48 3d 00 01 00 00    	cmp    $0x100,%rax
ffff800000108889:	0f 84 d5 00 00 00    	je     ffff800000108964 <kmalloc_create+0x192>
ffff80000010888f:	48 3d 00 01 00 00    	cmp    $0x100,%rax
ffff800000108895:	77 25                	ja     ffff8000001088bc <kmalloc_create+0xea>
ffff800000108897:	48 83 f8 40          	cmp    $0x40,%rax
ffff80000010889b:	0f 84 c3 00 00 00    	je     ffff800000108964 <kmalloc_create+0x192>
ffff8000001088a1:	48 3d 80 00 00 00    	cmp    $0x80,%rax
ffff8000001088a7:	0f 84 b7 00 00 00    	je     ffff800000108964 <kmalloc_create+0x192>
ffff8000001088ad:	48 83 f8 20          	cmp    $0x20,%rax
ffff8000001088b1:	0f 84 ad 00 00 00    	je     ffff800000108964 <kmalloc_create+0x192>
ffff8000001088b7:	e9 a3 03 00 00       	jmpq   ffff800000108c5f <kmalloc_create+0x48d>
ffff8000001088bc:	48 3d 00 04 00 00    	cmp    $0x400,%rax
ffff8000001088c2:	0f 84 27 02 00 00    	je     ffff800000108aef <kmalloc_create+0x31d>
ffff8000001088c8:	48 3d 00 08 00 00    	cmp    $0x800,%rax
ffff8000001088ce:	0f 84 1b 02 00 00    	je     ffff800000108aef <kmalloc_create+0x31d>
ffff8000001088d4:	48 3d 00 02 00 00    	cmp    $0x200,%rax
ffff8000001088da:	0f 84 84 00 00 00    	je     ffff800000108964 <kmalloc_create+0x192>
ffff8000001088e0:	e9 7a 03 00 00       	jmpq   ffff800000108c5f <kmalloc_create+0x48d>
ffff8000001088e5:	48 3d 00 00 01 00    	cmp    $0x10000,%rax
ffff8000001088eb:	0f 84 fe 01 00 00    	je     ffff800000108aef <kmalloc_create+0x31d>
ffff8000001088f1:	48 3d 00 00 01 00    	cmp    $0x10000,%rax
ffff8000001088f7:	77 29                	ja     ffff800000108922 <kmalloc_create+0x150>
ffff8000001088f9:	48 3d 00 40 00 00    	cmp    $0x4000,%rax
ffff8000001088ff:	0f 84 ea 01 00 00    	je     ffff800000108aef <kmalloc_create+0x31d>
ffff800000108905:	48 3d 00 80 00 00    	cmp    $0x8000,%rax
ffff80000010890b:	0f 84 de 01 00 00    	je     ffff800000108aef <kmalloc_create+0x31d>
ffff800000108911:	48 3d 00 20 00 00    	cmp    $0x2000,%rax
ffff800000108917:	0f 84 d2 01 00 00    	je     ffff800000108aef <kmalloc_create+0x31d>
ffff80000010891d:	e9 3d 03 00 00       	jmpq   ffff800000108c5f <kmalloc_create+0x48d>
ffff800000108922:	48 3d 00 00 04 00    	cmp    $0x40000,%rax
ffff800000108928:	0f 84 c1 01 00 00    	je     ffff800000108aef <kmalloc_create+0x31d>
ffff80000010892e:	48 3d 00 00 04 00    	cmp    $0x40000,%rax
ffff800000108934:	77 11                	ja     ffff800000108947 <kmalloc_create+0x175>
ffff800000108936:	48 3d 00 00 02 00    	cmp    $0x20000,%rax
ffff80000010893c:	0f 84 ad 01 00 00    	je     ffff800000108aef <kmalloc_create+0x31d>
ffff800000108942:	e9 18 03 00 00       	jmpq   ffff800000108c5f <kmalloc_create+0x48d>
ffff800000108947:	48 3d 00 00 08 00    	cmp    $0x80000,%rax
ffff80000010894d:	0f 84 9c 01 00 00    	je     ffff800000108aef <kmalloc_create+0x31d>
ffff800000108953:	48 3d 00 00 10 00    	cmp    $0x100000,%rax
ffff800000108959:	0f 84 90 01 00 00    	je     ffff800000108aef <kmalloc_create+0x31d>
ffff80000010895f:	e9 fb 02 00 00       	jmpq   ffff800000108c5f <kmalloc_create+0x48d>
ffff800000108964:	48 8b 45 e8          	mov    -0x18(%rbp),%rax
ffff800000108968:	48 8b 50 08          	mov    0x8(%rax),%rdx
ffff80000010896c:	48 b8 00 00 00 00 00 	movabs $0xffff800000000000,%rax
ffff800000108973:	80 ff ff 
ffff800000108976:	48 01 d0             	add    %rdx,%rax
ffff800000108979:	48 89 45 e0          	mov    %rax,-0x20(%rbp)
ffff80000010897d:	b8 00 00 04 00       	mov    $0x40000,%eax
ffff800000108982:	ba 00 00 00 00       	mov    $0x0,%edx
ffff800000108987:	48 f7 75 c8          	divq   -0x38(%rbp)
ffff80000010898b:	48 83 c0 48          	add    $0x48,%rax
ffff80000010898f:	48 89 45 d8          	mov    %rax,-0x28(%rbp)
ffff800000108993:	48 8b 45 d8          	mov    -0x28(%rbp),%rax
ffff800000108997:	ba 00 00 20 00       	mov    $0x200000,%edx
ffff80000010899c:	48 29 c2             	sub    %rax,%rdx
ffff80000010899f:	48 8b 45 e0          	mov    -0x20(%rbp),%rax
ffff8000001089a3:	48 01 d0             	add    %rdx,%rax
ffff8000001089a6:	48 89 45 f0          	mov    %rax,-0x10(%rbp)
ffff8000001089aa:	48 8b 45 f0          	mov    -0x10(%rbp),%rax
ffff8000001089ae:	48 8d 50 48          	lea    0x48(%rax),%rdx
ffff8000001089b2:	48 8b 45 f0          	mov    -0x10(%rbp),%rax
ffff8000001089b6:	48 89 50 40          	mov    %rdx,0x40(%rax)
ffff8000001089ba:	b8 00 00 04 00       	mov    $0x40000,%eax
ffff8000001089bf:	ba 00 00 00 00       	mov    $0x0,%edx
ffff8000001089c4:	48 f7 75 c8          	divq   -0x38(%rbp)
ffff8000001089c8:	ba b8 ff 1f 00       	mov    $0x1fffb8,%edx
ffff8000001089cd:	48 29 c2             	sub    %rax,%rdx
ffff8000001089d0:	48 89 d0             	mov    %rdx,%rax
ffff8000001089d3:	ba 00 00 00 00       	mov    $0x0,%edx
ffff8000001089d8:	48 f7 75 c8          	divq   -0x38(%rbp)
ffff8000001089dc:	48 89 c2             	mov    %rax,%rdx
ffff8000001089df:	48 8b 45 f0          	mov    -0x10(%rbp),%rax
ffff8000001089e3:	48 89 50 20          	mov    %rdx,0x20(%rax)
ffff8000001089e7:	48 8b 45 f0          	mov    -0x10(%rbp),%rax
ffff8000001089eb:	48 c7 40 18 00 00 00 	movq   $0x0,0x18(%rax)
ffff8000001089f2:	00 
ffff8000001089f3:	48 8b 45 f0          	mov    -0x10(%rbp),%rax
ffff8000001089f7:	48 8b 50 20          	mov    0x20(%rax),%rdx
ffff8000001089fb:	48 8b 45 f0          	mov    -0x10(%rbp),%rax
ffff8000001089ff:	48 89 50 38          	mov    %rdx,0x38(%rax)
ffff800000108a03:	48 8b 45 f0          	mov    -0x10(%rbp),%rax
ffff800000108a07:	48 8b 55 e0          	mov    -0x20(%rbp),%rdx
ffff800000108a0b:	48 89 50 28          	mov    %rdx,0x28(%rax)
ffff800000108a0f:	48 8b 45 f0          	mov    -0x10(%rbp),%rax
ffff800000108a13:	48 8b 55 e8          	mov    -0x18(%rbp),%rdx
ffff800000108a17:	48 89 50 10          	mov    %rdx,0x10(%rax)
ffff800000108a1b:	48 8b 45 f0          	mov    -0x10(%rbp),%rax
ffff800000108a1f:	48 89 c7             	mov    %rax,%rdi
ffff800000108a22:	48 b8 28 6e 10 00 00 	movabs $0xffff800000106e28,%rax
ffff800000108a29:	80 ff ff 
ffff800000108a2c:	ff d0                	callq  *%rax
ffff800000108a2e:	48 8b 45 f0          	mov    -0x10(%rbp),%rax
ffff800000108a32:	48 8b 40 38          	mov    0x38(%rax),%rax
ffff800000108a36:	48 83 c0 3f          	add    $0x3f,%rax
ffff800000108a3a:	48 c1 e8 06          	shr    $0x6,%rax
ffff800000108a3e:	48 8d 14 c5 00 00 00 	lea    0x0(,%rax,8),%rdx
ffff800000108a45:	00 
ffff800000108a46:	48 8b 45 f0          	mov    -0x10(%rbp),%rax
ffff800000108a4a:	48 89 50 30          	mov    %rdx,0x30(%rax)
ffff800000108a4e:	48 8b 45 f0          	mov    -0x10(%rbp),%rax
ffff800000108a52:	48 8b 40 30          	mov    0x30(%rax),%rax
ffff800000108a56:	48 89 c2             	mov    %rax,%rdx
ffff800000108a59:	48 8b 45 f0          	mov    -0x10(%rbp),%rax
ffff800000108a5d:	48 8b 40 40          	mov    0x40(%rax),%rax
ffff800000108a61:	be ff 00 00 00       	mov    $0xff,%esi
ffff800000108a66:	48 89 c7             	mov    %rax,%rdi
ffff800000108a69:	48 b8 55 6f 10 00 00 	movabs $0xffff800000106f55,%rax
ffff800000108a70:	80 ff ff 
ffff800000108a73:	ff d0                	callq  *%rax
ffff800000108a75:	c7 45 fc 00 00 00 00 	movl   $0x0,-0x4(%rbp)
ffff800000108a7c:	eb 59                	jmp    ffff800000108ad7 <kmalloc_create+0x305>
ffff800000108a7e:	48 8b 45 f0          	mov    -0x10(%rbp),%rax
ffff800000108a82:	48 8b 40 40          	mov    0x40(%rax),%rax
ffff800000108a86:	8b 55 fc             	mov    -0x4(%rbp),%edx
ffff800000108a89:	c1 fa 06             	sar    $0x6,%edx
ffff800000108a8c:	48 63 d2             	movslq %edx,%rdx
ffff800000108a8f:	48 c1 e2 03          	shl    $0x3,%rdx
ffff800000108a93:	48 8d 34 10          	lea    (%rax,%rdx,1),%rsi
ffff800000108a97:	48 8b 45 f0          	mov    -0x10(%rbp),%rax
ffff800000108a9b:	48 8b 40 40          	mov    0x40(%rax),%rax
ffff800000108a9f:	8b 55 fc             	mov    -0x4(%rbp),%edx
ffff800000108aa2:	c1 fa 06             	sar    $0x6,%edx
ffff800000108aa5:	48 63 d2             	movslq %edx,%rdx
ffff800000108aa8:	48 c1 e2 03          	shl    $0x3,%rdx
ffff800000108aac:	48 01 d0             	add    %rdx,%rax
ffff800000108aaf:	48 8b 38             	mov    (%rax),%rdi
ffff800000108ab2:	8b 45 fc             	mov    -0x4(%rbp),%eax
ffff800000108ab5:	99                   	cltd   
ffff800000108ab6:	c1 ea 1a             	shr    $0x1a,%edx
ffff800000108ab9:	01 d0                	add    %edx,%eax
ffff800000108abb:	83 e0 3f             	and    $0x3f,%eax
ffff800000108abe:	29 d0                	sub    %edx,%eax
ffff800000108ac0:	ba 01 00 00 00       	mov    $0x1,%edx
ffff800000108ac5:	89 c1                	mov    %eax,%ecx
ffff800000108ac7:	48 d3 e2             	shl    %cl,%rdx
ffff800000108aca:	48 89 d0             	mov    %rdx,%rax
ffff800000108acd:	48 31 f8             	xor    %rdi,%rax
ffff800000108ad0:	48 89 06             	mov    %rax,(%rsi)
ffff800000108ad3:	83 45 fc 01          	addl   $0x1,-0x4(%rbp)
ffff800000108ad7:	8b 45 fc             	mov    -0x4(%rbp),%eax
ffff800000108ada:	48 63 d0             	movslq %eax,%rdx
ffff800000108add:	48 8b 45 f0          	mov    -0x10(%rbp),%rax
ffff800000108ae1:	48 8b 40 38          	mov    0x38(%rax),%rax
ffff800000108ae5:	48 39 c2             	cmp    %rax,%rdx
ffff800000108ae8:	72 94                	jb     ffff800000108a7e <kmalloc_create+0x2ac>
ffff800000108aea:	e9 bc 01 00 00       	jmpq   ffff800000108cab <kmalloc_create+0x4d9>
ffff800000108aef:	be 00 00 00 00       	mov    $0x0,%esi
ffff800000108af4:	bf 48 00 00 00       	mov    $0x48,%edi
ffff800000108af9:	48 b8 04 83 10 00 00 	movabs $0xffff800000108304,%rax
ffff800000108b00:	80 ff ff 
ffff800000108b03:	ff d0                	callq  *%rax
ffff800000108b05:	48 89 45 f0          	mov    %rax,-0x10(%rbp)
ffff800000108b09:	b8 00 00 20 00       	mov    $0x200000,%eax
ffff800000108b0e:	ba 00 00 00 00       	mov    $0x0,%edx
ffff800000108b13:	48 f7 75 c8          	divq   -0x38(%rbp)
ffff800000108b17:	48 89 c2             	mov    %rax,%rdx
ffff800000108b1a:	48 8b 45 f0          	mov    -0x10(%rbp),%rax
ffff800000108b1e:	48 89 50 20          	mov    %rdx,0x20(%rax)
ffff800000108b22:	48 8b 45 f0          	mov    -0x10(%rbp),%rax
ffff800000108b26:	48 c7 40 18 00 00 00 	movq   $0x0,0x18(%rax)
ffff800000108b2d:	00 
ffff800000108b2e:	48 8b 45 f0          	mov    -0x10(%rbp),%rax
ffff800000108b32:	48 8b 50 20          	mov    0x20(%rax),%rdx
ffff800000108b36:	48 8b 45 f0          	mov    -0x10(%rbp),%rax
ffff800000108b3a:	48 89 50 38          	mov    %rdx,0x38(%rax)
ffff800000108b3e:	48 8b 45 f0          	mov    -0x10(%rbp),%rax
ffff800000108b42:	48 8b 40 38          	mov    0x38(%rax),%rax
ffff800000108b46:	48 83 c0 3f          	add    $0x3f,%rax
ffff800000108b4a:	48 c1 e8 06          	shr    $0x6,%rax
ffff800000108b4e:	48 8d 14 c5 00 00 00 	lea    0x0(,%rax,8),%rdx
ffff800000108b55:	00 
ffff800000108b56:	48 8b 45 f0          	mov    -0x10(%rbp),%rax
ffff800000108b5a:	48 89 50 30          	mov    %rdx,0x30(%rax)
ffff800000108b5e:	48 8b 45 f0          	mov    -0x10(%rbp),%rax
ffff800000108b62:	48 8b 40 30          	mov    0x30(%rax),%rax
ffff800000108b66:	be 00 00 00 00       	mov    $0x0,%esi
ffff800000108b6b:	48 89 c7             	mov    %rax,%rdi
ffff800000108b6e:	48 b8 04 83 10 00 00 	movabs $0xffff800000108304,%rax
ffff800000108b75:	80 ff ff 
ffff800000108b78:	ff d0                	callq  *%rax
ffff800000108b7a:	48 8b 55 f0          	mov    -0x10(%rbp),%rdx
ffff800000108b7e:	48 89 42 40          	mov    %rax,0x40(%rdx)
ffff800000108b82:	48 8b 45 f0          	mov    -0x10(%rbp),%rax
ffff800000108b86:	48 8b 40 30          	mov    0x30(%rax),%rax
ffff800000108b8a:	48 89 c2             	mov    %rax,%rdx
ffff800000108b8d:	48 8b 45 f0          	mov    -0x10(%rbp),%rax
ffff800000108b91:	48 8b 40 40          	mov    0x40(%rax),%rax
ffff800000108b95:	be ff 00 00 00       	mov    $0xff,%esi
ffff800000108b9a:	48 89 c7             	mov    %rax,%rdi
ffff800000108b9d:	48 b8 55 6f 10 00 00 	movabs $0xffff800000106f55,%rax
ffff800000108ba4:	80 ff ff 
ffff800000108ba7:	ff d0                	callq  *%rax
ffff800000108ba9:	48 8b 45 e8          	mov    -0x18(%rbp),%rax
ffff800000108bad:	48 8b 50 08          	mov    0x8(%rax),%rdx
ffff800000108bb1:	48 b8 00 00 00 00 00 	movabs $0xffff800000000000,%rax
ffff800000108bb8:	80 ff ff 
ffff800000108bbb:	48 01 d0             	add    %rdx,%rax
ffff800000108bbe:	48 89 c2             	mov    %rax,%rdx
ffff800000108bc1:	48 8b 45 f0          	mov    -0x10(%rbp),%rax
ffff800000108bc5:	48 89 50 28          	mov    %rdx,0x28(%rax)
ffff800000108bc9:	48 8b 45 f0          	mov    -0x10(%rbp),%rax
ffff800000108bcd:	48 8b 55 e8          	mov    -0x18(%rbp),%rdx
ffff800000108bd1:	48 89 50 10          	mov    %rdx,0x10(%rax)
ffff800000108bd5:	48 8b 45 f0          	mov    -0x10(%rbp),%rax
ffff800000108bd9:	48 89 c7             	mov    %rax,%rdi
ffff800000108bdc:	48 b8 28 6e 10 00 00 	movabs $0xffff800000106e28,%rax
ffff800000108be3:	80 ff ff 
ffff800000108be6:	ff d0                	callq  *%rax
ffff800000108be8:	c7 45 fc 00 00 00 00 	movl   $0x0,-0x4(%rbp)
ffff800000108bef:	eb 59                	jmp    ffff800000108c4a <kmalloc_create+0x478>
ffff800000108bf1:	48 8b 45 f0          	mov    -0x10(%rbp),%rax
ffff800000108bf5:	48 8b 40 40          	mov    0x40(%rax),%rax
ffff800000108bf9:	8b 55 fc             	mov    -0x4(%rbp),%edx
ffff800000108bfc:	c1 fa 06             	sar    $0x6,%edx
ffff800000108bff:	48 63 d2             	movslq %edx,%rdx
ffff800000108c02:	48 c1 e2 03          	shl    $0x3,%rdx
ffff800000108c06:	48 8d 34 10          	lea    (%rax,%rdx,1),%rsi
ffff800000108c0a:	48 8b 45 f0          	mov    -0x10(%rbp),%rax
ffff800000108c0e:	48 8b 40 40          	mov    0x40(%rax),%rax
ffff800000108c12:	8b 55 fc             	mov    -0x4(%rbp),%edx
ffff800000108c15:	c1 fa 06             	sar    $0x6,%edx
ffff800000108c18:	48 63 d2             	movslq %edx,%rdx
ffff800000108c1b:	48 c1 e2 03          	shl    $0x3,%rdx
ffff800000108c1f:	48 01 d0             	add    %rdx,%rax
ffff800000108c22:	48 8b 38             	mov    (%rax),%rdi
ffff800000108c25:	8b 45 fc             	mov    -0x4(%rbp),%eax
ffff800000108c28:	99                   	cltd   
ffff800000108c29:	c1 ea 1a             	shr    $0x1a,%edx
ffff800000108c2c:	01 d0                	add    %edx,%eax
ffff800000108c2e:	83 e0 3f             	and    $0x3f,%eax
ffff800000108c31:	29 d0                	sub    %edx,%eax
ffff800000108c33:	ba 01 00 00 00       	mov    $0x1,%edx
ffff800000108c38:	89 c1                	mov    %eax,%ecx
ffff800000108c3a:	48 d3 e2             	shl    %cl,%rdx
ffff800000108c3d:	48 89 d0             	mov    %rdx,%rax
ffff800000108c40:	48 31 f8             	xor    %rdi,%rax
ffff800000108c43:	48 89 06             	mov    %rax,(%rsi)
ffff800000108c46:	83 45 fc 01          	addl   $0x1,-0x4(%rbp)
ffff800000108c4a:	8b 45 fc             	mov    -0x4(%rbp),%eax
ffff800000108c4d:	48 63 d0             	movslq %eax,%rdx
ffff800000108c50:	48 8b 45 f0          	mov    -0x10(%rbp),%rax
ffff800000108c54:	48 8b 40 38          	mov    0x38(%rax),%rax
ffff800000108c58:	48 39 c2             	cmp    %rax,%rdx
ffff800000108c5b:	72 94                	jb     ffff800000108bf1 <kmalloc_create+0x41f>
ffff800000108c5d:	eb 4c                	jmp    ffff800000108cab <kmalloc_create+0x4d9>
ffff800000108c5f:	48 8b 45 c8          	mov    -0x38(%rbp),%rax
ffff800000108c63:	48 89 c1             	mov    %rax,%rcx
ffff800000108c66:	48 ba 10 a4 11 00 00 	movabs $0xffff80000011a410,%rdx
ffff800000108c6d:	80 ff ff 
ffff800000108c70:	be 00 00 00 00       	mov    $0x0,%esi
ffff800000108c75:	bf 00 00 ff 00       	mov    $0xff0000,%edi
ffff800000108c7a:	b8 00 00 00 00       	mov    $0x0,%eax
ffff800000108c7f:	49 b8 d0 56 10 00 00 	movabs $0xffff8000001056d0,%r8
ffff800000108c86:	80 ff ff 
ffff800000108c89:	41 ff d0             	callq  *%r8
ffff800000108c8c:	48 8b 45 e8          	mov    -0x18(%rbp),%rax
ffff800000108c90:	be 01 00 00 00       	mov    $0x1,%esi
ffff800000108c95:	48 89 c7             	mov    %rax,%rdi
ffff800000108c98:	48 b8 c2 81 10 00 00 	movabs $0xffff8000001081c2,%rax
ffff800000108c9f:	80 ff ff 
ffff800000108ca2:	ff d0                	callq  *%rax
ffff800000108ca4:	b8 00 00 00 00       	mov    $0x0,%eax
ffff800000108ca9:	eb 04                	jmp    ffff800000108caf <kmalloc_create+0x4dd>
ffff800000108cab:	48 8b 45 f0          	mov    -0x10(%rbp),%rax
ffff800000108caf:	c9                   	leaveq 
ffff800000108cb0:	c3                   	retq   

ffff800000108cb1 <kfree>:
ffff800000108cb1:	55                   	push   %rbp
ffff800000108cb2:	48 89 e5             	mov    %rsp,%rbp
ffff800000108cb5:	53                   	push   %rbx
ffff800000108cb6:	48 83 ec 48          	sub    $0x48,%rsp
ffff800000108cba:	48 89 7d b8          	mov    %rdi,-0x48(%rbp)
ffff800000108cbe:	48 c7 45 e0 00 00 00 	movq   $0x0,-0x20(%rbp)
ffff800000108cc5:	00 
ffff800000108cc6:	48 8b 45 b8          	mov    -0x48(%rbp),%rax
ffff800000108cca:	48 25 00 00 e0 ff    	and    $0xffffffffffe00000,%rax
ffff800000108cd0:	48 89 45 d8          	mov    %rax,-0x28(%rbp)
ffff800000108cd4:	c7 45 ec 00 00 00 00 	movl   $0x0,-0x14(%rbp)
ffff800000108cdb:	e9 6d 04 00 00       	jmpq   ffff80000010914d <kfree+0x49c>
ffff800000108ce0:	48 b9 00 fc 10 00 00 	movabs $0xffff80000010fc00,%rcx
ffff800000108ce7:	80 ff ff 
ffff800000108cea:	8b 45 ec             	mov    -0x14(%rbp),%eax
ffff800000108ced:	48 98                	cltq   
ffff800000108cef:	48 c1 e0 03          	shl    $0x3,%rax
ffff800000108cf3:	48 8d 14 c5 00 00 00 	lea    0x0(,%rax,8),%rdx
ffff800000108cfa:	00 
ffff800000108cfb:	48 29 c2             	sub    %rax,%rdx
ffff800000108cfe:	48 8d 04 11          	lea    (%rcx,%rdx,1),%rax
ffff800000108d02:	48 83 c0 10          	add    $0x10,%rax
ffff800000108d06:	48 8b 40 08          	mov    0x8(%rax),%rax
ffff800000108d0a:	48 89 45 e0          	mov    %rax,-0x20(%rbp)
ffff800000108d0e:	48 8b 45 e0          	mov    -0x20(%rbp),%rax
ffff800000108d12:	48 8b 40 28          	mov    0x28(%rax),%rax
ffff800000108d16:	48 3b 45 d8          	cmp    -0x28(%rbp),%rax
ffff800000108d1a:	0f 85 d6 03 00 00    	jne    ffff8000001090f6 <kfree+0x445>
ffff800000108d20:	48 8b 55 b8          	mov    -0x48(%rbp),%rdx
ffff800000108d24:	48 8b 45 e0          	mov    -0x20(%rbp),%rax
ffff800000108d28:	48 8b 40 28          	mov    0x28(%rax),%rax
ffff800000108d2c:	48 29 c2             	sub    %rax,%rdx
ffff800000108d2f:	48 89 d0             	mov    %rdx,%rax
ffff800000108d32:	48 89 c1             	mov    %rax,%rcx
ffff800000108d35:	48 be 00 fc 10 00 00 	movabs $0xffff80000010fc00,%rsi
ffff800000108d3c:	80 ff ff 
ffff800000108d3f:	8b 45 ec             	mov    -0x14(%rbp),%eax
ffff800000108d42:	48 98                	cltq   
ffff800000108d44:	48 c1 e0 03          	shl    $0x3,%rax
ffff800000108d48:	48 8d 14 c5 00 00 00 	lea    0x0(,%rax,8),%rdx
ffff800000108d4f:	00 
ffff800000108d50:	48 29 c2             	sub    %rax,%rdx
ffff800000108d53:	48 8d 04 16          	lea    (%rsi,%rdx,1),%rax
ffff800000108d57:	48 8b 18             	mov    (%rax),%rbx
ffff800000108d5a:	48 89 c8             	mov    %rcx,%rax
ffff800000108d5d:	ba 00 00 00 00       	mov    $0x0,%edx
ffff800000108d62:	48 f7 f3             	div    %rbx
ffff800000108d65:	89 45 d4             	mov    %eax,-0x2c(%rbp)
ffff800000108d68:	48 8b 45 e0          	mov    -0x20(%rbp),%rax
ffff800000108d6c:	48 8b 40 40          	mov    0x40(%rax),%rax
ffff800000108d70:	8b 55 d4             	mov    -0x2c(%rbp),%edx
ffff800000108d73:	c1 fa 06             	sar    $0x6,%edx
ffff800000108d76:	48 63 d2             	movslq %edx,%rdx
ffff800000108d79:	48 c1 e2 03          	shl    $0x3,%rdx
ffff800000108d7d:	48 8d 34 10          	lea    (%rax,%rdx,1),%rsi
ffff800000108d81:	48 8b 45 e0          	mov    -0x20(%rbp),%rax
ffff800000108d85:	48 8b 40 40          	mov    0x40(%rax),%rax
ffff800000108d89:	8b 55 d4             	mov    -0x2c(%rbp),%edx
ffff800000108d8c:	c1 fa 06             	sar    $0x6,%edx
ffff800000108d8f:	48 63 d2             	movslq %edx,%rdx
ffff800000108d92:	48 c1 e2 03          	shl    $0x3,%rdx
ffff800000108d96:	48 01 d0             	add    %rdx,%rax
ffff800000108d99:	48 8b 38             	mov    (%rax),%rdi
ffff800000108d9c:	8b 45 d4             	mov    -0x2c(%rbp),%eax
ffff800000108d9f:	99                   	cltd   
ffff800000108da0:	c1 ea 1a             	shr    $0x1a,%edx
ffff800000108da3:	01 d0                	add    %edx,%eax
ffff800000108da5:	83 e0 3f             	and    $0x3f,%eax
ffff800000108da8:	29 d0                	sub    %edx,%eax
ffff800000108daa:	ba 01 00 00 00       	mov    $0x1,%edx
ffff800000108daf:	89 c1                	mov    %eax,%ecx
ffff800000108db1:	48 d3 e2             	shl    %cl,%rdx
ffff800000108db4:	48 89 d0             	mov    %rdx,%rax
ffff800000108db7:	48 31 f8             	xor    %rdi,%rax
ffff800000108dba:	48 89 06             	mov    %rax,(%rsi)
ffff800000108dbd:	48 8b 45 e0          	mov    -0x20(%rbp),%rax
ffff800000108dc1:	48 8b 40 20          	mov    0x20(%rax),%rax
ffff800000108dc5:	48 8d 50 01          	lea    0x1(%rax),%rdx
ffff800000108dc9:	48 8b 45 e0          	mov    -0x20(%rbp),%rax
ffff800000108dcd:	48 89 50 20          	mov    %rdx,0x20(%rax)
ffff800000108dd1:	48 8b 45 e0          	mov    -0x20(%rbp),%rax
ffff800000108dd5:	48 8b 40 18          	mov    0x18(%rax),%rax
ffff800000108dd9:	48 8d 50 ff          	lea    -0x1(%rax),%rdx
ffff800000108ddd:	48 8b 45 e0          	mov    -0x20(%rbp),%rax
ffff800000108de1:	48 89 50 18          	mov    %rdx,0x18(%rax)
ffff800000108de5:	48 b9 00 fc 10 00 00 	movabs $0xffff80000010fc00,%rcx
ffff800000108dec:	80 ff ff 
ffff800000108def:	8b 45 ec             	mov    -0x14(%rbp),%eax
ffff800000108df2:	48 98                	cltq   
ffff800000108df4:	48 c1 e0 03          	shl    $0x3,%rax
ffff800000108df8:	48 8d 14 c5 00 00 00 	lea    0x0(,%rax,8),%rdx
ffff800000108dff:	00 
ffff800000108e00:	48 29 c2             	sub    %rax,%rdx
ffff800000108e03:	48 8d 04 11          	lea    (%rcx,%rdx,1),%rax
ffff800000108e07:	48 83 c0 10          	add    $0x10,%rax
ffff800000108e0b:	48 8b 00             	mov    (%rax),%rax
ffff800000108e0e:	48 8d 48 01          	lea    0x1(%rax),%rcx
ffff800000108e12:	48 be 00 fc 10 00 00 	movabs $0xffff80000010fc00,%rsi
ffff800000108e19:	80 ff ff 
ffff800000108e1c:	8b 45 ec             	mov    -0x14(%rbp),%eax
ffff800000108e1f:	48 98                	cltq   
ffff800000108e21:	48 c1 e0 03          	shl    $0x3,%rax
ffff800000108e25:	48 8d 14 c5 00 00 00 	lea    0x0(,%rax,8),%rdx
ffff800000108e2c:	00 
ffff800000108e2d:	48 29 c2             	sub    %rax,%rdx
ffff800000108e30:	48 8d 04 16          	lea    (%rsi,%rdx,1),%rax
ffff800000108e34:	48 83 c0 10          	add    $0x10,%rax
ffff800000108e38:	48 89 08             	mov    %rcx,(%rax)
ffff800000108e3b:	48 b9 00 fc 10 00 00 	movabs $0xffff80000010fc00,%rcx
ffff800000108e42:	80 ff ff 
ffff800000108e45:	8b 45 ec             	mov    -0x14(%rbp),%eax
ffff800000108e48:	48 98                	cltq   
ffff800000108e4a:	48 c1 e0 03          	shl    $0x3,%rax
ffff800000108e4e:	48 8d 14 c5 00 00 00 	lea    0x0(,%rax,8),%rdx
ffff800000108e55:	00 
ffff800000108e56:	48 29 c2             	sub    %rax,%rdx
ffff800000108e59:	48 8d 04 11          	lea    (%rcx,%rdx,1),%rax
ffff800000108e5d:	48 8b 40 08          	mov    0x8(%rax),%rax
ffff800000108e61:	48 8d 48 ff          	lea    -0x1(%rax),%rcx
ffff800000108e65:	48 be 00 fc 10 00 00 	movabs $0xffff80000010fc00,%rsi
ffff800000108e6c:	80 ff ff 
ffff800000108e6f:	8b 45 ec             	mov    -0x14(%rbp),%eax
ffff800000108e72:	48 98                	cltq   
ffff800000108e74:	48 c1 e0 03          	shl    $0x3,%rax
ffff800000108e78:	48 8d 14 c5 00 00 00 	lea    0x0(,%rax,8),%rdx
ffff800000108e7f:	00 
ffff800000108e80:	48 29 c2             	sub    %rax,%rdx
ffff800000108e83:	48 8d 04 16          	lea    (%rsi,%rdx,1),%rax
ffff800000108e87:	48 89 48 08          	mov    %rcx,0x8(%rax)
ffff800000108e8b:	48 8b 45 e0          	mov    -0x20(%rbp),%rax
ffff800000108e8f:	48 8b 40 18          	mov    0x18(%rax),%rax
ffff800000108e93:	48 85 c0             	test   %rax,%rax
ffff800000108e96:	0f 85 50 02 00 00    	jne    ffff8000001090ec <kfree+0x43b>
ffff800000108e9c:	48 b9 00 fc 10 00 00 	movabs $0xffff80000010fc00,%rcx
ffff800000108ea3:	80 ff ff 
ffff800000108ea6:	8b 45 ec             	mov    -0x14(%rbp),%eax
ffff800000108ea9:	48 98                	cltq   
ffff800000108eab:	48 c1 e0 03          	shl    $0x3,%rax
ffff800000108eaf:	48 8d 14 c5 00 00 00 	lea    0x0(,%rax,8),%rdx
ffff800000108eb6:	00 
ffff800000108eb7:	48 29 c2             	sub    %rax,%rdx
ffff800000108eba:	48 8d 04 11          	lea    (%rcx,%rdx,1),%rax
ffff800000108ebe:	48 83 c0 10          	add    $0x10,%rax
ffff800000108ec2:	48 8b 08             	mov    (%rax),%rcx
ffff800000108ec5:	48 8b 45 e0          	mov    -0x20(%rbp),%rax
ffff800000108ec9:	48 8b 50 38          	mov    0x38(%rax),%rdx
ffff800000108ecd:	48 89 d0             	mov    %rdx,%rax
ffff800000108ed0:	48 01 c0             	add    %rax,%rax
ffff800000108ed3:	48 01 d0             	add    %rdx,%rax
ffff800000108ed6:	48 d1 e8             	shr    %rax
ffff800000108ed9:	48 39 c1             	cmp    %rax,%rcx
ffff800000108edc:	0f 82 0a 02 00 00    	jb     ffff8000001090ec <kfree+0x43b>
ffff800000108ee2:	48 b9 00 fc 10 00 00 	movabs $0xffff80000010fc00,%rcx
ffff800000108ee9:	80 ff ff 
ffff800000108eec:	8b 45 ec             	mov    -0x14(%rbp),%eax
ffff800000108eef:	48 98                	cltq   
ffff800000108ef1:	48 c1 e0 03          	shl    $0x3,%rax
ffff800000108ef5:	48 8d 14 c5 00 00 00 	lea    0x0(,%rax,8),%rdx
ffff800000108efc:	00 
ffff800000108efd:	48 29 c2             	sub    %rax,%rdx
ffff800000108f00:	48 8d 04 11          	lea    (%rcx,%rdx,1),%rax
ffff800000108f04:	48 83 c0 10          	add    $0x10,%rax
ffff800000108f08:	48 8b 40 08          	mov    0x8(%rax),%rax
ffff800000108f0c:	48 3b 45 e0          	cmp    -0x20(%rbp),%rax
ffff800000108f10:	0f 84 d6 01 00 00    	je     ffff8000001090ec <kfree+0x43b>
ffff800000108f16:	48 b9 00 fc 10 00 00 	movabs $0xffff80000010fc00,%rcx
ffff800000108f1d:	80 ff ff 
ffff800000108f20:	8b 45 ec             	mov    -0x14(%rbp),%eax
ffff800000108f23:	48 98                	cltq   
ffff800000108f25:	48 c1 e0 03          	shl    $0x3,%rax
ffff800000108f29:	48 8d 14 c5 00 00 00 	lea    0x0(,%rax,8),%rdx
ffff800000108f30:	00 
ffff800000108f31:	48 29 c2             	sub    %rax,%rdx
ffff800000108f34:	48 8d 04 11          	lea    (%rcx,%rdx,1),%rax
ffff800000108f38:	48 8b 00             	mov    (%rax),%rax
ffff800000108f3b:	48 3d 80 00 00 00    	cmp    $0x80,%rax
ffff800000108f41:	74 2d                	je     ffff800000108f70 <kfree+0x2bf>
ffff800000108f43:	48 3d 80 00 00 00    	cmp    $0x80,%rax
ffff800000108f49:	77 11                	ja     ffff800000108f5c <kfree+0x2ab>
ffff800000108f4b:	48 83 f8 20          	cmp    $0x20,%rax
ffff800000108f4f:	74 1f                	je     ffff800000108f70 <kfree+0x2bf>
ffff800000108f51:	48 83 f8 40          	cmp    $0x40,%rax
ffff800000108f55:	74 19                	je     ffff800000108f70 <kfree+0x2bf>
ffff800000108f57:	e9 bf 00 00 00       	jmpq   ffff80000010901b <kfree+0x36a>
ffff800000108f5c:	48 3d 00 01 00 00    	cmp    $0x100,%rax
ffff800000108f62:	74 0c                	je     ffff800000108f70 <kfree+0x2bf>
ffff800000108f64:	48 3d 00 02 00 00    	cmp    $0x200,%rax
ffff800000108f6a:	0f 85 ab 00 00 00    	jne    ffff80000010901b <kfree+0x36a>
ffff800000108f70:	48 8b 45 e0          	mov    -0x20(%rbp),%rax
ffff800000108f74:	48 89 c7             	mov    %rax,%rdi
ffff800000108f77:	48 b8 cf 6e 10 00 00 	movabs $0xffff800000106ecf,%rax
ffff800000108f7e:	80 ff ff 
ffff800000108f81:	ff d0                	callq  *%rax
ffff800000108f83:	48 b9 00 fc 10 00 00 	movabs $0xffff80000010fc00,%rcx
ffff800000108f8a:	80 ff ff 
ffff800000108f8d:	8b 45 ec             	mov    -0x14(%rbp),%eax
ffff800000108f90:	48 98                	cltq   
ffff800000108f92:	48 c1 e0 03          	shl    $0x3,%rax
ffff800000108f96:	48 8d 14 c5 00 00 00 	lea    0x0(,%rax,8),%rdx
ffff800000108f9d:	00 
ffff800000108f9e:	48 29 c2             	sub    %rax,%rdx
ffff800000108fa1:	48 8d 04 11          	lea    (%rcx,%rdx,1),%rax
ffff800000108fa5:	48 83 c0 10          	add    $0x10,%rax
ffff800000108fa9:	48 8b 10             	mov    (%rax),%rdx
ffff800000108fac:	48 8b 45 e0          	mov    -0x20(%rbp),%rax
ffff800000108fb0:	48 8b 40 38          	mov    0x38(%rax),%rax
ffff800000108fb4:	48 89 d1             	mov    %rdx,%rcx
ffff800000108fb7:	48 29 c1             	sub    %rax,%rcx
ffff800000108fba:	48 be 00 fc 10 00 00 	movabs $0xffff80000010fc00,%rsi
ffff800000108fc1:	80 ff ff 
ffff800000108fc4:	8b 45 ec             	mov    -0x14(%rbp),%eax
ffff800000108fc7:	48 98                	cltq   
ffff800000108fc9:	48 c1 e0 03          	shl    $0x3,%rax
ffff800000108fcd:	48 8d 14 c5 00 00 00 	lea    0x0(,%rax,8),%rdx
ffff800000108fd4:	00 
ffff800000108fd5:	48 29 c2             	sub    %rax,%rdx
ffff800000108fd8:	48 8d 04 16          	lea    (%rsi,%rdx,1),%rax
ffff800000108fdc:	48 83 c0 10          	add    $0x10,%rax
ffff800000108fe0:	48 89 08             	mov    %rcx,(%rax)
ffff800000108fe3:	48 8b 45 e0          	mov    -0x20(%rbp),%rax
ffff800000108fe7:	48 8b 40 10          	mov    0x10(%rax),%rax
ffff800000108feb:	48 89 c7             	mov    %rax,%rdi
ffff800000108fee:	48 b8 4a 70 10 00 00 	movabs $0xffff80000010704a,%rax
ffff800000108ff5:	80 ff ff 
ffff800000108ff8:	ff d0                	callq  *%rax
ffff800000108ffa:	48 8b 45 e0          	mov    -0x20(%rbp),%rax
ffff800000108ffe:	48 8b 40 10          	mov    0x10(%rax),%rax
ffff800000109002:	be 01 00 00 00       	mov    $0x1,%esi
ffff800000109007:	48 89 c7             	mov    %rax,%rdi
ffff80000010900a:	48 b8 c2 81 10 00 00 	movabs $0xffff8000001081c2,%rax
ffff800000109011:	80 ff ff 
ffff800000109014:	ff d0                	callq  *%rax
ffff800000109016:	e9 d1 00 00 00       	jmpq   ffff8000001090ec <kfree+0x43b>
ffff80000010901b:	48 8b 45 e0          	mov    -0x20(%rbp),%rax
ffff80000010901f:	48 89 c7             	mov    %rax,%rdi
ffff800000109022:	48 b8 cf 6e 10 00 00 	movabs $0xffff800000106ecf,%rax
ffff800000109029:	80 ff ff 
ffff80000010902c:	ff d0                	callq  *%rax
ffff80000010902e:	48 b9 00 fc 10 00 00 	movabs $0xffff80000010fc00,%rcx
ffff800000109035:	80 ff ff 
ffff800000109038:	8b 45 ec             	mov    -0x14(%rbp),%eax
ffff80000010903b:	48 98                	cltq   
ffff80000010903d:	48 c1 e0 03          	shl    $0x3,%rax
ffff800000109041:	48 8d 14 c5 00 00 00 	lea    0x0(,%rax,8),%rdx
ffff800000109048:	00 
ffff800000109049:	48 29 c2             	sub    %rax,%rdx
ffff80000010904c:	48 8d 04 11          	lea    (%rcx,%rdx,1),%rax
ffff800000109050:	48 83 c0 10          	add    $0x10,%rax
ffff800000109054:	48 8b 10             	mov    (%rax),%rdx
ffff800000109057:	48 8b 45 e0          	mov    -0x20(%rbp),%rax
ffff80000010905b:	48 8b 40 38          	mov    0x38(%rax),%rax
ffff80000010905f:	48 89 d1             	mov    %rdx,%rcx
ffff800000109062:	48 29 c1             	sub    %rax,%rcx
ffff800000109065:	48 be 00 fc 10 00 00 	movabs $0xffff80000010fc00,%rsi
ffff80000010906c:	80 ff ff 
ffff80000010906f:	8b 45 ec             	mov    -0x14(%rbp),%eax
ffff800000109072:	48 98                	cltq   
ffff800000109074:	48 c1 e0 03          	shl    $0x3,%rax
ffff800000109078:	48 8d 14 c5 00 00 00 	lea    0x0(,%rax,8),%rdx
ffff80000010907f:	00 
ffff800000109080:	48 29 c2             	sub    %rax,%rdx
ffff800000109083:	48 8d 04 16          	lea    (%rsi,%rdx,1),%rax
ffff800000109087:	48 83 c0 10          	add    $0x10,%rax
ffff80000010908b:	48 89 08             	mov    %rcx,(%rax)
ffff80000010908e:	48 8b 45 e0          	mov    -0x20(%rbp),%rax
ffff800000109092:	48 8b 40 40          	mov    0x40(%rax),%rax
ffff800000109096:	48 89 c7             	mov    %rax,%rdi
ffff800000109099:	48 b8 b1 8c 10 00 00 	movabs $0xffff800000108cb1,%rax
ffff8000001090a0:	80 ff ff 
ffff8000001090a3:	ff d0                	callq  *%rax
ffff8000001090a5:	48 8b 45 e0          	mov    -0x20(%rbp),%rax
ffff8000001090a9:	48 8b 40 10          	mov    0x10(%rax),%rax
ffff8000001090ad:	48 89 c7             	mov    %rax,%rdi
ffff8000001090b0:	48 b8 4a 70 10 00 00 	movabs $0xffff80000010704a,%rax
ffff8000001090b7:	80 ff ff 
ffff8000001090ba:	ff d0                	callq  *%rax
ffff8000001090bc:	48 8b 45 e0          	mov    -0x20(%rbp),%rax
ffff8000001090c0:	48 8b 40 10          	mov    0x10(%rax),%rax
ffff8000001090c4:	be 01 00 00 00       	mov    $0x1,%esi
ffff8000001090c9:	48 89 c7             	mov    %rax,%rdi
ffff8000001090cc:	48 b8 c2 81 10 00 00 	movabs $0xffff8000001081c2,%rax
ffff8000001090d3:	80 ff ff 
ffff8000001090d6:	ff d0                	callq  *%rax
ffff8000001090d8:	48 8b 45 e0          	mov    -0x20(%rbp),%rax
ffff8000001090dc:	48 89 c7             	mov    %rax,%rdi
ffff8000001090df:	48 b8 b1 8c 10 00 00 	movabs $0xffff800000108cb1,%rax
ffff8000001090e6:	80 ff ff 
ffff8000001090e9:	ff d0                	callq  *%rax
ffff8000001090eb:	90                   	nop
ffff8000001090ec:	b8 01 00 00 00       	mov    $0x1,%eax
ffff8000001090f1:	e9 8b 00 00 00       	jmpq   ffff800000109181 <kfree+0x4d0>
ffff8000001090f6:	48 8b 45 e0          	mov    -0x20(%rbp),%rax
ffff8000001090fa:	48 89 c7             	mov    %rax,%rdi
ffff8000001090fd:	48 b8 2f 6f 10 00 00 	movabs $0xffff800000106f2f,%rax
ffff800000109104:	80 ff ff 
ffff800000109107:	ff d0                	callq  *%rax
ffff800000109109:	48 89 45 c8          	mov    %rax,-0x38(%rbp)
ffff80000010910d:	48 8b 45 c8          	mov    -0x38(%rbp),%rax
ffff800000109111:	48 89 45 e0          	mov    %rax,-0x20(%rbp)
ffff800000109115:	48 b9 00 fc 10 00 00 	movabs $0xffff80000010fc00,%rcx
ffff80000010911c:	80 ff ff 
ffff80000010911f:	8b 45 ec             	mov    -0x14(%rbp),%eax
ffff800000109122:	48 98                	cltq   
ffff800000109124:	48 c1 e0 03          	shl    $0x3,%rax
ffff800000109128:	48 8d 14 c5 00 00 00 	lea    0x0(,%rax,8),%rdx
ffff80000010912f:	00 
ffff800000109130:	48 29 c2             	sub    %rax,%rdx
ffff800000109133:	48 8d 04 11          	lea    (%rcx,%rdx,1),%rax
ffff800000109137:	48 83 c0 10          	add    $0x10,%rax
ffff80000010913b:	48 8b 40 08          	mov    0x8(%rax),%rax
ffff80000010913f:	48 3b 45 e0          	cmp    -0x20(%rbp),%rax
ffff800000109143:	0f 85 c5 fb ff ff    	jne    ffff800000108d0e <kfree+0x5d>
ffff800000109149:	83 45 ec 01          	addl   $0x1,-0x14(%rbp)
ffff80000010914d:	83 7d ec 0f          	cmpl   $0xf,-0x14(%rbp)
ffff800000109151:	0f 8e 89 fb ff ff    	jle    ffff800000108ce0 <kfree+0x2f>
ffff800000109157:	48 ba 40 a4 11 00 00 	movabs $0xffff80000011a440,%rdx
ffff80000010915e:	80 ff ff 
ffff800000109161:	be 00 00 00 00       	mov    $0x0,%esi
ffff800000109166:	bf 00 00 ff 00       	mov    $0xff0000,%edi
ffff80000010916b:	b8 00 00 00 00       	mov    $0x0,%eax
ffff800000109170:	48 b9 d0 56 10 00 00 	movabs $0xffff8000001056d0,%rcx
ffff800000109177:	80 ff ff 
ffff80000010917a:	ff d1                	callq  *%rcx
ffff80000010917c:	b8 00 00 00 00       	mov    $0x0,%eax
ffff800000109181:	48 83 c4 48          	add    $0x48,%rsp
ffff800000109185:	5b                   	pop    %rbx
ffff800000109186:	5d                   	pop    %rbp
ffff800000109187:	c3                   	retq   

ffff800000109188 <slab_create>:
ffff800000109188:	55                   	push   %rbp
ffff800000109189:	48 89 e5             	mov    %rsp,%rbp
ffff80000010918c:	53                   	push   %rbx
ffff80000010918d:	48 83 ec 38          	sub    $0x38,%rsp
ffff800000109191:	48 89 7d d8          	mov    %rdi,-0x28(%rbp)
ffff800000109195:	48 89 75 d0          	mov    %rsi,-0x30(%rbp)
ffff800000109199:	48 89 55 c8          	mov    %rdx,-0x38(%rbp)
ffff80000010919d:	48 89 4d c0          	mov    %rcx,-0x40(%rbp)
ffff8000001091a1:	48 c7 45 e8 00 00 00 	movq   $0x0,-0x18(%rbp)
ffff8000001091a8:	00 
ffff8000001091a9:	be 00 00 00 00       	mov    $0x0,%esi
ffff8000001091ae:	bf 38 00 00 00       	mov    $0x38,%edi
ffff8000001091b3:	48 b8 04 83 10 00 00 	movabs $0xffff800000108304,%rax
ffff8000001091ba:	80 ff ff 
ffff8000001091bd:	ff d0                	callq  *%rax
ffff8000001091bf:	48 89 45 e8          	mov    %rax,-0x18(%rbp)
ffff8000001091c3:	48 83 7d e8 00       	cmpq   $0x0,-0x18(%rbp)
ffff8000001091c8:	75 2f                	jne    ffff8000001091f9 <slab_create+0x71>
ffff8000001091ca:	48 ba 68 a4 11 00 00 	movabs $0xffff80000011a468,%rdx
ffff8000001091d1:	80 ff ff 
ffff8000001091d4:	be 00 00 00 00       	mov    $0x0,%esi
ffff8000001091d9:	bf 00 00 ff 00       	mov    $0xff0000,%edi
ffff8000001091de:	b8 00 00 00 00       	mov    $0x0,%eax
ffff8000001091e3:	48 b9 d0 56 10 00 00 	movabs $0xffff8000001056d0,%rcx
ffff8000001091ea:	80 ff ff 
ffff8000001091ed:	ff d1                	callq  *%rcx
ffff8000001091ef:	b8 00 00 00 00       	mov    $0x0,%eax
ffff8000001091f4:	e9 5c 03 00 00       	jmpq   ffff800000109555 <slab_create+0x3cd>
ffff8000001091f9:	48 8b 45 e8          	mov    -0x18(%rbp),%rax
ffff8000001091fd:	ba 38 00 00 00       	mov    $0x38,%edx
ffff800000109202:	be 00 00 00 00       	mov    $0x0,%esi
ffff800000109207:	48 89 c7             	mov    %rax,%rdi
ffff80000010920a:	48 b8 55 6f 10 00 00 	movabs $0xffff800000106f55,%rax
ffff800000109211:	80 ff ff 
ffff800000109214:	ff d0                	callq  *%rax
ffff800000109216:	48 8b 45 d8          	mov    -0x28(%rbp),%rax
ffff80000010921a:	48 83 c0 07          	add    $0x7,%rax
ffff80000010921e:	48 83 e0 f8          	and    $0xfffffffffffffff8,%rax
ffff800000109222:	48 89 c2             	mov    %rax,%rdx
ffff800000109225:	48 8b 45 e8          	mov    -0x18(%rbp),%rax
ffff800000109229:	48 89 10             	mov    %rdx,(%rax)
ffff80000010922c:	48 8b 45 e8          	mov    -0x18(%rbp),%rax
ffff800000109230:	48 c7 40 08 00 00 00 	movq   $0x0,0x8(%rax)
ffff800000109237:	00 
ffff800000109238:	48 8b 45 e8          	mov    -0x18(%rbp),%rax
ffff80000010923c:	48 c7 40 10 00 00 00 	movq   $0x0,0x10(%rax)
ffff800000109243:	00 
ffff800000109244:	be 00 00 00 00       	mov    $0x0,%esi
ffff800000109249:	bf 48 00 00 00       	mov    $0x48,%edi
ffff80000010924e:	48 b8 04 83 10 00 00 	movabs $0xffff800000108304,%rax
ffff800000109255:	80 ff ff 
ffff800000109258:	ff d0                	callq  *%rax
ffff80000010925a:	48 8b 55 e8          	mov    -0x18(%rbp),%rdx
ffff80000010925e:	48 89 42 18          	mov    %rax,0x18(%rdx)
ffff800000109262:	48 8b 45 e8          	mov    -0x18(%rbp),%rax
ffff800000109266:	48 8b 40 18          	mov    0x18(%rax),%rax
ffff80000010926a:	48 85 c0             	test   %rax,%rax
ffff80000010926d:	75 42                	jne    ffff8000001092b1 <slab_create+0x129>
ffff80000010926f:	48 ba 98 a4 11 00 00 	movabs $0xffff80000011a498,%rdx
ffff800000109276:	80 ff ff 
ffff800000109279:	be 00 00 00 00       	mov    $0x0,%esi
ffff80000010927e:	bf 00 00 ff 00       	mov    $0xff0000,%edi
ffff800000109283:	b8 00 00 00 00       	mov    $0x0,%eax
ffff800000109288:	48 b9 d0 56 10 00 00 	movabs $0xffff8000001056d0,%rcx
ffff80000010928f:	80 ff ff 
ffff800000109292:	ff d1                	callq  *%rcx
ffff800000109294:	48 8b 45 e8          	mov    -0x18(%rbp),%rax
ffff800000109298:	48 89 c7             	mov    %rax,%rdi
ffff80000010929b:	48 b8 b1 8c 10 00 00 	movabs $0xffff800000108cb1,%rax
ffff8000001092a2:	80 ff ff 
ffff8000001092a5:	ff d0                	callq  *%rax
ffff8000001092a7:	b8 00 00 00 00       	mov    $0x0,%eax
ffff8000001092ac:	e9 a4 02 00 00       	jmpq   ffff800000109555 <slab_create+0x3cd>
ffff8000001092b1:	48 8b 45 e8          	mov    -0x18(%rbp),%rax
ffff8000001092b5:	48 8b 40 18          	mov    0x18(%rax),%rax
ffff8000001092b9:	ba 48 00 00 00       	mov    $0x48,%edx
ffff8000001092be:	be 00 00 00 00       	mov    $0x0,%esi
ffff8000001092c3:	48 89 c7             	mov    %rax,%rdi
ffff8000001092c6:	48 b8 55 6f 10 00 00 	movabs $0xffff800000106f55,%rax
ffff8000001092cd:	80 ff ff 
ffff8000001092d0:	ff d0                	callq  *%rax
ffff8000001092d2:	48 8b 45 e8          	mov    -0x18(%rbp),%rax
ffff8000001092d6:	48 c7 40 20 00 00 00 	movq   $0x0,0x20(%rax)
ffff8000001092dd:	00 
ffff8000001092de:	48 8b 45 e8          	mov    -0x18(%rbp),%rax
ffff8000001092e2:	48 8b 55 d0          	mov    -0x30(%rbp),%rdx
ffff8000001092e6:	48 89 50 28          	mov    %rdx,0x28(%rax)
ffff8000001092ea:	48 8b 45 e8          	mov    -0x18(%rbp),%rax
ffff8000001092ee:	48 8b 55 c8          	mov    -0x38(%rbp),%rdx
ffff8000001092f2:	48 89 50 30          	mov    %rdx,0x30(%rax)
ffff8000001092f6:	48 8b 45 e8          	mov    -0x18(%rbp),%rax
ffff8000001092fa:	48 8b 40 18          	mov    0x18(%rax),%rax
ffff8000001092fe:	48 89 c7             	mov    %rax,%rdi
ffff800000109301:	48 b8 28 6e 10 00 00 	movabs $0xffff800000106e28,%rax
ffff800000109308:	80 ff ff 
ffff80000010930b:	ff d0                	callq  *%rax
ffff80000010930d:	48 8b 45 e8          	mov    -0x18(%rbp),%rax
ffff800000109311:	48 8b 58 18          	mov    0x18(%rax),%rbx
ffff800000109315:	ba 00 00 00 00       	mov    $0x0,%edx
ffff80000010931a:	be 01 00 00 00       	mov    $0x1,%esi
ffff80000010931f:	bf 02 00 00 00       	mov    $0x2,%edi
ffff800000109324:	48 b8 75 7d 10 00 00 	movabs $0xffff800000107d75,%rax
ffff80000010932b:	80 ff ff 
ffff80000010932e:	ff d0                	callq  *%rax
ffff800000109330:	48 89 43 10          	mov    %rax,0x10(%rbx)
ffff800000109334:	48 8b 45 e8          	mov    -0x18(%rbp),%rax
ffff800000109338:	48 8b 40 18          	mov    0x18(%rax),%rax
ffff80000010933c:	48 8b 40 10          	mov    0x10(%rax),%rax
ffff800000109340:	48 85 c0             	test   %rax,%rax
ffff800000109343:	75 59                	jne    ffff80000010939e <slab_create+0x216>
ffff800000109345:	48 ba d8 a4 11 00 00 	movabs $0xffff80000011a4d8,%rdx
ffff80000010934c:	80 ff ff 
ffff80000010934f:	be 00 00 00 00       	mov    $0x0,%esi
ffff800000109354:	bf 00 00 ff 00       	mov    $0xff0000,%edi
ffff800000109359:	b8 00 00 00 00       	mov    $0x0,%eax
ffff80000010935e:	48 b9 d0 56 10 00 00 	movabs $0xffff8000001056d0,%rcx
ffff800000109365:	80 ff ff 
ffff800000109368:	ff d1                	callq  *%rcx
ffff80000010936a:	48 8b 45 e8          	mov    -0x18(%rbp),%rax
ffff80000010936e:	48 8b 40 18          	mov    0x18(%rax),%rax
ffff800000109372:	48 89 c7             	mov    %rax,%rdi
ffff800000109375:	48 b8 b1 8c 10 00 00 	movabs $0xffff800000108cb1,%rax
ffff80000010937c:	80 ff ff 
ffff80000010937f:	ff d0                	callq  *%rax
ffff800000109381:	48 8b 45 e8          	mov    -0x18(%rbp),%rax
ffff800000109385:	48 89 c7             	mov    %rax,%rdi
ffff800000109388:	48 b8 b1 8c 10 00 00 	movabs $0xffff800000108cb1,%rax
ffff80000010938f:	80 ff ff 
ffff800000109392:	ff d0                	callq  *%rax
ffff800000109394:	b8 00 00 00 00       	mov    $0x0,%eax
ffff800000109399:	e9 b7 01 00 00       	jmpq   ffff800000109555 <slab_create+0x3cd>
ffff80000010939e:	48 8b 45 e8          	mov    -0x18(%rbp),%rax
ffff8000001093a2:	48 8b 40 18          	mov    0x18(%rax),%rax
ffff8000001093a6:	48 8b 40 10          	mov    0x10(%rax),%rax
ffff8000001093aa:	be 08 00 00 00       	mov    $0x8,%esi
ffff8000001093af:	48 89 c7             	mov    %rax,%rdi
ffff8000001093b2:	48 b8 dc 6f 10 00 00 	movabs $0xffff800000106fdc,%rax
ffff8000001093b9:	80 ff ff 
ffff8000001093bc:	ff d0                	callq  *%rax
ffff8000001093be:	48 8b 45 e8          	mov    -0x18(%rbp),%rax
ffff8000001093c2:	48 8b 48 18          	mov    0x18(%rax),%rcx
ffff8000001093c6:	48 8b 45 e8          	mov    -0x18(%rbp),%rax
ffff8000001093ca:	48 8b 18             	mov    (%rax),%rbx
ffff8000001093cd:	b8 00 00 20 00       	mov    $0x200000,%eax
ffff8000001093d2:	ba 00 00 00 00       	mov    $0x0,%edx
ffff8000001093d7:	48 f7 f3             	div    %rbx
ffff8000001093da:	48 89 41 18          	mov    %rax,0x18(%rcx)
ffff8000001093de:	48 8b 45 e8          	mov    -0x18(%rbp),%rax
ffff8000001093e2:	48 8b 40 18          	mov    0x18(%rax),%rax
ffff8000001093e6:	48 8b 55 e8          	mov    -0x18(%rbp),%rdx
ffff8000001093ea:	48 8b 52 18          	mov    0x18(%rdx),%rdx
ffff8000001093ee:	48 8b 52 18          	mov    0x18(%rdx),%rdx
ffff8000001093f2:	48 89 50 20          	mov    %rdx,0x20(%rax)
ffff8000001093f6:	48 8b 45 e8          	mov    -0x18(%rbp),%rax
ffff8000001093fa:	48 8b 40 18          	mov    0x18(%rax),%rax
ffff8000001093fe:	48 8b 50 20          	mov    0x20(%rax),%rdx
ffff800000109402:	48 8b 45 e8          	mov    -0x18(%rbp),%rax
ffff800000109406:	48 89 50 10          	mov    %rdx,0x10(%rax)
ffff80000010940a:	48 8b 45 e8          	mov    -0x18(%rbp),%rax
ffff80000010940e:	48 8b 40 18          	mov    0x18(%rax),%rax
ffff800000109412:	48 8b 55 e8          	mov    -0x18(%rbp),%rdx
ffff800000109416:	48 8b 52 18          	mov    0x18(%rdx),%rdx
ffff80000010941a:	48 8b 52 10          	mov    0x10(%rdx),%rdx
ffff80000010941e:	48 8b 4a 08          	mov    0x8(%rdx),%rcx
ffff800000109422:	48 ba 00 00 00 00 00 	movabs $0xffff800000000000,%rdx
ffff800000109429:	80 ff ff 
ffff80000010942c:	48 01 ca             	add    %rcx,%rdx
ffff80000010942f:	48 89 50 28          	mov    %rdx,0x28(%rax)
ffff800000109433:	48 8b 45 e8          	mov    -0x18(%rbp),%rax
ffff800000109437:	48 8b 40 18          	mov    0x18(%rax),%rax
ffff80000010943b:	48 8b 55 e8          	mov    -0x18(%rbp),%rdx
ffff80000010943f:	48 8b 52 18          	mov    0x18(%rdx),%rdx
ffff800000109443:	48 8b 52 20          	mov    0x20(%rdx),%rdx
ffff800000109447:	48 89 50 38          	mov    %rdx,0x38(%rax)
ffff80000010944b:	48 8b 45 e8          	mov    -0x18(%rbp),%rax
ffff80000010944f:	48 8b 40 18          	mov    0x18(%rax),%rax
ffff800000109453:	48 8b 55 e8          	mov    -0x18(%rbp),%rdx
ffff800000109457:	48 8b 52 18          	mov    0x18(%rdx),%rdx
ffff80000010945b:	48 8b 52 38          	mov    0x38(%rdx),%rdx
ffff80000010945f:	48 83 c2 3f          	add    $0x3f,%rdx
ffff800000109463:	48 c1 ea 06          	shr    $0x6,%rdx
ffff800000109467:	48 c1 e2 03          	shl    $0x3,%rdx
ffff80000010946b:	48 89 50 30          	mov    %rdx,0x30(%rax)
ffff80000010946f:	48 8b 45 e8          	mov    -0x18(%rbp),%rax
ffff800000109473:	48 8b 58 18          	mov    0x18(%rax),%rbx
ffff800000109477:	48 8b 45 e8          	mov    -0x18(%rbp),%rax
ffff80000010947b:	48 8b 40 18          	mov    0x18(%rax),%rax
ffff80000010947f:	48 8b 40 30          	mov    0x30(%rax),%rax
ffff800000109483:	be 00 00 00 00       	mov    $0x0,%esi
ffff800000109488:	48 89 c7             	mov    %rax,%rdi
ffff80000010948b:	48 b8 04 83 10 00 00 	movabs $0xffff800000108304,%rax
ffff800000109492:	80 ff ff 
ffff800000109495:	ff d0                	callq  *%rax
ffff800000109497:	48 89 43 40          	mov    %rax,0x40(%rbx)
ffff80000010949b:	48 8b 45 e8          	mov    -0x18(%rbp),%rax
ffff80000010949f:	48 8b 40 18          	mov    0x18(%rax),%rax
ffff8000001094a3:	48 8b 40 40          	mov    0x40(%rax),%rax
ffff8000001094a7:	48 85 c0             	test   %rax,%rax
ffff8000001094aa:	75 76                	jne    ffff800000109522 <slab_create+0x39a>
ffff8000001094ac:	48 ba 20 a5 11 00 00 	movabs $0xffff80000011a520,%rdx
ffff8000001094b3:	80 ff ff 
ffff8000001094b6:	be 00 00 00 00       	mov    $0x0,%esi
ffff8000001094bb:	bf 00 00 ff 00       	mov    $0xff0000,%edi
ffff8000001094c0:	b8 00 00 00 00       	mov    $0x0,%eax
ffff8000001094c5:	48 b9 d0 56 10 00 00 	movabs $0xffff8000001056d0,%rcx
ffff8000001094cc:	80 ff ff 
ffff8000001094cf:	ff d1                	callq  *%rcx
ffff8000001094d1:	48 8b 45 e8          	mov    -0x18(%rbp),%rax
ffff8000001094d5:	48 8b 40 18          	mov    0x18(%rax),%rax
ffff8000001094d9:	48 8b 40 10          	mov    0x10(%rax),%rax
ffff8000001094dd:	be 01 00 00 00       	mov    $0x1,%esi
ffff8000001094e2:	48 89 c7             	mov    %rax,%rdi
ffff8000001094e5:	48 b8 c2 81 10 00 00 	movabs $0xffff8000001081c2,%rax
ffff8000001094ec:	80 ff ff 
ffff8000001094ef:	ff d0                	callq  *%rax
ffff8000001094f1:	48 8b 45 e8          	mov    -0x18(%rbp),%rax
ffff8000001094f5:	48 8b 40 18          	mov    0x18(%rax),%rax
ffff8000001094f9:	48 89 c7             	mov    %rax,%rdi
ffff8000001094fc:	48 b8 b1 8c 10 00 00 	movabs $0xffff800000108cb1,%rax
ffff800000109503:	80 ff ff 
ffff800000109506:	ff d0                	callq  *%rax
ffff800000109508:	48 8b 45 e8          	mov    -0x18(%rbp),%rax
ffff80000010950c:	48 89 c7             	mov    %rax,%rdi
ffff80000010950f:	48 b8 b1 8c 10 00 00 	movabs $0xffff800000108cb1,%rax
ffff800000109516:	80 ff ff 
ffff800000109519:	ff d0                	callq  *%rax
ffff80000010951b:	b8 00 00 00 00       	mov    $0x0,%eax
ffff800000109520:	eb 33                	jmp    ffff800000109555 <slab_create+0x3cd>
ffff800000109522:	48 8b 45 e8          	mov    -0x18(%rbp),%rax
ffff800000109526:	48 8b 40 18          	mov    0x18(%rax),%rax
ffff80000010952a:	48 8b 40 30          	mov    0x30(%rax),%rax
ffff80000010952e:	48 89 c2             	mov    %rax,%rdx
ffff800000109531:	48 8b 45 e8          	mov    -0x18(%rbp),%rax
ffff800000109535:	48 8b 40 18          	mov    0x18(%rax),%rax
ffff800000109539:	48 8b 40 40          	mov    0x40(%rax),%rax
ffff80000010953d:	be 00 00 00 00       	mov    $0x0,%esi
ffff800000109542:	48 89 c7             	mov    %rax,%rdi
ffff800000109545:	48 b8 55 6f 10 00 00 	movabs $0xffff800000106f55,%rax
ffff80000010954c:	80 ff ff 
ffff80000010954f:	ff d0                	callq  *%rax
ffff800000109551:	48 8b 45 e8          	mov    -0x18(%rbp),%rax
ffff800000109555:	48 83 c4 38          	add    $0x38,%rsp
ffff800000109559:	5b                   	pop    %rbx
ffff80000010955a:	5d                   	pop    %rbp
ffff80000010955b:	c3                   	retq   

ffff80000010955c <slab_destroy>:
ffff80000010955c:	55                   	push   %rbp
ffff80000010955d:	48 89 e5             	mov    %rsp,%rbp
ffff800000109560:	48 83 ec 30          	sub    $0x30,%rsp
ffff800000109564:	48 89 7d d8          	mov    %rdi,-0x28(%rbp)
ffff800000109568:	48 8b 45 d8          	mov    -0x28(%rbp),%rax
ffff80000010956c:	48 8b 40 18          	mov    0x18(%rax),%rax
ffff800000109570:	48 89 45 f8          	mov    %rax,-0x8(%rbp)
ffff800000109574:	48 c7 45 f0 00 00 00 	movq   $0x0,-0x10(%rbp)
ffff80000010957b:	00 
ffff80000010957c:	48 8b 45 d8          	mov    -0x28(%rbp),%rax
ffff800000109580:	48 8b 40 08          	mov    0x8(%rax),%rax
ffff800000109584:	48 85 c0             	test   %rax,%rax
ffff800000109587:	74 2f                	je     ffff8000001095b8 <slab_destroy+0x5c>
ffff800000109589:	48 ba 65 a5 11 00 00 	movabs $0xffff80000011a565,%rdx
ffff800000109590:	80 ff ff 
ffff800000109593:	be 00 00 00 00       	mov    $0x0,%esi
ffff800000109598:	bf 00 00 ff 00       	mov    $0xff0000,%edi
ffff80000010959d:	b8 00 00 00 00       	mov    $0x0,%eax
ffff8000001095a2:	48 b9 d0 56 10 00 00 	movabs $0xffff8000001056d0,%rcx
ffff8000001095a9:	80 ff ff 
ffff8000001095ac:	ff d1                	callq  *%rcx
ffff8000001095ae:	b8 00 00 00 00       	mov    $0x0,%eax
ffff8000001095b3:	e9 2d 01 00 00       	jmpq   ffff8000001096e5 <slab_destroy+0x189>
ffff8000001095b8:	e9 97 00 00 00       	jmpq   ffff800000109654 <slab_destroy+0xf8>
ffff8000001095bd:	48 8b 45 f8          	mov    -0x8(%rbp),%rax
ffff8000001095c1:	48 89 45 f0          	mov    %rax,-0x10(%rbp)
ffff8000001095c5:	48 8b 45 f8          	mov    -0x8(%rbp),%rax
ffff8000001095c9:	48 89 c7             	mov    %rax,%rdi
ffff8000001095cc:	48 b8 2f 6f 10 00 00 	movabs $0xffff800000106f2f,%rax
ffff8000001095d3:	80 ff ff 
ffff8000001095d6:	ff d0                	callq  *%rax
ffff8000001095d8:	48 89 45 e8          	mov    %rax,-0x18(%rbp)
ffff8000001095dc:	48 8b 45 e8          	mov    -0x18(%rbp),%rax
ffff8000001095e0:	48 89 45 f8          	mov    %rax,-0x8(%rbp)
ffff8000001095e4:	48 8b 45 f0          	mov    -0x10(%rbp),%rax
ffff8000001095e8:	48 89 c7             	mov    %rax,%rdi
ffff8000001095eb:	48 b8 cf 6e 10 00 00 	movabs $0xffff800000106ecf,%rax
ffff8000001095f2:	80 ff ff 
ffff8000001095f5:	ff d0                	callq  *%rax
ffff8000001095f7:	48 8b 45 f0          	mov    -0x10(%rbp),%rax
ffff8000001095fb:	48 8b 40 40          	mov    0x40(%rax),%rax
ffff8000001095ff:	48 89 c7             	mov    %rax,%rdi
ffff800000109602:	48 b8 b1 8c 10 00 00 	movabs $0xffff800000108cb1,%rax
ffff800000109609:	80 ff ff 
ffff80000010960c:	ff d0                	callq  *%rax
ffff80000010960e:	48 8b 45 f0          	mov    -0x10(%rbp),%rax
ffff800000109612:	48 8b 40 10          	mov    0x10(%rax),%rax
ffff800000109616:	48 89 c7             	mov    %rax,%rdi
ffff800000109619:	48 b8 4a 70 10 00 00 	movabs $0xffff80000010704a,%rax
ffff800000109620:	80 ff ff 
ffff800000109623:	ff d0                	callq  *%rax
ffff800000109625:	48 8b 45 f0          	mov    -0x10(%rbp),%rax
ffff800000109629:	48 8b 40 10          	mov    0x10(%rax),%rax
ffff80000010962d:	be 01 00 00 00       	mov    $0x1,%esi
ffff800000109632:	48 89 c7             	mov    %rax,%rdi
ffff800000109635:	48 b8 c2 81 10 00 00 	movabs $0xffff8000001081c2,%rax
ffff80000010963c:	80 ff ff 
ffff80000010963f:	ff d0                	callq  *%rax
ffff800000109641:	48 8b 45 f0          	mov    -0x10(%rbp),%rax
ffff800000109645:	48 89 c7             	mov    %rax,%rdi
ffff800000109648:	48 b8 b1 8c 10 00 00 	movabs $0xffff800000108cb1,%rax
ffff80000010964f:	80 ff ff 
ffff800000109652:	ff d0                	callq  *%rax
ffff800000109654:	48 8b 45 f8          	mov    -0x8(%rbp),%rax
ffff800000109658:	48 89 c7             	mov    %rax,%rdi
ffff80000010965b:	48 b8 fe 6e 10 00 00 	movabs $0xffff800000106efe,%rax
ffff800000109662:	80 ff ff 
ffff800000109665:	ff d0                	callq  *%rax
ffff800000109667:	48 85 c0             	test   %rax,%rax
ffff80000010966a:	0f 84 4d ff ff ff    	je     ffff8000001095bd <slab_destroy+0x61>
ffff800000109670:	48 8b 45 f8          	mov    -0x8(%rbp),%rax
ffff800000109674:	48 8b 40 40          	mov    0x40(%rax),%rax
ffff800000109678:	48 89 c7             	mov    %rax,%rdi
ffff80000010967b:	48 b8 b1 8c 10 00 00 	movabs $0xffff800000108cb1,%rax
ffff800000109682:	80 ff ff 
ffff800000109685:	ff d0                	callq  *%rax
ffff800000109687:	48 8b 45 f8          	mov    -0x8(%rbp),%rax
ffff80000010968b:	48 8b 40 10          	mov    0x10(%rax),%rax
ffff80000010968f:	48 89 c7             	mov    %rax,%rdi
ffff800000109692:	48 b8 4a 70 10 00 00 	movabs $0xffff80000010704a,%rax
ffff800000109699:	80 ff ff 
ffff80000010969c:	ff d0                	callq  *%rax
ffff80000010969e:	48 8b 45 f8          	mov    -0x8(%rbp),%rax
ffff8000001096a2:	48 8b 40 10          	mov    0x10(%rax),%rax
ffff8000001096a6:	be 01 00 00 00       	mov    $0x1,%esi
ffff8000001096ab:	48 89 c7             	mov    %rax,%rdi
ffff8000001096ae:	48 b8 c2 81 10 00 00 	movabs $0xffff8000001081c2,%rax
ffff8000001096b5:	80 ff ff 
ffff8000001096b8:	ff d0                	callq  *%rax
ffff8000001096ba:	48 8b 45 f8          	mov    -0x8(%rbp),%rax
ffff8000001096be:	48 89 c7             	mov    %rax,%rdi
ffff8000001096c1:	48 b8 b1 8c 10 00 00 	movabs $0xffff800000108cb1,%rax
ffff8000001096c8:	80 ff ff 
ffff8000001096cb:	ff d0                	callq  *%rax
ffff8000001096cd:	48 8b 45 d8          	mov    -0x28(%rbp),%rax
ffff8000001096d1:	48 89 c7             	mov    %rax,%rdi
ffff8000001096d4:	48 b8 b1 8c 10 00 00 	movabs $0xffff800000108cb1,%rax
ffff8000001096db:	80 ff ff 
ffff8000001096de:	ff d0                	callq  *%rax
ffff8000001096e0:	b8 01 00 00 00       	mov    $0x1,%eax
ffff8000001096e5:	c9                   	leaveq 
ffff8000001096e6:	c3                   	retq   

ffff8000001096e7 <slab_malloc>:
ffff8000001096e7:	55                   	push   %rbp
ffff8000001096e8:	48 89 e5             	mov    %rsp,%rbp
ffff8000001096eb:	53                   	push   %rbx
ffff8000001096ec:	48 83 ec 38          	sub    $0x38,%rsp
ffff8000001096f0:	48 89 7d c8          	mov    %rdi,-0x38(%rbp)
ffff8000001096f4:	48 89 75 c0          	mov    %rsi,-0x40(%rbp)
ffff8000001096f8:	48 8b 45 c8          	mov    -0x38(%rbp),%rax
ffff8000001096fc:	48 8b 40 18          	mov    0x18(%rax),%rax
ffff800000109700:	48 89 45 e8          	mov    %rax,-0x18(%rbp)
ffff800000109704:	48 c7 45 e0 00 00 00 	movq   $0x0,-0x20(%rbp)
ffff80000010970b:	00 
ffff80000010970c:	c7 45 dc 00 00 00 00 	movl   $0x0,-0x24(%rbp)
ffff800000109713:	48 8b 45 c8          	mov    -0x38(%rbp),%rax
ffff800000109717:	48 8b 40 10          	mov    0x10(%rax),%rax
ffff80000010971b:	48 85 c0             	test   %rax,%rax
ffff80000010971e:	0f 85 f0 03 00 00    	jne    ffff800000109b14 <slab_malloc+0x42d>
ffff800000109724:	be 00 00 00 00       	mov    $0x0,%esi
ffff800000109729:	bf 48 00 00 00       	mov    $0x48,%edi
ffff80000010972e:	48 b8 04 83 10 00 00 	movabs $0xffff800000108304,%rax
ffff800000109735:	80 ff ff 
ffff800000109738:	ff d0                	callq  *%rax
ffff80000010973a:	48 89 45 e0          	mov    %rax,-0x20(%rbp)
ffff80000010973e:	48 83 7d e0 00       	cmpq   $0x0,-0x20(%rbp)
ffff800000109743:	75 2f                	jne    ffff800000109774 <slab_malloc+0x8d>
ffff800000109745:	48 ba 88 a5 11 00 00 	movabs $0xffff80000011a588,%rdx
ffff80000010974c:	80 ff ff 
ffff80000010974f:	be 00 00 00 00       	mov    $0x0,%esi
ffff800000109754:	bf 00 00 ff 00       	mov    $0xff0000,%edi
ffff800000109759:	b8 00 00 00 00       	mov    $0x0,%eax
ffff80000010975e:	48 b9 d0 56 10 00 00 	movabs $0xffff8000001056d0,%rcx
ffff800000109765:	80 ff ff 
ffff800000109768:	ff d1                	callq  *%rcx
ffff80000010976a:	b8 00 00 00 00       	mov    $0x0,%eax
ffff80000010976f:	e9 19 06 00 00       	jmpq   ffff800000109d8d <slab_malloc+0x6a6>
ffff800000109774:	48 8b 45 e0          	mov    -0x20(%rbp),%rax
ffff800000109778:	ba 48 00 00 00       	mov    $0x48,%edx
ffff80000010977d:	be 00 00 00 00       	mov    $0x0,%esi
ffff800000109782:	48 89 c7             	mov    %rax,%rdi
ffff800000109785:	48 b8 55 6f 10 00 00 	movabs $0xffff800000106f55,%rax
ffff80000010978c:	80 ff ff 
ffff80000010978f:	ff d0                	callq  *%rax
ffff800000109791:	48 8b 45 e0          	mov    -0x20(%rbp),%rax
ffff800000109795:	48 89 c7             	mov    %rax,%rdi
ffff800000109798:	48 b8 28 6e 10 00 00 	movabs $0xffff800000106e28,%rax
ffff80000010979f:	80 ff ff 
ffff8000001097a2:	ff d0                	callq  *%rax
ffff8000001097a4:	ba 00 00 00 00       	mov    $0x0,%edx
ffff8000001097a9:	be 01 00 00 00       	mov    $0x1,%esi
ffff8000001097ae:	bf 02 00 00 00       	mov    $0x2,%edi
ffff8000001097b3:	48 b8 75 7d 10 00 00 	movabs $0xffff800000107d75,%rax
ffff8000001097ba:	80 ff ff 
ffff8000001097bd:	ff d0                	callq  *%rax
ffff8000001097bf:	48 8b 55 e0          	mov    -0x20(%rbp),%rdx
ffff8000001097c3:	48 89 42 10          	mov    %rax,0x10(%rdx)
ffff8000001097c7:	48 8b 45 e0          	mov    -0x20(%rbp),%rax
ffff8000001097cb:	48 8b 40 10          	mov    0x10(%rax),%rax
ffff8000001097cf:	48 85 c0             	test   %rax,%rax
ffff8000001097d2:	75 42                	jne    ffff800000109816 <slab_malloc+0x12f>
ffff8000001097d4:	48 ba b8 a5 11 00 00 	movabs $0xffff80000011a5b8,%rdx
ffff8000001097db:	80 ff ff 
ffff8000001097de:	be 00 00 00 00       	mov    $0x0,%esi
ffff8000001097e3:	bf 00 00 ff 00       	mov    $0xff0000,%edi
ffff8000001097e8:	b8 00 00 00 00       	mov    $0x0,%eax
ffff8000001097ed:	48 b9 d0 56 10 00 00 	movabs $0xffff8000001056d0,%rcx
ffff8000001097f4:	80 ff ff 
ffff8000001097f7:	ff d1                	callq  *%rcx
ffff8000001097f9:	48 8b 45 e0          	mov    -0x20(%rbp),%rax
ffff8000001097fd:	48 89 c7             	mov    %rax,%rdi
ffff800000109800:	48 b8 b1 8c 10 00 00 	movabs $0xffff800000108cb1,%rax
ffff800000109807:	80 ff ff 
ffff80000010980a:	ff d0                	callq  *%rax
ffff80000010980c:	b8 00 00 00 00       	mov    $0x0,%eax
ffff800000109811:	e9 77 05 00 00       	jmpq   ffff800000109d8d <slab_malloc+0x6a6>
ffff800000109816:	48 8b 45 e0          	mov    -0x20(%rbp),%rax
ffff80000010981a:	48 8b 40 10          	mov    0x10(%rax),%rax
ffff80000010981e:	be 08 00 00 00       	mov    $0x8,%esi
ffff800000109823:	48 89 c7             	mov    %rax,%rdi
ffff800000109826:	48 b8 dc 6f 10 00 00 	movabs $0xffff800000106fdc,%rax
ffff80000010982d:	80 ff ff 
ffff800000109830:	ff d0                	callq  *%rax
ffff800000109832:	48 8b 45 c8          	mov    -0x38(%rbp),%rax
ffff800000109836:	48 8b 18             	mov    (%rax),%rbx
ffff800000109839:	b8 00 00 20 00       	mov    $0x200000,%eax
ffff80000010983e:	ba 00 00 00 00       	mov    $0x0,%edx
ffff800000109843:	48 f7 f3             	div    %rbx
ffff800000109846:	48 89 c2             	mov    %rax,%rdx
ffff800000109849:	48 8b 45 e0          	mov    -0x20(%rbp),%rax
ffff80000010984d:	48 89 50 18          	mov    %rdx,0x18(%rax)
ffff800000109851:	48 8b 45 e0          	mov    -0x20(%rbp),%rax
ffff800000109855:	48 8b 50 18          	mov    0x18(%rax),%rdx
ffff800000109859:	48 8b 45 e0          	mov    -0x20(%rbp),%rax
ffff80000010985d:	48 89 50 20          	mov    %rdx,0x20(%rax)
ffff800000109861:	48 8b 45 e0          	mov    -0x20(%rbp),%rax
ffff800000109865:	48 8b 40 10          	mov    0x10(%rax),%rax
ffff800000109869:	48 8b 50 08          	mov    0x8(%rax),%rdx
ffff80000010986d:	48 b8 00 00 00 00 00 	movabs $0xffff800000000000,%rax
ffff800000109874:	80 ff ff 
ffff800000109877:	48 01 d0             	add    %rdx,%rax
ffff80000010987a:	48 89 c2             	mov    %rax,%rdx
ffff80000010987d:	48 8b 45 e0          	mov    -0x20(%rbp),%rax
ffff800000109881:	48 89 50 28          	mov    %rdx,0x28(%rax)
ffff800000109885:	48 8b 45 e0          	mov    -0x20(%rbp),%rax
ffff800000109889:	48 8b 50 20          	mov    0x20(%rax),%rdx
ffff80000010988d:	48 8b 45 e0          	mov    -0x20(%rbp),%rax
ffff800000109891:	48 89 50 38          	mov    %rdx,0x38(%rax)
ffff800000109895:	48 8b 45 e0          	mov    -0x20(%rbp),%rax
ffff800000109899:	48 8b 40 38          	mov    0x38(%rax),%rax
ffff80000010989d:	48 83 c0 3f          	add    $0x3f,%rax
ffff8000001098a1:	48 c1 e8 06          	shr    $0x6,%rax
ffff8000001098a5:	48 8d 14 c5 00 00 00 	lea    0x0(,%rax,8),%rdx
ffff8000001098ac:	00 
ffff8000001098ad:	48 8b 45 e0          	mov    -0x20(%rbp),%rax
ffff8000001098b1:	48 89 50 30          	mov    %rdx,0x30(%rax)
ffff8000001098b5:	48 8b 45 e0          	mov    -0x20(%rbp),%rax
ffff8000001098b9:	48 8b 40 30          	mov    0x30(%rax),%rax
ffff8000001098bd:	be 00 00 00 00       	mov    $0x0,%esi
ffff8000001098c2:	48 89 c7             	mov    %rax,%rdi
ffff8000001098c5:	48 b8 04 83 10 00 00 	movabs $0xffff800000108304,%rax
ffff8000001098cc:	80 ff ff 
ffff8000001098cf:	ff d0                	callq  *%rax
ffff8000001098d1:	48 8b 55 e0          	mov    -0x20(%rbp),%rdx
ffff8000001098d5:	48 89 42 40          	mov    %rax,0x40(%rdx)
ffff8000001098d9:	48 8b 45 e0          	mov    -0x20(%rbp),%rax
ffff8000001098dd:	48 8b 40 40          	mov    0x40(%rax),%rax
ffff8000001098e1:	48 85 c0             	test   %rax,%rax
ffff8000001098e4:	75 5e                	jne    ffff800000109944 <slab_malloc+0x25d>
ffff8000001098e6:	48 ba f0 a5 11 00 00 	movabs $0xffff80000011a5f0,%rdx
ffff8000001098ed:	80 ff ff 
ffff8000001098f0:	be 00 00 00 00       	mov    $0x0,%esi
ffff8000001098f5:	bf 00 00 ff 00       	mov    $0xff0000,%edi
ffff8000001098fa:	b8 00 00 00 00       	mov    $0x0,%eax
ffff8000001098ff:	48 b9 d0 56 10 00 00 	movabs $0xffff8000001056d0,%rcx
ffff800000109906:	80 ff ff 
ffff800000109909:	ff d1                	callq  *%rcx
ffff80000010990b:	48 8b 45 e0          	mov    -0x20(%rbp),%rax
ffff80000010990f:	48 8b 40 10          	mov    0x10(%rax),%rax
ffff800000109913:	be 01 00 00 00       	mov    $0x1,%esi
ffff800000109918:	48 89 c7             	mov    %rax,%rdi
ffff80000010991b:	48 b8 c2 81 10 00 00 	movabs $0xffff8000001081c2,%rax
ffff800000109922:	80 ff ff 
ffff800000109925:	ff d0                	callq  *%rax
ffff800000109927:	48 8b 45 e0          	mov    -0x20(%rbp),%rax
ffff80000010992b:	48 89 c7             	mov    %rax,%rdi
ffff80000010992e:	48 b8 b1 8c 10 00 00 	movabs $0xffff800000108cb1,%rax
ffff800000109935:	80 ff ff 
ffff800000109938:	ff d0                	callq  *%rax
ffff80000010993a:	b8 00 00 00 00       	mov    $0x0,%eax
ffff80000010993f:	e9 49 04 00 00       	jmpq   ffff800000109d8d <slab_malloc+0x6a6>
ffff800000109944:	48 8b 45 e0          	mov    -0x20(%rbp),%rax
ffff800000109948:	48 8b 40 30          	mov    0x30(%rax),%rax
ffff80000010994c:	48 89 c2             	mov    %rax,%rdx
ffff80000010994f:	48 8b 45 e0          	mov    -0x20(%rbp),%rax
ffff800000109953:	48 8b 40 40          	mov    0x40(%rax),%rax
ffff800000109957:	be 00 00 00 00       	mov    $0x0,%esi
ffff80000010995c:	48 89 c7             	mov    %rax,%rdi
ffff80000010995f:	48 b8 55 6f 10 00 00 	movabs $0xffff800000106f55,%rax
ffff800000109966:	80 ff ff 
ffff800000109969:	ff d0                	callq  *%rax
ffff80000010996b:	48 8b 55 e0          	mov    -0x20(%rbp),%rdx
ffff80000010996f:	48 8b 45 c8          	mov    -0x38(%rbp),%rax
ffff800000109973:	48 8b 40 18          	mov    0x18(%rax),%rax
ffff800000109977:	48 89 d6             	mov    %rdx,%rsi
ffff80000010997a:	48 89 c7             	mov    %rax,%rdi
ffff80000010997d:	48 b8 49 6e 10 00 00 	movabs $0xffff800000106e49,%rax
ffff800000109984:	80 ff ff 
ffff800000109987:	ff d0                	callq  *%rax
ffff800000109989:	48 8b 45 c8          	mov    -0x38(%rbp),%rax
ffff80000010998d:	48 8b 50 10          	mov    0x10(%rax),%rdx
ffff800000109991:	48 8b 45 e0          	mov    -0x20(%rbp),%rax
ffff800000109995:	48 8b 40 38          	mov    0x38(%rax),%rax
ffff800000109999:	48 01 c2             	add    %rax,%rdx
ffff80000010999c:	48 8b 45 c8          	mov    -0x38(%rbp),%rax
ffff8000001099a0:	48 89 50 10          	mov    %rdx,0x10(%rax)
ffff8000001099a4:	c7 45 dc 00 00 00 00 	movl   $0x0,-0x24(%rbp)
ffff8000001099ab:	e9 48 01 00 00       	jmpq   ffff800000109af8 <slab_malloc+0x411>
ffff8000001099b0:	48 8b 45 e0          	mov    -0x20(%rbp),%rax
ffff8000001099b4:	48 8b 40 40          	mov    0x40(%rax),%rax
ffff8000001099b8:	8b 55 dc             	mov    -0x24(%rbp),%edx
ffff8000001099bb:	c1 fa 06             	sar    $0x6,%edx
ffff8000001099be:	48 63 d2             	movslq %edx,%rdx
ffff8000001099c1:	48 c1 e2 03          	shl    $0x3,%rdx
ffff8000001099c5:	48 01 d0             	add    %rdx,%rax
ffff8000001099c8:	48 8b 30             	mov    (%rax),%rsi
ffff8000001099cb:	8b 45 dc             	mov    -0x24(%rbp),%eax
ffff8000001099ce:	99                   	cltd   
ffff8000001099cf:	c1 ea 1a             	shr    $0x1a,%edx
ffff8000001099d2:	01 d0                	add    %edx,%eax
ffff8000001099d4:	83 e0 3f             	and    $0x3f,%eax
ffff8000001099d7:	29 d0                	sub    %edx,%eax
ffff8000001099d9:	89 c1                	mov    %eax,%ecx
ffff8000001099db:	48 d3 ee             	shr    %cl,%rsi
ffff8000001099de:	48 89 f0             	mov    %rsi,%rax
ffff8000001099e1:	83 e0 01             	and    $0x1,%eax
ffff8000001099e4:	48 85 c0             	test   %rax,%rax
ffff8000001099e7:	0f 85 07 01 00 00    	jne    ffff800000109af4 <slab_malloc+0x40d>
ffff8000001099ed:	48 8b 45 e0          	mov    -0x20(%rbp),%rax
ffff8000001099f1:	48 8b 40 40          	mov    0x40(%rax),%rax
ffff8000001099f5:	8b 55 dc             	mov    -0x24(%rbp),%edx
ffff8000001099f8:	c1 fa 06             	sar    $0x6,%edx
ffff8000001099fb:	48 63 d2             	movslq %edx,%rdx
ffff8000001099fe:	48 c1 e2 03          	shl    $0x3,%rdx
ffff800000109a02:	48 8d 34 10          	lea    (%rax,%rdx,1),%rsi
ffff800000109a06:	48 8b 45 e0          	mov    -0x20(%rbp),%rax
ffff800000109a0a:	48 8b 40 40          	mov    0x40(%rax),%rax
ffff800000109a0e:	8b 55 dc             	mov    -0x24(%rbp),%edx
ffff800000109a11:	c1 fa 06             	sar    $0x6,%edx
ffff800000109a14:	48 63 d2             	movslq %edx,%rdx
ffff800000109a17:	48 c1 e2 03          	shl    $0x3,%rdx
ffff800000109a1b:	48 01 d0             	add    %rdx,%rax
ffff800000109a1e:	48 8b 38             	mov    (%rax),%rdi
ffff800000109a21:	8b 45 dc             	mov    -0x24(%rbp),%eax
ffff800000109a24:	99                   	cltd   
ffff800000109a25:	c1 ea 1a             	shr    $0x1a,%edx
ffff800000109a28:	01 d0                	add    %edx,%eax
ffff800000109a2a:	83 e0 3f             	and    $0x3f,%eax
ffff800000109a2d:	29 d0                	sub    %edx,%eax
ffff800000109a2f:	ba 01 00 00 00       	mov    $0x1,%edx
ffff800000109a34:	89 c1                	mov    %eax,%ecx
ffff800000109a36:	48 d3 e2             	shl    %cl,%rdx
ffff800000109a39:	48 89 d0             	mov    %rdx,%rax
ffff800000109a3c:	48 09 f8             	or     %rdi,%rax
ffff800000109a3f:	48 89 06             	mov    %rax,(%rsi)
ffff800000109a42:	48 8b 45 e0          	mov    -0x20(%rbp),%rax
ffff800000109a46:	48 8b 40 18          	mov    0x18(%rax),%rax
ffff800000109a4a:	48 8d 50 01          	lea    0x1(%rax),%rdx
ffff800000109a4e:	48 8b 45 e0          	mov    -0x20(%rbp),%rax
ffff800000109a52:	48 89 50 18          	mov    %rdx,0x18(%rax)
ffff800000109a56:	48 8b 45 e0          	mov    -0x20(%rbp),%rax
ffff800000109a5a:	48 8b 40 20          	mov    0x20(%rax),%rax
ffff800000109a5e:	48 8d 50 ff          	lea    -0x1(%rax),%rdx
ffff800000109a62:	48 8b 45 e0          	mov    -0x20(%rbp),%rax
ffff800000109a66:	48 89 50 20          	mov    %rdx,0x20(%rax)
ffff800000109a6a:	48 8b 45 c8          	mov    -0x38(%rbp),%rax
ffff800000109a6e:	48 8b 40 08          	mov    0x8(%rax),%rax
ffff800000109a72:	48 8d 50 01          	lea    0x1(%rax),%rdx
ffff800000109a76:	48 8b 45 c8          	mov    -0x38(%rbp),%rax
ffff800000109a7a:	48 89 50 08          	mov    %rdx,0x8(%rax)
ffff800000109a7e:	48 8b 45 c8          	mov    -0x38(%rbp),%rax
ffff800000109a82:	48 8b 40 10          	mov    0x10(%rax),%rax
ffff800000109a86:	48 8d 50 ff          	lea    -0x1(%rax),%rdx
ffff800000109a8a:	48 8b 45 c8          	mov    -0x38(%rbp),%rax
ffff800000109a8e:	48 89 50 10          	mov    %rdx,0x10(%rax)
ffff800000109a92:	48 8b 45 c8          	mov    -0x38(%rbp),%rax
ffff800000109a96:	48 8b 40 28          	mov    0x28(%rax),%rax
ffff800000109a9a:	48 85 c0             	test   %rax,%rax
ffff800000109a9d:	74 35                	je     ffff800000109ad4 <slab_malloc+0x3ed>
ffff800000109a9f:	48 8b 45 c8          	mov    -0x38(%rbp),%rax
ffff800000109aa3:	48 8b 40 28          	mov    0x28(%rax),%rax
ffff800000109aa7:	48 8b 55 e0          	mov    -0x20(%rbp),%rdx
ffff800000109aab:	48 8b 4a 28          	mov    0x28(%rdx),%rcx
ffff800000109aaf:	48 8b 55 c8          	mov    -0x38(%rbp),%rdx
ffff800000109ab3:	48 8b 32             	mov    (%rdx),%rsi
ffff800000109ab6:	8b 55 dc             	mov    -0x24(%rbp),%edx
ffff800000109ab9:	48 63 d2             	movslq %edx,%rdx
ffff800000109abc:	48 0f af d6          	imul   %rsi,%rdx
ffff800000109ac0:	48 01 d1             	add    %rdx,%rcx
ffff800000109ac3:	48 8b 55 c0          	mov    -0x40(%rbp),%rdx
ffff800000109ac7:	48 89 d6             	mov    %rdx,%rsi
ffff800000109aca:	48 89 cf             	mov    %rcx,%rdi
ffff800000109acd:	ff d0                	callq  *%rax
ffff800000109acf:	e9 b9 02 00 00       	jmpq   ffff800000109d8d <slab_malloc+0x6a6>
ffff800000109ad4:	48 8b 45 e0          	mov    -0x20(%rbp),%rax
ffff800000109ad8:	48 8b 50 28          	mov    0x28(%rax),%rdx
ffff800000109adc:	48 8b 45 c8          	mov    -0x38(%rbp),%rax
ffff800000109ae0:	48 8b 08             	mov    (%rax),%rcx
ffff800000109ae3:	8b 45 dc             	mov    -0x24(%rbp),%eax
ffff800000109ae6:	48 98                	cltq   
ffff800000109ae8:	48 0f af c1          	imul   %rcx,%rax
ffff800000109aec:	48 01 d0             	add    %rdx,%rax
ffff800000109aef:	e9 99 02 00 00       	jmpq   ffff800000109d8d <slab_malloc+0x6a6>
ffff800000109af4:	83 45 dc 01          	addl   $0x1,-0x24(%rbp)
ffff800000109af8:	8b 45 dc             	mov    -0x24(%rbp),%eax
ffff800000109afb:	48 63 d0             	movslq %eax,%rdx
ffff800000109afe:	48 8b 45 e0          	mov    -0x20(%rbp),%rax
ffff800000109b02:	48 8b 40 38          	mov    0x38(%rax),%rax
ffff800000109b06:	48 39 c2             	cmp    %rax,%rdx
ffff800000109b09:	0f 82 a1 fe ff ff    	jb     ffff8000001099b0 <slab_malloc+0x2c9>
ffff800000109b0f:	e9 d8 01 00 00       	jmpq   ffff800000109cec <slab_malloc+0x605>
ffff800000109b14:	48 8b 45 e8          	mov    -0x18(%rbp),%rax
ffff800000109b18:	48 8b 40 20          	mov    0x20(%rax),%rax
ffff800000109b1c:	48 85 c0             	test   %rax,%rax
ffff800000109b1f:	75 24                	jne    ffff800000109b45 <slab_malloc+0x45e>
ffff800000109b21:	48 8b 45 e8          	mov    -0x18(%rbp),%rax
ffff800000109b25:	48 89 c7             	mov    %rax,%rdi
ffff800000109b28:	48 b8 2f 6f 10 00 00 	movabs $0xffff800000106f2f,%rax
ffff800000109b2f:	80 ff ff 
ffff800000109b32:	ff d0                	callq  *%rax
ffff800000109b34:	48 89 45 d0          	mov    %rax,-0x30(%rbp)
ffff800000109b38:	48 8b 45 d0          	mov    -0x30(%rbp),%rax
ffff800000109b3c:	48 89 45 e8          	mov    %rax,-0x18(%rbp)
ffff800000109b40:	e9 95 01 00 00       	jmpq   ffff800000109cda <slab_malloc+0x5f3>
ffff800000109b45:	c7 45 dc 00 00 00 00 	movl   $0x0,-0x24(%rbp)
ffff800000109b4c:	e9 72 01 00 00       	jmpq   ffff800000109cc3 <slab_malloc+0x5dc>
ffff800000109b51:	48 8b 45 e8          	mov    -0x18(%rbp),%rax
ffff800000109b55:	48 8b 40 40          	mov    0x40(%rax),%rax
ffff800000109b59:	8b 55 dc             	mov    -0x24(%rbp),%edx
ffff800000109b5c:	c1 fa 06             	sar    $0x6,%edx
ffff800000109b5f:	48 63 d2             	movslq %edx,%rdx
ffff800000109b62:	48 c1 e2 03          	shl    $0x3,%rdx
ffff800000109b66:	48 01 d0             	add    %rdx,%rax
ffff800000109b69:	48 8b 00             	mov    (%rax),%rax
ffff800000109b6c:	48 83 f8 ff          	cmp    $0xffffffffffffffff,%rax
ffff800000109b70:	75 09                	jne    ffff800000109b7b <slab_malloc+0x494>
ffff800000109b72:	83 45 dc 3f          	addl   $0x3f,-0x24(%rbp)
ffff800000109b76:	e9 44 01 00 00       	jmpq   ffff800000109cbf <slab_malloc+0x5d8>
ffff800000109b7b:	48 8b 45 e8          	mov    -0x18(%rbp),%rax
ffff800000109b7f:	48 8b 40 40          	mov    0x40(%rax),%rax
ffff800000109b83:	8b 55 dc             	mov    -0x24(%rbp),%edx
ffff800000109b86:	c1 fa 06             	sar    $0x6,%edx
ffff800000109b89:	48 63 d2             	movslq %edx,%rdx
ffff800000109b8c:	48 c1 e2 03          	shl    $0x3,%rdx
ffff800000109b90:	48 01 d0             	add    %rdx,%rax
ffff800000109b93:	48 8b 30             	mov    (%rax),%rsi
ffff800000109b96:	8b 45 dc             	mov    -0x24(%rbp),%eax
ffff800000109b99:	99                   	cltd   
ffff800000109b9a:	c1 ea 1a             	shr    $0x1a,%edx
ffff800000109b9d:	01 d0                	add    %edx,%eax
ffff800000109b9f:	83 e0 3f             	and    $0x3f,%eax
ffff800000109ba2:	29 d0                	sub    %edx,%eax
ffff800000109ba4:	89 c1                	mov    %eax,%ecx
ffff800000109ba6:	48 d3 ee             	shr    %cl,%rsi
ffff800000109ba9:	48 89 f0             	mov    %rsi,%rax
ffff800000109bac:	83 e0 01             	and    $0x1,%eax
ffff800000109baf:	48 85 c0             	test   %rax,%rax
ffff800000109bb2:	0f 85 07 01 00 00    	jne    ffff800000109cbf <slab_malloc+0x5d8>
ffff800000109bb8:	48 8b 45 e8          	mov    -0x18(%rbp),%rax
ffff800000109bbc:	48 8b 40 40          	mov    0x40(%rax),%rax
ffff800000109bc0:	8b 55 dc             	mov    -0x24(%rbp),%edx
ffff800000109bc3:	c1 fa 06             	sar    $0x6,%edx
ffff800000109bc6:	48 63 d2             	movslq %edx,%rdx
ffff800000109bc9:	48 c1 e2 03          	shl    $0x3,%rdx
ffff800000109bcd:	48 8d 34 10          	lea    (%rax,%rdx,1),%rsi
ffff800000109bd1:	48 8b 45 e8          	mov    -0x18(%rbp),%rax
ffff800000109bd5:	48 8b 40 40          	mov    0x40(%rax),%rax
ffff800000109bd9:	8b 55 dc             	mov    -0x24(%rbp),%edx
ffff800000109bdc:	c1 fa 06             	sar    $0x6,%edx
ffff800000109bdf:	48 63 d2             	movslq %edx,%rdx
ffff800000109be2:	48 c1 e2 03          	shl    $0x3,%rdx
ffff800000109be6:	48 01 d0             	add    %rdx,%rax
ffff800000109be9:	48 8b 38             	mov    (%rax),%rdi
ffff800000109bec:	8b 45 dc             	mov    -0x24(%rbp),%eax
ffff800000109bef:	99                   	cltd   
ffff800000109bf0:	c1 ea 1a             	shr    $0x1a,%edx
ffff800000109bf3:	01 d0                	add    %edx,%eax
ffff800000109bf5:	83 e0 3f             	and    $0x3f,%eax
ffff800000109bf8:	29 d0                	sub    %edx,%eax
ffff800000109bfa:	ba 01 00 00 00       	mov    $0x1,%edx
ffff800000109bff:	89 c1                	mov    %eax,%ecx
ffff800000109c01:	48 d3 e2             	shl    %cl,%rdx
ffff800000109c04:	48 89 d0             	mov    %rdx,%rax
ffff800000109c07:	48 09 f8             	or     %rdi,%rax
ffff800000109c0a:	48 89 06             	mov    %rax,(%rsi)
ffff800000109c0d:	48 8b 45 e8          	mov    -0x18(%rbp),%rax
ffff800000109c11:	48 8b 40 18          	mov    0x18(%rax),%rax
ffff800000109c15:	48 8d 50 01          	lea    0x1(%rax),%rdx
ffff800000109c19:	48 8b 45 e8          	mov    -0x18(%rbp),%rax
ffff800000109c1d:	48 89 50 18          	mov    %rdx,0x18(%rax)
ffff800000109c21:	48 8b 45 e8          	mov    -0x18(%rbp),%rax
ffff800000109c25:	48 8b 40 20          	mov    0x20(%rax),%rax
ffff800000109c29:	48 8d 50 ff          	lea    -0x1(%rax),%rdx
ffff800000109c2d:	48 8b 45 e8          	mov    -0x18(%rbp),%rax
ffff800000109c31:	48 89 50 20          	mov    %rdx,0x20(%rax)
ffff800000109c35:	48 8b 45 c8          	mov    -0x38(%rbp),%rax
ffff800000109c39:	48 8b 40 08          	mov    0x8(%rax),%rax
ffff800000109c3d:	48 8d 50 01          	lea    0x1(%rax),%rdx
ffff800000109c41:	48 8b 45 c8          	mov    -0x38(%rbp),%rax
ffff800000109c45:	48 89 50 08          	mov    %rdx,0x8(%rax)
ffff800000109c49:	48 8b 45 c8          	mov    -0x38(%rbp),%rax
ffff800000109c4d:	48 8b 40 10          	mov    0x10(%rax),%rax
ffff800000109c51:	48 8d 50 ff          	lea    -0x1(%rax),%rdx
ffff800000109c55:	48 8b 45 c8          	mov    -0x38(%rbp),%rax
ffff800000109c59:	48 89 50 10          	mov    %rdx,0x10(%rax)
ffff800000109c5d:	48 8b 45 c8          	mov    -0x38(%rbp),%rax
ffff800000109c61:	48 8b 40 28          	mov    0x28(%rax),%rax
ffff800000109c65:	48 85 c0             	test   %rax,%rax
ffff800000109c68:	74 35                	je     ffff800000109c9f <slab_malloc+0x5b8>
ffff800000109c6a:	48 8b 45 c8          	mov    -0x38(%rbp),%rax
ffff800000109c6e:	48 8b 40 28          	mov    0x28(%rax),%rax
ffff800000109c72:	48 8b 55 e8          	mov    -0x18(%rbp),%rdx
ffff800000109c76:	48 8b 4a 28          	mov    0x28(%rdx),%rcx
ffff800000109c7a:	48 8b 55 c8          	mov    -0x38(%rbp),%rdx
ffff800000109c7e:	48 8b 32             	mov    (%rdx),%rsi
ffff800000109c81:	8b 55 dc             	mov    -0x24(%rbp),%edx
ffff800000109c84:	48 63 d2             	movslq %edx,%rdx
ffff800000109c87:	48 0f af d6          	imul   %rsi,%rdx
ffff800000109c8b:	48 01 d1             	add    %rdx,%rcx
ffff800000109c8e:	48 8b 55 c0          	mov    -0x40(%rbp),%rdx
ffff800000109c92:	48 89 d6             	mov    %rdx,%rsi
ffff800000109c95:	48 89 cf             	mov    %rcx,%rdi
ffff800000109c98:	ff d0                	callq  *%rax
ffff800000109c9a:	e9 ee 00 00 00       	jmpq   ffff800000109d8d <slab_malloc+0x6a6>
ffff800000109c9f:	48 8b 45 e8          	mov    -0x18(%rbp),%rax
ffff800000109ca3:	48 8b 50 28          	mov    0x28(%rax),%rdx
ffff800000109ca7:	48 8b 45 c8          	mov    -0x38(%rbp),%rax
ffff800000109cab:	48 8b 08             	mov    (%rax),%rcx
ffff800000109cae:	8b 45 dc             	mov    -0x24(%rbp),%eax
ffff800000109cb1:	48 98                	cltq   
ffff800000109cb3:	48 0f af c1          	imul   %rcx,%rax
ffff800000109cb7:	48 01 d0             	add    %rdx,%rax
ffff800000109cba:	e9 ce 00 00 00       	jmpq   ffff800000109d8d <slab_malloc+0x6a6>
ffff800000109cbf:	83 45 dc 01          	addl   $0x1,-0x24(%rbp)
ffff800000109cc3:	8b 45 dc             	mov    -0x24(%rbp),%eax
ffff800000109cc6:	48 63 d0             	movslq %eax,%rdx
ffff800000109cc9:	48 8b 45 e8          	mov    -0x18(%rbp),%rax
ffff800000109ccd:	48 8b 40 38          	mov    0x38(%rax),%rax
ffff800000109cd1:	48 39 c2             	cmp    %rax,%rdx
ffff800000109cd4:	0f 82 77 fe ff ff    	jb     ffff800000109b51 <slab_malloc+0x46a>
ffff800000109cda:	48 8b 45 c8          	mov    -0x38(%rbp),%rax
ffff800000109cde:	48 8b 40 18          	mov    0x18(%rax),%rax
ffff800000109ce2:	48 3b 45 e8          	cmp    -0x18(%rbp),%rax
ffff800000109ce6:	0f 85 28 fe ff ff    	jne    ffff800000109b14 <slab_malloc+0x42d>
ffff800000109cec:	48 ba 28 a6 11 00 00 	movabs $0xffff80000011a628,%rdx
ffff800000109cf3:	80 ff ff 
ffff800000109cf6:	be 00 00 00 00       	mov    $0x0,%esi
ffff800000109cfb:	bf 00 00 ff 00       	mov    $0xff0000,%edi
ffff800000109d00:	b8 00 00 00 00       	mov    $0x0,%eax
ffff800000109d05:	48 b9 d0 56 10 00 00 	movabs $0xffff8000001056d0,%rcx
ffff800000109d0c:	80 ff ff 
ffff800000109d0f:	ff d1                	callq  *%rcx
ffff800000109d11:	48 83 7d e0 00       	cmpq   $0x0,-0x20(%rbp)
ffff800000109d16:	74 70                	je     ffff800000109d88 <slab_malloc+0x6a1>
ffff800000109d18:	48 8b 45 e0          	mov    -0x20(%rbp),%rax
ffff800000109d1c:	48 89 c7             	mov    %rax,%rdi
ffff800000109d1f:	48 b8 cf 6e 10 00 00 	movabs $0xffff800000106ecf,%rax
ffff800000109d26:	80 ff ff 
ffff800000109d29:	ff d0                	callq  *%rax
ffff800000109d2b:	48 8b 45 e0          	mov    -0x20(%rbp),%rax
ffff800000109d2f:	48 8b 40 40          	mov    0x40(%rax),%rax
ffff800000109d33:	48 89 c7             	mov    %rax,%rdi
ffff800000109d36:	48 b8 b1 8c 10 00 00 	movabs $0xffff800000108cb1,%rax
ffff800000109d3d:	80 ff ff 
ffff800000109d40:	ff d0                	callq  *%rax
ffff800000109d42:	48 8b 45 e0          	mov    -0x20(%rbp),%rax
ffff800000109d46:	48 8b 40 10          	mov    0x10(%rax),%rax
ffff800000109d4a:	48 89 c7             	mov    %rax,%rdi
ffff800000109d4d:	48 b8 4a 70 10 00 00 	movabs $0xffff80000010704a,%rax
ffff800000109d54:	80 ff ff 
ffff800000109d57:	ff d0                	callq  *%rax
ffff800000109d59:	48 8b 45 e0          	mov    -0x20(%rbp),%rax
ffff800000109d5d:	48 8b 40 10          	mov    0x10(%rax),%rax
ffff800000109d61:	be 01 00 00 00       	mov    $0x1,%esi
ffff800000109d66:	48 89 c7             	mov    %rax,%rdi
ffff800000109d69:	48 b8 c2 81 10 00 00 	movabs $0xffff8000001081c2,%rax
ffff800000109d70:	80 ff ff 
ffff800000109d73:	ff d0                	callq  *%rax
ffff800000109d75:	48 8b 45 e0          	mov    -0x20(%rbp),%rax
ffff800000109d79:	48 89 c7             	mov    %rax,%rdi
ffff800000109d7c:	48 b8 b1 8c 10 00 00 	movabs $0xffff800000108cb1,%rax
ffff800000109d83:	80 ff ff 
ffff800000109d86:	ff d0                	callq  *%rax
ffff800000109d88:	b8 00 00 00 00       	mov    $0x0,%eax
ffff800000109d8d:	48 83 c4 38          	add    $0x38,%rsp
ffff800000109d91:	5b                   	pop    %rbx
ffff800000109d92:	5d                   	pop    %rbp
ffff800000109d93:	c3                   	retq   

ffff800000109d94 <slab_free>:
ffff800000109d94:	55                   	push   %rbp
ffff800000109d95:	48 89 e5             	mov    %rsp,%rbp
ffff800000109d98:	53                   	push   %rbx
ffff800000109d99:	48 83 ec 48          	sub    $0x48,%rsp
ffff800000109d9d:	48 89 7d c8          	mov    %rdi,-0x38(%rbp)
ffff800000109da1:	48 89 75 c0          	mov    %rsi,-0x40(%rbp)
ffff800000109da5:	48 89 55 b8          	mov    %rdx,-0x48(%rbp)
ffff800000109da9:	48 8b 45 c8          	mov    -0x38(%rbp),%rax
ffff800000109dad:	48 8b 40 18          	mov    0x18(%rax),%rax
ffff800000109db1:	48 89 45 e8          	mov    %rax,-0x18(%rbp)
ffff800000109db5:	c7 45 e4 00 00 00 00 	movl   $0x0,-0x1c(%rbp)
ffff800000109dbc:	48 8b 45 e8          	mov    -0x18(%rbp),%rax
ffff800000109dc0:	48 8b 40 28          	mov    0x28(%rax),%rax
ffff800000109dc4:	48 3b 45 c0          	cmp    -0x40(%rbp),%rax
ffff800000109dc8:	0f 87 e6 01 00 00    	ja     ffff800000109fb4 <slab_free+0x220>
ffff800000109dce:	48 8b 45 e8          	mov    -0x18(%rbp),%rax
ffff800000109dd2:	48 8b 40 28          	mov    0x28(%rax),%rax
ffff800000109dd6:	48 05 00 00 20 00    	add    $0x200000,%rax
ffff800000109ddc:	48 3b 45 c0          	cmp    -0x40(%rbp),%rax
ffff800000109de0:	0f 86 ce 01 00 00    	jbe    ffff800000109fb4 <slab_free+0x220>
ffff800000109de6:	48 8b 55 c0          	mov    -0x40(%rbp),%rdx
ffff800000109dea:	48 8b 45 e8          	mov    -0x18(%rbp),%rax
ffff800000109dee:	48 8b 40 28          	mov    0x28(%rax),%rax
ffff800000109df2:	48 29 c2             	sub    %rax,%rdx
ffff800000109df5:	48 89 d0             	mov    %rdx,%rax
ffff800000109df8:	48 8b 55 c8          	mov    -0x38(%rbp),%rdx
ffff800000109dfc:	48 8b 1a             	mov    (%rdx),%rbx
ffff800000109dff:	ba 00 00 00 00       	mov    $0x0,%edx
ffff800000109e04:	48 f7 f3             	div    %rbx
ffff800000109e07:	89 45 e4             	mov    %eax,-0x1c(%rbp)
ffff800000109e0a:	48 8b 45 e8          	mov    -0x18(%rbp),%rax
ffff800000109e0e:	48 8b 40 40          	mov    0x40(%rax),%rax
ffff800000109e12:	8b 55 e4             	mov    -0x1c(%rbp),%edx
ffff800000109e15:	c1 fa 06             	sar    $0x6,%edx
ffff800000109e18:	48 63 d2             	movslq %edx,%rdx
ffff800000109e1b:	48 c1 e2 03          	shl    $0x3,%rdx
ffff800000109e1f:	48 8d 34 10          	lea    (%rax,%rdx,1),%rsi
ffff800000109e23:	48 8b 45 e8          	mov    -0x18(%rbp),%rax
ffff800000109e27:	48 8b 40 40          	mov    0x40(%rax),%rax
ffff800000109e2b:	8b 55 e4             	mov    -0x1c(%rbp),%edx
ffff800000109e2e:	c1 fa 06             	sar    $0x6,%edx
ffff800000109e31:	48 63 d2             	movslq %edx,%rdx
ffff800000109e34:	48 c1 e2 03          	shl    $0x3,%rdx
ffff800000109e38:	48 01 d0             	add    %rdx,%rax
ffff800000109e3b:	48 8b 38             	mov    (%rax),%rdi
ffff800000109e3e:	8b 45 e4             	mov    -0x1c(%rbp),%eax
ffff800000109e41:	99                   	cltd   
ffff800000109e42:	c1 ea 1a             	shr    $0x1a,%edx
ffff800000109e45:	01 d0                	add    %edx,%eax
ffff800000109e47:	83 e0 3f             	and    $0x3f,%eax
ffff800000109e4a:	29 d0                	sub    %edx,%eax
ffff800000109e4c:	ba 01 00 00 00       	mov    $0x1,%edx
ffff800000109e51:	89 c1                	mov    %eax,%ecx
ffff800000109e53:	48 d3 e2             	shl    %cl,%rdx
ffff800000109e56:	48 89 d0             	mov    %rdx,%rax
ffff800000109e59:	48 31 f8             	xor    %rdi,%rax
ffff800000109e5c:	48 89 06             	mov    %rax,(%rsi)
ffff800000109e5f:	48 8b 45 e8          	mov    -0x18(%rbp),%rax
ffff800000109e63:	48 8b 40 20          	mov    0x20(%rax),%rax
ffff800000109e67:	48 8d 50 01          	lea    0x1(%rax),%rdx
ffff800000109e6b:	48 8b 45 e8          	mov    -0x18(%rbp),%rax
ffff800000109e6f:	48 89 50 20          	mov    %rdx,0x20(%rax)
ffff800000109e73:	48 8b 45 e8          	mov    -0x18(%rbp),%rax
ffff800000109e77:	48 8b 40 18          	mov    0x18(%rax),%rax
ffff800000109e7b:	48 8d 50 ff          	lea    -0x1(%rax),%rdx
ffff800000109e7f:	48 8b 45 e8          	mov    -0x18(%rbp),%rax
ffff800000109e83:	48 89 50 18          	mov    %rdx,0x18(%rax)
ffff800000109e87:	48 8b 45 c8          	mov    -0x38(%rbp),%rax
ffff800000109e8b:	48 8b 40 08          	mov    0x8(%rax),%rax
ffff800000109e8f:	48 8d 50 ff          	lea    -0x1(%rax),%rdx
ffff800000109e93:	48 8b 45 c8          	mov    -0x38(%rbp),%rax
ffff800000109e97:	48 89 50 08          	mov    %rdx,0x8(%rax)
ffff800000109e9b:	48 8b 45 c8          	mov    -0x38(%rbp),%rax
ffff800000109e9f:	48 8b 40 10          	mov    0x10(%rax),%rax
ffff800000109ea3:	48 8d 50 01          	lea    0x1(%rax),%rdx
ffff800000109ea7:	48 8b 45 c8          	mov    -0x38(%rbp),%rax
ffff800000109eab:	48 89 50 10          	mov    %rdx,0x10(%rax)
ffff800000109eaf:	48 8b 45 c8          	mov    -0x38(%rbp),%rax
ffff800000109eb3:	48 8b 40 30          	mov    0x30(%rax),%rax
ffff800000109eb7:	48 85 c0             	test   %rax,%rax
ffff800000109eba:	74 30                	je     ffff800000109eec <slab_free+0x158>
ffff800000109ebc:	48 8b 45 c8          	mov    -0x38(%rbp),%rax
ffff800000109ec0:	48 8b 40 30          	mov    0x30(%rax),%rax
ffff800000109ec4:	48 8b 55 e8          	mov    -0x18(%rbp),%rdx
ffff800000109ec8:	48 8b 4a 28          	mov    0x28(%rdx),%rcx
ffff800000109ecc:	48 8b 55 c8          	mov    -0x38(%rbp),%rdx
ffff800000109ed0:	48 8b 32             	mov    (%rdx),%rsi
ffff800000109ed3:	8b 55 e4             	mov    -0x1c(%rbp),%edx
ffff800000109ed6:	48 63 d2             	movslq %edx,%rdx
ffff800000109ed9:	48 0f af d6          	imul   %rsi,%rdx
ffff800000109edd:	48 01 d1             	add    %rdx,%rcx
ffff800000109ee0:	48 8b 55 b8          	mov    -0x48(%rbp),%rdx
ffff800000109ee4:	48 89 d6             	mov    %rdx,%rsi
ffff800000109ee7:	48 89 cf             	mov    %rcx,%rdi
ffff800000109eea:	ff d0                	callq  *%rax
ffff800000109eec:	48 8b 45 e8          	mov    -0x18(%rbp),%rax
ffff800000109ef0:	48 8b 40 18          	mov    0x18(%rax),%rax
ffff800000109ef4:	48 85 c0             	test   %rax,%rax
ffff800000109ef7:	0f 85 b0 00 00 00    	jne    ffff800000109fad <slab_free+0x219>
ffff800000109efd:	48 8b 45 c8          	mov    -0x38(%rbp),%rax
ffff800000109f01:	48 8b 48 10          	mov    0x10(%rax),%rcx
ffff800000109f05:	48 8b 45 e8          	mov    -0x18(%rbp),%rax
ffff800000109f09:	48 8b 50 38          	mov    0x38(%rax),%rdx
ffff800000109f0d:	48 89 d0             	mov    %rdx,%rax
ffff800000109f10:	48 01 c0             	add    %rax,%rax
ffff800000109f13:	48 01 d0             	add    %rdx,%rax
ffff800000109f16:	48 d1 e8             	shr    %rax
ffff800000109f19:	48 39 c1             	cmp    %rax,%rcx
ffff800000109f1c:	0f 82 8b 00 00 00    	jb     ffff800000109fad <slab_free+0x219>
ffff800000109f22:	48 8b 45 e8          	mov    -0x18(%rbp),%rax
ffff800000109f26:	48 89 c7             	mov    %rax,%rdi
ffff800000109f29:	48 b8 cf 6e 10 00 00 	movabs $0xffff800000106ecf,%rax
ffff800000109f30:	80 ff ff 
ffff800000109f33:	ff d0                	callq  *%rax
ffff800000109f35:	48 8b 45 c8          	mov    -0x38(%rbp),%rax
ffff800000109f39:	48 8b 50 10          	mov    0x10(%rax),%rdx
ffff800000109f3d:	48 8b 45 e8          	mov    -0x18(%rbp),%rax
ffff800000109f41:	48 8b 40 38          	mov    0x38(%rax),%rax
ffff800000109f45:	48 29 c2             	sub    %rax,%rdx
ffff800000109f48:	48 8b 45 c8          	mov    -0x38(%rbp),%rax
ffff800000109f4c:	48 89 50 10          	mov    %rdx,0x10(%rax)
ffff800000109f50:	48 8b 45 e8          	mov    -0x18(%rbp),%rax
ffff800000109f54:	48 8b 40 40          	mov    0x40(%rax),%rax
ffff800000109f58:	48 89 c7             	mov    %rax,%rdi
ffff800000109f5b:	48 b8 b1 8c 10 00 00 	movabs $0xffff800000108cb1,%rax
ffff800000109f62:	80 ff ff 
ffff800000109f65:	ff d0                	callq  *%rax
ffff800000109f67:	48 8b 45 e8          	mov    -0x18(%rbp),%rax
ffff800000109f6b:	48 8b 40 10          	mov    0x10(%rax),%rax
ffff800000109f6f:	48 89 c7             	mov    %rax,%rdi
ffff800000109f72:	48 b8 4a 70 10 00 00 	movabs $0xffff80000010704a,%rax
ffff800000109f79:	80 ff ff 
ffff800000109f7c:	ff d0                	callq  *%rax
ffff800000109f7e:	48 8b 45 e8          	mov    -0x18(%rbp),%rax
ffff800000109f82:	48 8b 40 10          	mov    0x10(%rax),%rax
ffff800000109f86:	be 01 00 00 00       	mov    $0x1,%esi
ffff800000109f8b:	48 89 c7             	mov    %rax,%rdi
ffff800000109f8e:	48 b8 c2 81 10 00 00 	movabs $0xffff8000001081c2,%rax
ffff800000109f95:	80 ff ff 
ffff800000109f98:	ff d0                	callq  *%rax
ffff800000109f9a:	48 8b 45 e8          	mov    -0x18(%rbp),%rax
ffff800000109f9e:	48 89 c7             	mov    %rax,%rdi
ffff800000109fa1:	48 b8 b1 8c 10 00 00 	movabs $0xffff800000108cb1,%rax
ffff800000109fa8:	80 ff ff 
ffff800000109fab:	ff d0                	callq  *%rax
ffff800000109fad:	b8 01 00 00 00       	mov    $0x1,%eax
ffff800000109fb2:	eb 5b                	jmp    ffff80000010a00f <slab_free+0x27b>
ffff800000109fb4:	48 8b 45 e8          	mov    -0x18(%rbp),%rax
ffff800000109fb8:	48 89 c7             	mov    %rax,%rdi
ffff800000109fbb:	48 b8 2f 6f 10 00 00 	movabs $0xffff800000106f2f,%rax
ffff800000109fc2:	80 ff ff 
ffff800000109fc5:	ff d0                	callq  *%rax
ffff800000109fc7:	48 89 45 d8          	mov    %rax,-0x28(%rbp)
ffff800000109fcb:	48 8b 45 d8          	mov    -0x28(%rbp),%rax
ffff800000109fcf:	48 89 45 e8          	mov    %rax,-0x18(%rbp)
ffff800000109fd3:	48 8b 45 c8          	mov    -0x38(%rbp),%rax
ffff800000109fd7:	48 8b 40 18          	mov    0x18(%rax),%rax
ffff800000109fdb:	48 3b 45 e8          	cmp    -0x18(%rbp),%rax
ffff800000109fdf:	0f 85 d7 fd ff ff    	jne    ffff800000109dbc <slab_free+0x28>
ffff800000109fe5:	48 ba 50 a6 11 00 00 	movabs $0xffff80000011a650,%rdx
ffff800000109fec:	80 ff ff 
ffff800000109fef:	be 00 00 00 00       	mov    $0x0,%esi
ffff800000109ff4:	bf 00 00 ff 00       	mov    $0xff0000,%edi
ffff800000109ff9:	b8 00 00 00 00       	mov    $0x0,%eax
ffff800000109ffe:	48 b9 d0 56 10 00 00 	movabs $0xffff8000001056d0,%rcx
ffff80000010a005:	80 ff ff 
ffff80000010a008:	ff d1                	callq  *%rcx
ffff80000010a00a:	b8 00 00 00 00       	mov    $0x0,%eax
ffff80000010a00f:	48 83 c4 48          	add    $0x48,%rsp
ffff80000010a013:	5b                   	pop    %rbx
ffff80000010a014:	5d                   	pop    %rbp
ffff80000010a015:	c3                   	retq   

ffff80000010a016 <slab_init>:
ffff80000010a016:	55                   	push   %rbp
ffff80000010a017:	48 89 e5             	mov    %rsp,%rbp
ffff80000010a01a:	53                   	push   %rbx
ffff80000010a01b:	48 83 ec 48          	sub    $0x48,%rsp
ffff80000010a01f:	48 c7 45 d8 00 00 00 	movq   $0x0,-0x28(%rbp)
ffff80000010a026:	00 
ffff80000010a027:	48 c7 45 d0 00 00 00 	movq   $0x0,-0x30(%rbp)
ffff80000010a02e:	00 
ffff80000010a02f:	48 b8 e0 15 13 00 00 	movabs $0xffff8000001315e0,%rax
ffff80000010a036:	80 ff ff 
ffff80000010a039:	48 8b 80 00 03 00 00 	mov    0x300(%rax),%rax
ffff80000010a040:	48 89 45 c8          	mov    %rax,-0x38(%rbp)
ffff80000010a044:	48 c7 45 e8 00 00 00 	movq   $0x0,-0x18(%rbp)
ffff80000010a04b:	00 
ffff80000010a04c:	e9 62 04 00 00       	jmpq   ffff80000010a4b3 <slab_init+0x49d>
ffff80000010a051:	48 b8 e0 15 13 00 00 	movabs $0xffff8000001315e0,%rax
ffff80000010a058:	80 ff ff 
ffff80000010a05b:	48 8b 80 00 03 00 00 	mov    0x300(%rax),%rax
ffff80000010a062:	48 89 c1             	mov    %rax,%rcx
ffff80000010a065:	48 be 00 fc 10 00 00 	movabs $0xffff80000010fc00,%rsi
ffff80000010a06c:	80 ff ff 
ffff80000010a06f:	48 8b 45 e8          	mov    -0x18(%rbp),%rax
ffff80000010a073:	48 c1 e0 03          	shl    $0x3,%rax
ffff80000010a077:	48 8d 14 c5 00 00 00 	lea    0x0(,%rax,8),%rdx
ffff80000010a07e:	00 
ffff80000010a07f:	48 29 c2             	sub    %rax,%rdx
ffff80000010a082:	48 8d 04 16          	lea    (%rsi,%rdx,1),%rax
ffff80000010a086:	48 83 c0 10          	add    $0x10,%rax
ffff80000010a08a:	48 89 48 08          	mov    %rcx,0x8(%rax)
ffff80000010a08e:	48 b8 e0 15 13 00 00 	movabs $0xffff8000001315e0,%rax
ffff80000010a095:	80 ff ff 
ffff80000010a098:	48 8b 80 00 03 00 00 	mov    0x300(%rax),%rax
ffff80000010a09f:	48 8d 90 98 00 00 00 	lea    0x98(%rax),%rdx
ffff80000010a0a6:	48 b8 e0 15 13 00 00 	movabs $0xffff8000001315e0,%rax
ffff80000010a0ad:	80 ff ff 
ffff80000010a0b0:	48 89 90 00 03 00 00 	mov    %rdx,0x300(%rax)
ffff80000010a0b7:	48 b9 00 fc 10 00 00 	movabs $0xffff80000010fc00,%rcx
ffff80000010a0be:	80 ff ff 
ffff80000010a0c1:	48 8b 45 e8          	mov    -0x18(%rbp),%rax
ffff80000010a0c5:	48 c1 e0 03          	shl    $0x3,%rax
ffff80000010a0c9:	48 8d 14 c5 00 00 00 	lea    0x0(,%rax,8),%rdx
ffff80000010a0d0:	00 
ffff80000010a0d1:	48 29 c2             	sub    %rax,%rdx
ffff80000010a0d4:	48 8d 04 11          	lea    (%rcx,%rdx,1),%rax
ffff80000010a0d8:	48 83 c0 10          	add    $0x10,%rax
ffff80000010a0dc:	48 8b 40 08          	mov    0x8(%rax),%rax
ffff80000010a0e0:	48 89 c7             	mov    %rax,%rdi
ffff80000010a0e3:	48 b8 28 6e 10 00 00 	movabs $0xffff800000106e28,%rax
ffff80000010a0ea:	80 ff ff 
ffff80000010a0ed:	ff d0                	callq  *%rax
ffff80000010a0ef:	48 b9 00 fc 10 00 00 	movabs $0xffff80000010fc00,%rcx
ffff80000010a0f6:	80 ff ff 
ffff80000010a0f9:	48 8b 45 e8          	mov    -0x18(%rbp),%rax
ffff80000010a0fd:	48 c1 e0 03          	shl    $0x3,%rax
ffff80000010a101:	48 8d 14 c5 00 00 00 	lea    0x0(,%rax,8),%rdx
ffff80000010a108:	00 
ffff80000010a109:	48 29 c2             	sub    %rax,%rdx
ffff80000010a10c:	48 8d 04 11          	lea    (%rcx,%rdx,1),%rax
ffff80000010a110:	48 83 c0 10          	add    $0x10,%rax
ffff80000010a114:	48 8b 40 08          	mov    0x8(%rax),%rax
ffff80000010a118:	48 c7 40 18 00 00 00 	movq   $0x0,0x18(%rax)
ffff80000010a11f:	00 
ffff80000010a120:	48 b9 00 fc 10 00 00 	movabs $0xffff80000010fc00,%rcx
ffff80000010a127:	80 ff ff 
ffff80000010a12a:	48 8b 45 e8          	mov    -0x18(%rbp),%rax
ffff80000010a12e:	48 c1 e0 03          	shl    $0x3,%rax
ffff80000010a132:	48 8d 14 c5 00 00 00 	lea    0x0(,%rax,8),%rdx
ffff80000010a139:	00 
ffff80000010a13a:	48 29 c2             	sub    %rax,%rdx
ffff80000010a13d:	48 8d 04 11          	lea    (%rcx,%rdx,1),%rax
ffff80000010a141:	48 83 c0 10          	add    $0x10,%rax
ffff80000010a145:	48 8b 48 08          	mov    0x8(%rax),%rcx
ffff80000010a149:	48 be 00 fc 10 00 00 	movabs $0xffff80000010fc00,%rsi
ffff80000010a150:	80 ff ff 
ffff80000010a153:	48 8b 45 e8          	mov    -0x18(%rbp),%rax
ffff80000010a157:	48 c1 e0 03          	shl    $0x3,%rax
ffff80000010a15b:	48 8d 14 c5 00 00 00 	lea    0x0(,%rax,8),%rdx
ffff80000010a162:	00 
ffff80000010a163:	48 29 c2             	sub    %rax,%rdx
ffff80000010a166:	48 8d 04 16          	lea    (%rsi,%rdx,1),%rax
ffff80000010a16a:	48 8b 18             	mov    (%rax),%rbx
ffff80000010a16d:	b8 00 00 20 00       	mov    $0x200000,%eax
ffff80000010a172:	ba 00 00 00 00       	mov    $0x0,%edx
ffff80000010a177:	48 f7 f3             	div    %rbx
ffff80000010a17a:	48 89 41 20          	mov    %rax,0x20(%rcx)
ffff80000010a17e:	48 b9 00 fc 10 00 00 	movabs $0xffff80000010fc00,%rcx
ffff80000010a185:	80 ff ff 
ffff80000010a188:	48 8b 45 e8          	mov    -0x18(%rbp),%rax
ffff80000010a18c:	48 c1 e0 03          	shl    $0x3,%rax
ffff80000010a190:	48 8d 14 c5 00 00 00 	lea    0x0(,%rax,8),%rdx
ffff80000010a197:	00 
ffff80000010a198:	48 29 c2             	sub    %rax,%rdx
ffff80000010a19b:	48 8d 04 11          	lea    (%rcx,%rdx,1),%rax
ffff80000010a19f:	48 83 c0 10          	add    $0x10,%rax
ffff80000010a1a3:	48 8b 48 08          	mov    0x8(%rax),%rcx
ffff80000010a1a7:	48 be 00 fc 10 00 00 	movabs $0xffff80000010fc00,%rsi
ffff80000010a1ae:	80 ff ff 
ffff80000010a1b1:	48 8b 45 e8          	mov    -0x18(%rbp),%rax
ffff80000010a1b5:	48 c1 e0 03          	shl    $0x3,%rax
ffff80000010a1b9:	48 8d 14 c5 00 00 00 	lea    0x0(,%rax,8),%rdx
ffff80000010a1c0:	00 
ffff80000010a1c1:	48 29 c2             	sub    %rax,%rdx
ffff80000010a1c4:	48 8d 04 16          	lea    (%rsi,%rdx,1),%rax
ffff80000010a1c8:	48 8b 18             	mov    (%rax),%rbx
ffff80000010a1cb:	b8 00 00 20 00       	mov    $0x200000,%eax
ffff80000010a1d0:	ba 00 00 00 00       	mov    $0x0,%edx
ffff80000010a1d5:	48 f7 f3             	div    %rbx
ffff80000010a1d8:	48 83 c0 3f          	add    $0x3f,%rax
ffff80000010a1dc:	48 c1 e8 06          	shr    $0x6,%rax
ffff80000010a1e0:	48 c1 e0 03          	shl    $0x3,%rax
ffff80000010a1e4:	48 89 41 30          	mov    %rax,0x30(%rcx)
ffff80000010a1e8:	48 b9 00 fc 10 00 00 	movabs $0xffff80000010fc00,%rcx
ffff80000010a1ef:	80 ff ff 
ffff80000010a1f2:	48 8b 45 e8          	mov    -0x18(%rbp),%rax
ffff80000010a1f6:	48 c1 e0 03          	shl    $0x3,%rax
ffff80000010a1fa:	48 8d 14 c5 00 00 00 	lea    0x0(,%rax,8),%rdx
ffff80000010a201:	00 
ffff80000010a202:	48 29 c2             	sub    %rax,%rdx
ffff80000010a205:	48 8d 04 11          	lea    (%rcx,%rdx,1),%rax
ffff80000010a209:	48 83 c0 10          	add    $0x10,%rax
ffff80000010a20d:	48 8b 48 08          	mov    0x8(%rax),%rcx
ffff80000010a211:	48 be 00 fc 10 00 00 	movabs $0xffff80000010fc00,%rsi
ffff80000010a218:	80 ff ff 
ffff80000010a21b:	48 8b 45 e8          	mov    -0x18(%rbp),%rax
ffff80000010a21f:	48 c1 e0 03          	shl    $0x3,%rax
ffff80000010a223:	48 8d 14 c5 00 00 00 	lea    0x0(,%rax,8),%rdx
ffff80000010a22a:	00 
ffff80000010a22b:	48 29 c2             	sub    %rax,%rdx
ffff80000010a22e:	48 8d 04 16          	lea    (%rsi,%rdx,1),%rax
ffff80000010a232:	48 83 c0 10          	add    $0x10,%rax
ffff80000010a236:	48 8b 40 08          	mov    0x8(%rax),%rax
ffff80000010a23a:	48 8b 40 20          	mov    0x20(%rax),%rax
ffff80000010a23e:	48 89 41 38          	mov    %rax,0x38(%rcx)
ffff80000010a242:	48 b9 00 fc 10 00 00 	movabs $0xffff80000010fc00,%rcx
ffff80000010a249:	80 ff ff 
ffff80000010a24c:	48 8b 45 e8          	mov    -0x18(%rbp),%rax
ffff80000010a250:	48 c1 e0 03          	shl    $0x3,%rax
ffff80000010a254:	48 8d 14 c5 00 00 00 	lea    0x0(,%rax,8),%rdx
ffff80000010a25b:	00 
ffff80000010a25c:	48 29 c2             	sub    %rax,%rdx
ffff80000010a25f:	48 8d 04 11          	lea    (%rcx,%rdx,1),%rax
ffff80000010a263:	48 83 c0 10          	add    $0x10,%rax
ffff80000010a267:	48 8b 40 08          	mov    0x8(%rax),%rax
ffff80000010a26b:	48 ba e0 15 13 00 00 	movabs $0xffff8000001315e0,%rdx
ffff80000010a272:	80 ff ff 
ffff80000010a275:	48 8b 92 00 03 00 00 	mov    0x300(%rdx),%rdx
ffff80000010a27c:	48 89 50 40          	mov    %rdx,0x40(%rax)
ffff80000010a280:	48 b8 e0 15 13 00 00 	movabs $0xffff8000001315e0,%rax
ffff80000010a287:	80 ff ff 
ffff80000010a28a:	48 8b 88 00 03 00 00 	mov    0x300(%rax),%rcx
ffff80000010a291:	48 be 00 fc 10 00 00 	movabs $0xffff80000010fc00,%rsi
ffff80000010a298:	80 ff ff 
ffff80000010a29b:	48 8b 45 e8          	mov    -0x18(%rbp),%rax
ffff80000010a29f:	48 c1 e0 03          	shl    $0x3,%rax
ffff80000010a2a3:	48 8d 14 c5 00 00 00 	lea    0x0(,%rax,8),%rdx
ffff80000010a2aa:	00 
ffff80000010a2ab:	48 29 c2             	sub    %rax,%rdx
ffff80000010a2ae:	48 8d 04 16          	lea    (%rsi,%rdx,1),%rax
ffff80000010a2b2:	48 83 c0 10          	add    $0x10,%rax
ffff80000010a2b6:	48 8b 40 08          	mov    0x8(%rax),%rax
ffff80000010a2ba:	48 8b 40 30          	mov    0x30(%rax),%rax
ffff80000010a2be:	48 01 c8             	add    %rcx,%rax
ffff80000010a2c1:	48 83 c0 50          	add    $0x50,%rax
ffff80000010a2c5:	48 83 e0 f8          	and    $0xfffffffffffffff8,%rax
ffff80000010a2c9:	48 89 c2             	mov    %rax,%rdx
ffff80000010a2cc:	48 b8 e0 15 13 00 00 	movabs $0xffff8000001315e0,%rax
ffff80000010a2d3:	80 ff ff 
ffff80000010a2d6:	48 89 90 00 03 00 00 	mov    %rdx,0x300(%rax)
ffff80000010a2dd:	48 b9 00 fc 10 00 00 	movabs $0xffff80000010fc00,%rcx
ffff80000010a2e4:	80 ff ff 
ffff80000010a2e7:	48 8b 45 e8          	mov    -0x18(%rbp),%rax
ffff80000010a2eb:	48 c1 e0 03          	shl    $0x3,%rax
ffff80000010a2ef:	48 8d 14 c5 00 00 00 	lea    0x0(,%rax,8),%rdx
ffff80000010a2f6:	00 
ffff80000010a2f7:	48 29 c2             	sub    %rax,%rdx
ffff80000010a2fa:	48 8d 04 11          	lea    (%rcx,%rdx,1),%rax
ffff80000010a2fe:	48 83 c0 10          	add    $0x10,%rax
ffff80000010a302:	48 8b 40 08          	mov    0x8(%rax),%rax
ffff80000010a306:	48 8b 40 30          	mov    0x30(%rax),%rax
ffff80000010a30a:	48 89 c1             	mov    %rax,%rcx
ffff80000010a30d:	48 be 00 fc 10 00 00 	movabs $0xffff80000010fc00,%rsi
ffff80000010a314:	80 ff ff 
ffff80000010a317:	48 8b 45 e8          	mov    -0x18(%rbp),%rax
ffff80000010a31b:	48 c1 e0 03          	shl    $0x3,%rax
ffff80000010a31f:	48 8d 14 c5 00 00 00 	lea    0x0(,%rax,8),%rdx
ffff80000010a326:	00 
ffff80000010a327:	48 29 c2             	sub    %rax,%rdx
ffff80000010a32a:	48 8d 04 16          	lea    (%rsi,%rdx,1),%rax
ffff80000010a32e:	48 83 c0 10          	add    $0x10,%rax
ffff80000010a332:	48 8b 40 08          	mov    0x8(%rax),%rax
ffff80000010a336:	48 8b 40 40          	mov    0x40(%rax),%rax
ffff80000010a33a:	48 89 ca             	mov    %rcx,%rdx
ffff80000010a33d:	be ff 00 00 00       	mov    $0xff,%esi
ffff80000010a342:	48 89 c7             	mov    %rax,%rdi
ffff80000010a345:	48 b8 55 6f 10 00 00 	movabs $0xffff800000106f55,%rax
ffff80000010a34c:	80 ff ff 
ffff80000010a34f:	ff d0                	callq  *%rax
ffff80000010a351:	48 c7 45 e0 00 00 00 	movq   $0x0,-0x20(%rbp)
ffff80000010a358:	00 
ffff80000010a359:	e9 9b 00 00 00       	jmpq   ffff80000010a3f9 <slab_init+0x3e3>
ffff80000010a35e:	48 b9 00 fc 10 00 00 	movabs $0xffff80000010fc00,%rcx
ffff80000010a365:	80 ff ff 
ffff80000010a368:	48 8b 45 e8          	mov    -0x18(%rbp),%rax
ffff80000010a36c:	48 c1 e0 03          	shl    $0x3,%rax
ffff80000010a370:	48 8d 14 c5 00 00 00 	lea    0x0(,%rax,8),%rdx
ffff80000010a377:	00 
ffff80000010a378:	48 29 c2             	sub    %rax,%rdx
ffff80000010a37b:	48 8d 04 11          	lea    (%rcx,%rdx,1),%rax
ffff80000010a37f:	48 83 c0 10          	add    $0x10,%rax
ffff80000010a383:	48 8b 40 08          	mov    0x8(%rax),%rax
ffff80000010a387:	48 8b 40 40          	mov    0x40(%rax),%rax
ffff80000010a38b:	48 8b 55 e0          	mov    -0x20(%rbp),%rdx
ffff80000010a38f:	48 c1 ea 06          	shr    $0x6,%rdx
ffff80000010a393:	48 c1 e2 03          	shl    $0x3,%rdx
ffff80000010a397:	48 8d 34 10          	lea    (%rax,%rdx,1),%rsi
ffff80000010a39b:	48 b9 00 fc 10 00 00 	movabs $0xffff80000010fc00,%rcx
ffff80000010a3a2:	80 ff ff 
ffff80000010a3a5:	48 8b 45 e8          	mov    -0x18(%rbp),%rax
ffff80000010a3a9:	48 c1 e0 03          	shl    $0x3,%rax
ffff80000010a3ad:	48 8d 14 c5 00 00 00 	lea    0x0(,%rax,8),%rdx
ffff80000010a3b4:	00 
ffff80000010a3b5:	48 29 c2             	sub    %rax,%rdx
ffff80000010a3b8:	48 8d 04 11          	lea    (%rcx,%rdx,1),%rax
ffff80000010a3bc:	48 83 c0 10          	add    $0x10,%rax
ffff80000010a3c0:	48 8b 40 08          	mov    0x8(%rax),%rax
ffff80000010a3c4:	48 8b 40 40          	mov    0x40(%rax),%rax
ffff80000010a3c8:	48 8b 55 e0          	mov    -0x20(%rbp),%rdx
ffff80000010a3cc:	48 c1 ea 06          	shr    $0x6,%rdx
ffff80000010a3d0:	48 c1 e2 03          	shl    $0x3,%rdx
ffff80000010a3d4:	48 01 d0             	add    %rdx,%rax
ffff80000010a3d7:	48 8b 00             	mov    (%rax),%rax
ffff80000010a3da:	48 8b 55 e0          	mov    -0x20(%rbp),%rdx
ffff80000010a3de:	83 e2 3f             	and    $0x3f,%edx
ffff80000010a3e1:	bf 01 00 00 00       	mov    $0x1,%edi
ffff80000010a3e6:	89 d1                	mov    %edx,%ecx
ffff80000010a3e8:	48 d3 e7             	shl    %cl,%rdi
ffff80000010a3eb:	48 89 fa             	mov    %rdi,%rdx
ffff80000010a3ee:	48 31 d0             	xor    %rdx,%rax
ffff80000010a3f1:	48 89 06             	mov    %rax,(%rsi)
ffff80000010a3f4:	48 83 45 e0 01       	addq   $0x1,-0x20(%rbp)
ffff80000010a3f9:	48 b9 00 fc 10 00 00 	movabs $0xffff80000010fc00,%rcx
ffff80000010a400:	80 ff ff 
ffff80000010a403:	48 8b 45 e8          	mov    -0x18(%rbp),%rax
ffff80000010a407:	48 c1 e0 03          	shl    $0x3,%rax
ffff80000010a40b:	48 8d 14 c5 00 00 00 	lea    0x0(,%rax,8),%rdx
ffff80000010a412:	00 
ffff80000010a413:	48 29 c2             	sub    %rax,%rdx
ffff80000010a416:	48 8d 04 11          	lea    (%rcx,%rdx,1),%rax
ffff80000010a41a:	48 83 c0 10          	add    $0x10,%rax
ffff80000010a41e:	48 8b 40 08          	mov    0x8(%rax),%rax
ffff80000010a422:	48 8b 40 38          	mov    0x38(%rax),%rax
ffff80000010a426:	48 3b 45 e0          	cmp    -0x20(%rbp),%rax
ffff80000010a42a:	0f 87 2e ff ff ff    	ja     ffff80000010a35e <slab_init+0x348>
ffff80000010a430:	48 b9 00 fc 10 00 00 	movabs $0xffff80000010fc00,%rcx
ffff80000010a437:	80 ff ff 
ffff80000010a43a:	48 8b 45 e8          	mov    -0x18(%rbp),%rax
ffff80000010a43e:	48 c1 e0 03          	shl    $0x3,%rax
ffff80000010a442:	48 8d 14 c5 00 00 00 	lea    0x0(,%rax,8),%rdx
ffff80000010a449:	00 
ffff80000010a44a:	48 29 c2             	sub    %rax,%rdx
ffff80000010a44d:	48 8d 04 11          	lea    (%rcx,%rdx,1),%rax
ffff80000010a451:	48 83 c0 10          	add    $0x10,%rax
ffff80000010a455:	48 8b 40 08          	mov    0x8(%rax),%rax
ffff80000010a459:	48 8b 48 38          	mov    0x38(%rax),%rcx
ffff80000010a45d:	48 be 00 fc 10 00 00 	movabs $0xffff80000010fc00,%rsi
ffff80000010a464:	80 ff ff 
ffff80000010a467:	48 8b 45 e8          	mov    -0x18(%rbp),%rax
ffff80000010a46b:	48 c1 e0 03          	shl    $0x3,%rax
ffff80000010a46f:	48 8d 14 c5 00 00 00 	lea    0x0(,%rax,8),%rdx
ffff80000010a476:	00 
ffff80000010a477:	48 29 c2             	sub    %rax,%rdx
ffff80000010a47a:	48 8d 04 16          	lea    (%rsi,%rdx,1),%rax
ffff80000010a47e:	48 83 c0 10          	add    $0x10,%rax
ffff80000010a482:	48 89 08             	mov    %rcx,(%rax)
ffff80000010a485:	48 b9 00 fc 10 00 00 	movabs $0xffff80000010fc00,%rcx
ffff80000010a48c:	80 ff ff 
ffff80000010a48f:	48 8b 45 e8          	mov    -0x18(%rbp),%rax
ffff80000010a493:	48 c1 e0 03          	shl    $0x3,%rax
ffff80000010a497:	48 8d 14 c5 00 00 00 	lea    0x0(,%rax,8),%rdx
ffff80000010a49e:	00 
ffff80000010a49f:	48 29 c2             	sub    %rax,%rdx
ffff80000010a4a2:	48 8d 04 11          	lea    (%rcx,%rdx,1),%rax
ffff80000010a4a6:	48 c7 40 08 00 00 00 	movq   $0x0,0x8(%rax)
ffff80000010a4ad:	00 
ffff80000010a4ae:	48 83 45 e8 01       	addq   $0x1,-0x18(%rbp)
ffff80000010a4b3:	48 83 7d e8 0f       	cmpq   $0xf,-0x18(%rbp)
ffff80000010a4b8:	0f 86 93 fb ff ff    	jbe    ffff80000010a051 <slab_init+0x3b>
ffff80000010a4be:	48 b8 e0 15 13 00 00 	movabs $0xffff8000001315e0,%rax
ffff80000010a4c5:	80 ff ff 
ffff80000010a4c8:	48 8b 90 00 03 00 00 	mov    0x300(%rax),%rdx
ffff80000010a4cf:	48 b8 00 00 00 00 00 	movabs $0x800000000000,%rax
ffff80000010a4d6:	80 00 00 
ffff80000010a4d9:	48 01 d0             	add    %rdx,%rax
ffff80000010a4dc:	48 c1 e8 15          	shr    $0x15,%rax
ffff80000010a4e0:	48 89 45 e8          	mov    %rax,-0x18(%rbp)
ffff80000010a4e4:	48 ba ff ff 1f 00 00 	movabs $0x8000001fffff,%rdx
ffff80000010a4eb:	80 00 00 
ffff80000010a4ee:	48 8b 45 c8          	mov    -0x38(%rbp),%rax
ffff80000010a4f2:	48 01 d0             	add    %rdx,%rax
ffff80000010a4f5:	48 c1 e8 15          	shr    $0x15,%rax
ffff80000010a4f9:	48 89 45 e0          	mov    %rax,-0x20(%rbp)
ffff80000010a4fd:	e9 da 00 00 00       	jmpq   ffff80000010a5dc <slab_init+0x5c6>
ffff80000010a502:	48 b8 e0 15 13 00 00 	movabs $0xffff8000001315e0,%rax
ffff80000010a509:	80 ff ff 
ffff80000010a50c:	48 8b 88 a0 02 00 00 	mov    0x2a0(%rax),%rcx
ffff80000010a513:	48 8b 55 e0          	mov    -0x20(%rbp),%rdx
ffff80000010a517:	48 89 d0             	mov    %rdx,%rax
ffff80000010a51a:	48 c1 e0 02          	shl    $0x2,%rax
ffff80000010a51e:	48 01 d0             	add    %rdx,%rax
ffff80000010a521:	48 c1 e0 03          	shl    $0x3,%rax
ffff80000010a525:	48 01 c8             	add    %rcx,%rax
ffff80000010a528:	48 89 45 d8          	mov    %rax,-0x28(%rbp)
ffff80000010a52c:	48 b8 e0 15 13 00 00 	movabs $0xffff8000001315e0,%rax
ffff80000010a533:	80 ff ff 
ffff80000010a536:	48 8b 90 88 02 00 00 	mov    0x288(%rax),%rdx
ffff80000010a53d:	48 8b 45 d8          	mov    -0x28(%rbp),%rax
ffff80000010a541:	48 8b 40 08          	mov    0x8(%rax),%rax
ffff80000010a545:	48 c1 e8 1b          	shr    $0x1b,%rax
ffff80000010a549:	48 c1 e0 03          	shl    $0x3,%rax
ffff80000010a54d:	48 01 c2             	add    %rax,%rdx
ffff80000010a550:	48 b8 e0 15 13 00 00 	movabs $0xffff8000001315e0,%rax
ffff80000010a557:	80 ff ff 
ffff80000010a55a:	48 8b 88 88 02 00 00 	mov    0x288(%rax),%rcx
ffff80000010a561:	48 8b 45 d8          	mov    -0x28(%rbp),%rax
ffff80000010a565:	48 8b 40 08          	mov    0x8(%rax),%rax
ffff80000010a569:	48 c1 e8 1b          	shr    $0x1b,%rax
ffff80000010a56d:	48 c1 e0 03          	shl    $0x3,%rax
ffff80000010a571:	48 01 c8             	add    %rcx,%rax
ffff80000010a574:	48 8b 30             	mov    (%rax),%rsi
ffff80000010a577:	48 8b 45 d8          	mov    -0x28(%rbp),%rax
ffff80000010a57b:	48 8b 40 08          	mov    0x8(%rax),%rax
ffff80000010a57f:	48 c1 e8 15          	shr    $0x15,%rax
ffff80000010a583:	83 e0 3f             	and    $0x3f,%eax
ffff80000010a586:	bf 01 00 00 00       	mov    $0x1,%edi
ffff80000010a58b:	89 c1                	mov    %eax,%ecx
ffff80000010a58d:	48 d3 e7             	shl    %cl,%rdi
ffff80000010a590:	48 89 f8             	mov    %rdi,%rax
ffff80000010a593:	48 09 f0             	or     %rsi,%rax
ffff80000010a596:	48 89 02             	mov    %rax,(%rdx)
ffff80000010a599:	48 8b 45 d8          	mov    -0x28(%rbp),%rax
ffff80000010a59d:	48 8b 00             	mov    (%rax),%rax
ffff80000010a5a0:	48 8b 50 38          	mov    0x38(%rax),%rdx
ffff80000010a5a4:	48 83 c2 01          	add    $0x1,%rdx
ffff80000010a5a8:	48 89 50 38          	mov    %rdx,0x38(%rax)
ffff80000010a5ac:	48 8b 45 d8          	mov    -0x28(%rbp),%rax
ffff80000010a5b0:	48 8b 00             	mov    (%rax),%rax
ffff80000010a5b3:	48 8b 50 40          	mov    0x40(%rax),%rdx
ffff80000010a5b7:	48 83 ea 01          	sub    $0x1,%rdx
ffff80000010a5bb:	48 89 50 40          	mov    %rdx,0x40(%rax)
ffff80000010a5bf:	48 8b 45 d8          	mov    -0x28(%rbp),%rax
ffff80000010a5c3:	be 0b 00 00 00       	mov    $0xb,%esi
ffff80000010a5c8:	48 89 c7             	mov    %rax,%rdi
ffff80000010a5cb:	48 b8 dc 6f 10 00 00 	movabs $0xffff800000106fdc,%rax
ffff80000010a5d2:	80 ff ff 
ffff80000010a5d5:	ff d0                	callq  *%rax
ffff80000010a5d7:	48 83 45 e0 01       	addq   $0x1,-0x20(%rbp)
ffff80000010a5dc:	48 8b 45 e0          	mov    -0x20(%rbp),%rax
ffff80000010a5e0:	48 3b 45 e8          	cmp    -0x18(%rbp),%rax
ffff80000010a5e4:	0f 86 18 ff ff ff    	jbe    ffff80000010a502 <slab_init+0x4ec>
ffff80000010a5ea:	48 b8 e0 15 13 00 00 	movabs $0xffff8000001315e0,%rax
ffff80000010a5f1:	80 ff ff 
ffff80000010a5f4:	48 8b 80 b8 02 00 00 	mov    0x2b8(%rax),%rax
ffff80000010a5fb:	48 8b 48 40          	mov    0x40(%rax),%rcx
ffff80000010a5ff:	48 b8 e0 15 13 00 00 	movabs $0xffff8000001315e0,%rax
ffff80000010a606:	80 ff ff 
ffff80000010a609:	48 8b 80 b8 02 00 00 	mov    0x2b8(%rax),%rax
ffff80000010a610:	48 8b 50 38          	mov    0x38(%rax),%rdx
ffff80000010a614:	48 b8 e0 15 13 00 00 	movabs $0xffff8000001315e0,%rax
ffff80000010a61b:	80 ff ff 
ffff80000010a61e:	48 8b 80 88 02 00 00 	mov    0x288(%rax),%rax
ffff80000010a625:	48 8b 00             	mov    (%rax),%rax
ffff80000010a628:	49 89 c9             	mov    %rcx,%r9
ffff80000010a62b:	49 89 d0             	mov    %rdx,%r8
ffff80000010a62e:	48 89 c1             	mov    %rax,%rcx
ffff80000010a631:	48 ba 78 a6 11 00 00 	movabs $0xffff80000011a678,%rdx
ffff80000010a638:	80 ff ff 
ffff80000010a63b:	be 00 00 00 00       	mov    $0x0,%esi
ffff80000010a640:	bf 00 80 ff 00       	mov    $0xff8000,%edi
ffff80000010a645:	b8 00 00 00 00       	mov    $0x0,%eax
ffff80000010a64a:	49 ba d0 56 10 00 00 	movabs $0xffff8000001056d0,%r10
ffff80000010a651:	80 ff ff 
ffff80000010a654:	41 ff d2             	callq  *%r10
ffff80000010a657:	48 c7 45 e8 00 00 00 	movq   $0x0,-0x18(%rbp)
ffff80000010a65e:	00 
ffff80000010a65f:	e9 7c 01 00 00       	jmpq   ffff80000010a7e0 <slab_init+0x7ca>
ffff80000010a664:	48 b8 e0 15 13 00 00 	movabs $0xffff8000001315e0,%rax
ffff80000010a66b:	80 ff ff 
ffff80000010a66e:	48 8b 80 00 03 00 00 	mov    0x300(%rax),%rax
ffff80000010a675:	48 8b 55 e8          	mov    -0x18(%rbp),%rdx
ffff80000010a679:	48 c1 e2 15          	shl    $0x15,%rdx
ffff80000010a67d:	48 01 d0             	add    %rdx,%rax
ffff80000010a680:	48 05 ff ff 1f 00    	add    $0x1fffff,%rax
ffff80000010a686:	48 25 00 00 e0 ff    	and    $0xffffffffffe00000,%rax
ffff80000010a68c:	48 89 45 d0          	mov    %rax,-0x30(%rbp)
ffff80000010a690:	48 b8 e0 15 13 00 00 	movabs $0xffff8000001315e0,%rax
ffff80000010a697:	80 ff ff 
ffff80000010a69a:	48 8b 88 a0 02 00 00 	mov    0x2a0(%rax),%rcx
ffff80000010a6a1:	48 8b 55 d0          	mov    -0x30(%rbp),%rdx
ffff80000010a6a5:	48 b8 00 00 00 00 00 	movabs $0x800000000000,%rax
ffff80000010a6ac:	80 00 00 
ffff80000010a6af:	48 01 d0             	add    %rdx,%rax
ffff80000010a6b2:	48 c1 e8 15          	shr    $0x15,%rax
ffff80000010a6b6:	48 89 c2             	mov    %rax,%rdx
ffff80000010a6b9:	48 89 d0             	mov    %rdx,%rax
ffff80000010a6bc:	48 c1 e0 02          	shl    $0x2,%rax
ffff80000010a6c0:	48 01 d0             	add    %rdx,%rax
ffff80000010a6c3:	48 c1 e0 03          	shl    $0x3,%rax
ffff80000010a6c7:	48 01 c8             	add    %rcx,%rax
ffff80000010a6ca:	48 89 45 d8          	mov    %rax,-0x28(%rbp)
ffff80000010a6ce:	48 b8 e0 15 13 00 00 	movabs $0xffff8000001315e0,%rax
ffff80000010a6d5:	80 ff ff 
ffff80000010a6d8:	48 8b 90 88 02 00 00 	mov    0x288(%rax),%rdx
ffff80000010a6df:	48 8b 45 d8          	mov    -0x28(%rbp),%rax
ffff80000010a6e3:	48 8b 40 08          	mov    0x8(%rax),%rax
ffff80000010a6e7:	48 c1 e8 1b          	shr    $0x1b,%rax
ffff80000010a6eb:	48 c1 e0 03          	shl    $0x3,%rax
ffff80000010a6ef:	48 01 c2             	add    %rax,%rdx
ffff80000010a6f2:	48 b8 e0 15 13 00 00 	movabs $0xffff8000001315e0,%rax
ffff80000010a6f9:	80 ff ff 
ffff80000010a6fc:	48 8b 88 88 02 00 00 	mov    0x288(%rax),%rcx
ffff80000010a703:	48 8b 45 d8          	mov    -0x28(%rbp),%rax
ffff80000010a707:	48 8b 40 08          	mov    0x8(%rax),%rax
ffff80000010a70b:	48 c1 e8 1b          	shr    $0x1b,%rax
ffff80000010a70f:	48 c1 e0 03          	shl    $0x3,%rax
ffff80000010a713:	48 01 c8             	add    %rcx,%rax
ffff80000010a716:	48 8b 30             	mov    (%rax),%rsi
ffff80000010a719:	48 8b 45 d8          	mov    -0x28(%rbp),%rax
ffff80000010a71d:	48 8b 40 08          	mov    0x8(%rax),%rax
ffff80000010a721:	48 c1 e8 15          	shr    $0x15,%rax
ffff80000010a725:	83 e0 3f             	and    $0x3f,%eax
ffff80000010a728:	bf 01 00 00 00       	mov    $0x1,%edi
ffff80000010a72d:	89 c1                	mov    %eax,%ecx
ffff80000010a72f:	48 d3 e7             	shl    %cl,%rdi
ffff80000010a732:	48 89 f8             	mov    %rdi,%rax
ffff80000010a735:	48 09 f0             	or     %rsi,%rax
ffff80000010a738:	48 89 02             	mov    %rax,(%rdx)
ffff80000010a73b:	48 8b 45 d8          	mov    -0x28(%rbp),%rax
ffff80000010a73f:	48 8b 00             	mov    (%rax),%rax
ffff80000010a742:	48 8b 50 38          	mov    0x38(%rax),%rdx
ffff80000010a746:	48 83 c2 01          	add    $0x1,%rdx
ffff80000010a74a:	48 89 50 38          	mov    %rdx,0x38(%rax)
ffff80000010a74e:	48 8b 45 d8          	mov    -0x28(%rbp),%rax
ffff80000010a752:	48 8b 00             	mov    (%rax),%rax
ffff80000010a755:	48 8b 50 40          	mov    0x40(%rax),%rdx
ffff80000010a759:	48 83 ea 01          	sub    $0x1,%rdx
ffff80000010a75d:	48 89 50 40          	mov    %rdx,0x40(%rax)
ffff80000010a761:	48 8b 45 d8          	mov    -0x28(%rbp),%rax
ffff80000010a765:	be 0b 00 00 00       	mov    $0xb,%esi
ffff80000010a76a:	48 89 c7             	mov    %rax,%rdi
ffff80000010a76d:	48 b8 dc 6f 10 00 00 	movabs $0xffff800000106fdc,%rax
ffff80000010a774:	80 ff ff 
ffff80000010a777:	ff d0                	callq  *%rax
ffff80000010a779:	48 b9 00 fc 10 00 00 	movabs $0xffff80000010fc00,%rcx
ffff80000010a780:	80 ff ff 
ffff80000010a783:	48 8b 45 e8          	mov    -0x18(%rbp),%rax
ffff80000010a787:	48 c1 e0 03          	shl    $0x3,%rax
ffff80000010a78b:	48 8d 14 c5 00 00 00 	lea    0x0(,%rax,8),%rdx
ffff80000010a792:	00 
ffff80000010a793:	48 29 c2             	sub    %rax,%rdx
ffff80000010a796:	48 8d 04 11          	lea    (%rcx,%rdx,1),%rax
ffff80000010a79a:	48 83 c0 10          	add    $0x10,%rax
ffff80000010a79e:	48 8b 40 08          	mov    0x8(%rax),%rax
ffff80000010a7a2:	48 8b 55 d8          	mov    -0x28(%rbp),%rdx
ffff80000010a7a6:	48 89 50 10          	mov    %rdx,0x10(%rax)
ffff80000010a7aa:	48 b9 00 fc 10 00 00 	movabs $0xffff80000010fc00,%rcx
ffff80000010a7b1:	80 ff ff 
ffff80000010a7b4:	48 8b 45 e8          	mov    -0x18(%rbp),%rax
ffff80000010a7b8:	48 c1 e0 03          	shl    $0x3,%rax
ffff80000010a7bc:	48 8d 14 c5 00 00 00 	lea    0x0(,%rax,8),%rdx
ffff80000010a7c3:	00 
ffff80000010a7c4:	48 29 c2             	sub    %rax,%rdx
ffff80000010a7c7:	48 8d 04 11          	lea    (%rcx,%rdx,1),%rax
ffff80000010a7cb:	48 83 c0 10          	add    $0x10,%rax
ffff80000010a7cf:	48 8b 40 08          	mov    0x8(%rax),%rax
ffff80000010a7d3:	48 8b 55 d0          	mov    -0x30(%rbp),%rdx
ffff80000010a7d7:	48 89 50 28          	mov    %rdx,0x28(%rax)
ffff80000010a7db:	48 83 45 e8 01       	addq   $0x1,-0x18(%rbp)
ffff80000010a7e0:	48 83 7d e8 0f       	cmpq   $0xf,-0x18(%rbp)
ffff80000010a7e5:	0f 86 79 fe ff ff    	jbe    ffff80000010a664 <slab_init+0x64e>
ffff80000010a7eb:	48 b8 e0 15 13 00 00 	movabs $0xffff8000001315e0,%rax
ffff80000010a7f2:	80 ff ff 
ffff80000010a7f5:	48 8b 80 b8 02 00 00 	mov    0x2b8(%rax),%rax
ffff80000010a7fc:	48 8b 48 40          	mov    0x40(%rax),%rcx
ffff80000010a800:	48 b8 e0 15 13 00 00 	movabs $0xffff8000001315e0,%rax
ffff80000010a807:	80 ff ff 
ffff80000010a80a:	48 8b 80 b8 02 00 00 	mov    0x2b8(%rax),%rax
ffff80000010a811:	48 8b 50 38          	mov    0x38(%rax),%rdx
ffff80000010a815:	48 b8 e0 15 13 00 00 	movabs $0xffff8000001315e0,%rax
ffff80000010a81c:	80 ff ff 
ffff80000010a81f:	48 8b 80 88 02 00 00 	mov    0x288(%rax),%rax
ffff80000010a826:	48 8b 00             	mov    (%rax),%rax
ffff80000010a829:	49 89 c9             	mov    %rcx,%r9
ffff80000010a82c:	49 89 d0             	mov    %rdx,%r8
ffff80000010a82f:	48 89 c1             	mov    %rax,%rcx
ffff80000010a832:	48 ba e8 a6 11 00 00 	movabs $0xffff80000011a6e8,%rdx
ffff80000010a839:	80 ff ff 
ffff80000010a83c:	be 00 00 00 00       	mov    $0x0,%esi
ffff80000010a841:	bf 00 80 ff 00       	mov    $0xff8000,%edi
ffff80000010a846:	b8 00 00 00 00       	mov    $0x0,%eax
ffff80000010a84b:	49 ba d0 56 10 00 00 	movabs $0xffff8000001056d0,%r10
ffff80000010a852:	80 ff ff 
ffff80000010a855:	41 ff d2             	callq  *%r10
ffff80000010a858:	48 b8 e0 15 13 00 00 	movabs $0xffff8000001315e0,%rax
ffff80000010a85f:	80 ff ff 
ffff80000010a862:	48 8b 88 00 03 00 00 	mov    0x300(%rax),%rcx
ffff80000010a869:	48 b8 e0 15 13 00 00 	movabs $0xffff8000001315e0,%rax
ffff80000010a870:	80 ff ff 
ffff80000010a873:	48 8b 90 f8 02 00 00 	mov    0x2f8(%rax),%rdx
ffff80000010a87a:	48 b8 e0 15 13 00 00 	movabs $0xffff8000001315e0,%rax
ffff80000010a881:	80 ff ff 
ffff80000010a884:	48 8b b8 e0 02 00 00 	mov    0x2e0(%rax),%rdi
ffff80000010a88b:	48 b8 e0 15 13 00 00 	movabs $0xffff8000001315e0,%rax
ffff80000010a892:	80 ff ff 
ffff80000010a895:	48 8b b0 d8 02 00 00 	mov    0x2d8(%rax),%rsi
ffff80000010a89c:	48 b8 e0 15 13 00 00 	movabs $0xffff8000001315e0,%rax
ffff80000010a8a3:	80 ff ff 
ffff80000010a8a6:	48 8b 80 d0 02 00 00 	mov    0x2d0(%rax),%rax
ffff80000010a8ad:	48 89 4c 24 08       	mov    %rcx,0x8(%rsp)
ffff80000010a8b2:	48 89 14 24          	mov    %rdx,(%rsp)
ffff80000010a8b6:	49 89 f9             	mov    %rdi,%r9
ffff80000010a8b9:	49 89 f0             	mov    %rsi,%r8
ffff80000010a8bc:	48 89 c1             	mov    %rax,%rcx
ffff80000010a8bf:	48 ba 58 a7 11 00 00 	movabs $0xffff80000011a758,%rdx
ffff80000010a8c6:	80 ff ff 
ffff80000010a8c9:	be 00 00 00 00       	mov    $0x0,%esi
ffff80000010a8ce:	bf 00 80 ff 00       	mov    $0xff8000,%edi
ffff80000010a8d3:	b8 00 00 00 00       	mov    $0x0,%eax
ffff80000010a8d8:	49 ba d0 56 10 00 00 	movabs $0xffff8000001056d0,%r10
ffff80000010a8df:	80 ff ff 
ffff80000010a8e2:	41 ff d2             	callq  *%r10
ffff80000010a8e5:	b8 01 00 00 00       	mov    $0x1,%eax
ffff80000010a8ea:	48 83 c4 48          	add    $0x48,%rsp
ffff80000010a8ee:	5b                   	pop    %rbx
ffff80000010a8ef:	5d                   	pop    %rbp
ffff80000010a8f0:	c3                   	retq   

ffff80000010a8f1 <pagetable_init>:
ffff80000010a8f1:	55                   	push   %rbp
ffff80000010a8f2:	48 89 e5             	mov    %rsp,%rbp
ffff80000010a8f5:	48 83 ec 40          	sub    $0x40,%rsp
ffff80000010a8f9:	48 c7 45 e0 00 00 00 	movq   $0x0,-0x20(%rbp)
ffff80000010a900:	00 
ffff80000010a901:	b8 00 00 00 00       	mov    $0x0,%eax
ffff80000010a906:	48 ba 3d 43 10 00 00 	movabs $0xffff80000010433d,%rdx
ffff80000010a90d:	80 ff ff 
ffff80000010a910:	ff d2                	callq  *%rdx
ffff80000010a912:	48 ba 00 10 13 00 00 	movabs $0xffff800000131000,%rdx
ffff80000010a919:	80 ff ff 
ffff80000010a91c:	48 89 02             	mov    %rax,(%rdx)
ffff80000010a91f:	48 b8 00 10 13 00 00 	movabs $0xffff800000131000,%rax
ffff80000010a926:	80 ff ff 
ffff80000010a929:	48 8b 00             	mov    (%rax),%rax
ffff80000010a92c:	48 25 00 f0 ff ff    	and    $0xfffffffffffff000,%rax
ffff80000010a932:	48 89 c2             	mov    %rax,%rdx
ffff80000010a935:	48 b8 00 08 00 00 00 	movabs $0xffff800000000800,%rax
ffff80000010a93c:	80 ff ff 
ffff80000010a93f:	48 01 d0             	add    %rdx,%rax
ffff80000010a942:	48 89 45 e0          	mov    %rax,-0x20(%rbp)
ffff80000010a946:	48 8b 45 e0          	mov    -0x20(%rbp),%rax
ffff80000010a94a:	48 8b 10             	mov    (%rax),%rdx
ffff80000010a94d:	48 8b 45 e0          	mov    -0x20(%rbp),%rax
ffff80000010a951:	49 89 d0             	mov    %rdx,%r8
ffff80000010a954:	48 89 c1             	mov    %rax,%rcx
ffff80000010a957:	48 ba b4 a7 11 00 00 	movabs $0xffff80000011a7b4,%rdx
ffff80000010a95e:	80 ff ff 
ffff80000010a961:	be 00 00 00 00       	mov    $0x0,%esi
ffff80000010a966:	bf 00 ff ff 00       	mov    $0xffff00,%edi
ffff80000010a96b:	b8 00 00 00 00       	mov    $0x0,%eax
ffff80000010a970:	49 b9 d0 56 10 00 00 	movabs $0xffff8000001056d0,%r9
ffff80000010a977:	80 ff ff 
ffff80000010a97a:	41 ff d1             	callq  *%r9
ffff80000010a97d:	48 8b 45 e0          	mov    -0x20(%rbp),%rax
ffff80000010a981:	48 8b 00             	mov    (%rax),%rax
ffff80000010a984:	48 25 00 f0 ff ff    	and    $0xfffffffffffff000,%rax
ffff80000010a98a:	48 89 c2             	mov    %rax,%rdx
ffff80000010a98d:	48 b8 00 00 00 00 00 	movabs $0xffff800000000000,%rax
ffff80000010a994:	80 ff ff 
ffff80000010a997:	48 01 d0             	add    %rdx,%rax
ffff80000010a99a:	48 89 45 e0          	mov    %rax,-0x20(%rbp)
ffff80000010a99e:	48 8b 45 e0          	mov    -0x20(%rbp),%rax
ffff80000010a9a2:	48 8b 10             	mov    (%rax),%rdx
ffff80000010a9a5:	48 8b 45 e0          	mov    -0x20(%rbp),%rax
ffff80000010a9a9:	49 89 d0             	mov    %rdx,%r8
ffff80000010a9ac:	48 89 c1             	mov    %rax,%rcx
ffff80000010a9af:	48 ba c9 a7 11 00 00 	movabs $0xffff80000011a7c9,%rdx
ffff80000010a9b6:	80 ff ff 
ffff80000010a9b9:	be 00 00 00 00       	mov    $0x0,%esi
ffff80000010a9be:	bf 00 ff ff 00       	mov    $0xffff00,%edi
ffff80000010a9c3:	b8 00 00 00 00       	mov    $0x0,%eax
ffff80000010a9c8:	49 b9 d0 56 10 00 00 	movabs $0xffff8000001056d0,%r9
ffff80000010a9cf:	80 ff ff 
ffff80000010a9d2:	41 ff d1             	callq  *%r9
ffff80000010a9d5:	48 8b 45 e0          	mov    -0x20(%rbp),%rax
ffff80000010a9d9:	48 8b 00             	mov    (%rax),%rax
ffff80000010a9dc:	48 25 00 f0 ff ff    	and    $0xfffffffffffff000,%rax
ffff80000010a9e2:	48 89 c2             	mov    %rax,%rdx
ffff80000010a9e5:	48 b8 00 00 00 00 00 	movabs $0xffff800000000000,%rax
ffff80000010a9ec:	80 ff ff 
ffff80000010a9ef:	48 01 d0             	add    %rdx,%rax
ffff80000010a9f2:	48 89 45 e0          	mov    %rax,-0x20(%rbp)
ffff80000010a9f6:	48 8b 45 e0          	mov    -0x20(%rbp),%rax
ffff80000010a9fa:	48 8b 10             	mov    (%rax),%rdx
ffff80000010a9fd:	48 8b 45 e0          	mov    -0x20(%rbp),%rax
ffff80000010aa01:	49 89 d0             	mov    %rdx,%r8
ffff80000010aa04:	48 89 c1             	mov    %rax,%rcx
ffff80000010aa07:	48 ba de a7 11 00 00 	movabs $0xffff80000011a7de,%rdx
ffff80000010aa0e:	80 ff ff 
ffff80000010aa11:	be 00 00 00 00       	mov    $0x0,%esi
ffff80000010aa16:	bf 00 ff ff 00       	mov    $0xffff00,%edi
ffff80000010aa1b:	b8 00 00 00 00       	mov    $0x0,%eax
ffff80000010aa20:	49 b9 d0 56 10 00 00 	movabs $0xffff8000001056d0,%r9
ffff80000010aa27:	80 ff ff 
ffff80000010aa2a:	41 ff d1             	callq  *%r9
ffff80000010aa2d:	48 c7 45 f8 00 00 00 	movq   $0x0,-0x8(%rbp)
ffff80000010aa34:	00 
ffff80000010aa35:	e9 7a 02 00 00       	jmpq   ffff80000010acb4 <pagetable_init+0x3c3>
ffff80000010aa3a:	48 b8 e0 15 13 00 00 	movabs $0xffff8000001315e0,%rax
ffff80000010aa41:	80 ff ff 
ffff80000010aa44:	48 8b 88 b8 02 00 00 	mov    0x2b8(%rax),%rcx
ffff80000010aa4b:	48 8b 55 f8          	mov    -0x8(%rbp),%rdx
ffff80000010aa4f:	48 89 d0             	mov    %rdx,%rax
ffff80000010aa52:	48 c1 e0 02          	shl    $0x2,%rax
ffff80000010aa56:	48 01 d0             	add    %rdx,%rax
ffff80000010aa59:	48 c1 e0 04          	shl    $0x4,%rax
ffff80000010aa5d:	48 01 c8             	add    %rcx,%rax
ffff80000010aa60:	48 89 45 d8          	mov    %rax,-0x28(%rbp)
ffff80000010aa64:	48 8b 45 d8          	mov    -0x28(%rbp),%rax
ffff80000010aa68:	48 8b 00             	mov    (%rax),%rax
ffff80000010aa6b:	48 89 45 e8          	mov    %rax,-0x18(%rbp)
ffff80000010aa6f:	48 b8 10 10 13 00 00 	movabs $0xffff800000131010,%rax
ffff80000010aa76:	80 ff ff 
ffff80000010aa79:	8b 00                	mov    (%rax),%eax
ffff80000010aa7b:	85 c0                	test   %eax,%eax
ffff80000010aa7d:	74 19                	je     ffff80000010aa98 <pagetable_init+0x1a7>
ffff80000010aa7f:	48 b8 10 10 13 00 00 	movabs $0xffff800000131010,%rax
ffff80000010aa86:	80 ff ff 
ffff80000010aa89:	8b 00                	mov    (%rax),%eax
ffff80000010aa8b:	48 98                	cltq   
ffff80000010aa8d:	48 3b 45 f8          	cmp    -0x8(%rbp),%rax
ffff80000010aa91:	75 05                	jne    ffff80000010aa98 <pagetable_init+0x1a7>
ffff80000010aa93:	e9 37 02 00 00       	jmpq   ffff80000010accf <pagetable_init+0x3de>
ffff80000010aa98:	48 c7 45 f0 00 00 00 	movq   $0x0,-0x10(%rbp)
ffff80000010aa9f:	00 
ffff80000010aaa0:	e9 f8 01 00 00       	jmpq   ffff80000010ac9d <pagetable_init+0x3ac>
ffff80000010aaa5:	48 b8 00 10 13 00 00 	movabs $0xffff800000131000,%rax
ffff80000010aaac:	80 ff ff 
ffff80000010aaaf:	48 8b 00             	mov    (%rax),%rax
ffff80000010aab2:	48 25 00 f0 ff ff    	and    $0xfffffffffffff000,%rax
ffff80000010aab8:	48 89 c1             	mov    %rax,%rcx
ffff80000010aabb:	48 8b 45 e8          	mov    -0x18(%rbp),%rax
ffff80000010aabf:	48 8b 50 08          	mov    0x8(%rax),%rdx
ffff80000010aac3:	48 b8 00 00 00 00 00 	movabs $0xffff800000000000,%rax
ffff80000010aaca:	80 ff ff 
ffff80000010aacd:	48 01 d0             	add    %rdx,%rax
ffff80000010aad0:	48 c1 e8 27          	shr    $0x27,%rax
ffff80000010aad4:	25 ff 01 00 00       	and    $0x1ff,%eax
ffff80000010aad9:	48 c1 e0 03          	shl    $0x3,%rax
ffff80000010aadd:	48 8d 14 01          	lea    (%rcx,%rax,1),%rdx
ffff80000010aae1:	48 b8 00 00 00 00 00 	movabs $0xffff800000000000,%rax
ffff80000010aae8:	80 ff ff 
ffff80000010aaeb:	48 01 d0             	add    %rdx,%rax
ffff80000010aaee:	48 89 45 e0          	mov    %rax,-0x20(%rbp)
ffff80000010aaf2:	48 8b 45 e0          	mov    -0x20(%rbp),%rax
ffff80000010aaf6:	48 8b 00             	mov    (%rax),%rax
ffff80000010aaf9:	48 85 c0             	test   %rax,%rax
ffff80000010aafc:	75 39                	jne    ffff80000010ab37 <pagetable_init+0x246>
ffff80000010aafe:	be 00 00 00 00       	mov    $0x0,%esi
ffff80000010ab03:	bf 00 10 00 00       	mov    $0x1000,%edi
ffff80000010ab08:	48 b8 04 83 10 00 00 	movabs $0xffff800000108304,%rax
ffff80000010ab0f:	80 ff ff 
ffff80000010ab12:	ff d0                	callq  *%rax
ffff80000010ab14:	48 89 45 d0          	mov    %rax,-0x30(%rbp)
ffff80000010ab18:	48 8b 55 d0          	mov    -0x30(%rbp),%rdx
ffff80000010ab1c:	48 b8 00 00 00 00 00 	movabs $0x800000000000,%rax
ffff80000010ab23:	80 00 00 
ffff80000010ab26:	48 01 d0             	add    %rdx,%rax
ffff80000010ab29:	48 83 c8 03          	or     $0x3,%rax
ffff80000010ab2d:	48 89 c2             	mov    %rax,%rdx
ffff80000010ab30:	48 8b 45 e0          	mov    -0x20(%rbp),%rax
ffff80000010ab34:	48 89 10             	mov    %rdx,(%rax)
ffff80000010ab37:	48 8b 45 e0          	mov    -0x20(%rbp),%rax
ffff80000010ab3b:	48 8b 00             	mov    (%rax),%rax
ffff80000010ab3e:	48 25 00 f0 ff ff    	and    $0xfffffffffffff000,%rax
ffff80000010ab44:	48 89 c1             	mov    %rax,%rcx
ffff80000010ab47:	48 8b 45 e8          	mov    -0x18(%rbp),%rax
ffff80000010ab4b:	48 8b 50 08          	mov    0x8(%rax),%rdx
ffff80000010ab4f:	48 b8 00 00 00 00 00 	movabs $0xffff800000000000,%rax
ffff80000010ab56:	80 ff ff 
ffff80000010ab59:	48 01 d0             	add    %rdx,%rax
ffff80000010ab5c:	48 c1 e8 1e          	shr    $0x1e,%rax
ffff80000010ab60:	25 ff 01 00 00       	and    $0x1ff,%eax
ffff80000010ab65:	48 c1 e0 03          	shl    $0x3,%rax
ffff80000010ab69:	48 8d 14 01          	lea    (%rcx,%rax,1),%rdx
ffff80000010ab6d:	48 b8 00 00 00 00 00 	movabs $0xffff800000000000,%rax
ffff80000010ab74:	80 ff ff 
ffff80000010ab77:	48 01 d0             	add    %rdx,%rax
ffff80000010ab7a:	48 89 45 e0          	mov    %rax,-0x20(%rbp)
ffff80000010ab7e:	48 8b 45 e0          	mov    -0x20(%rbp),%rax
ffff80000010ab82:	48 8b 00             	mov    (%rax),%rax
ffff80000010ab85:	48 85 c0             	test   %rax,%rax
ffff80000010ab88:	75 39                	jne    ffff80000010abc3 <pagetable_init+0x2d2>
ffff80000010ab8a:	be 00 00 00 00       	mov    $0x0,%esi
ffff80000010ab8f:	bf 00 10 00 00       	mov    $0x1000,%edi
ffff80000010ab94:	48 b8 04 83 10 00 00 	movabs $0xffff800000108304,%rax
ffff80000010ab9b:	80 ff ff 
ffff80000010ab9e:	ff d0                	callq  *%rax
ffff80000010aba0:	48 89 45 c8          	mov    %rax,-0x38(%rbp)
ffff80000010aba4:	48 8b 55 c8          	mov    -0x38(%rbp),%rdx
ffff80000010aba8:	48 b8 00 00 00 00 00 	movabs $0x800000000000,%rax
ffff80000010abaf:	80 00 00 
ffff80000010abb2:	48 01 d0             	add    %rdx,%rax
ffff80000010abb5:	48 83 c8 03          	or     $0x3,%rax
ffff80000010abb9:	48 89 c2             	mov    %rax,%rdx
ffff80000010abbc:	48 8b 45 e0          	mov    -0x20(%rbp),%rax
ffff80000010abc0:	48 89 10             	mov    %rdx,(%rax)
ffff80000010abc3:	48 8b 45 e0          	mov    -0x20(%rbp),%rax
ffff80000010abc7:	48 8b 00             	mov    (%rax),%rax
ffff80000010abca:	48 25 00 f0 ff ff    	and    $0xfffffffffffff000,%rax
ffff80000010abd0:	48 89 c1             	mov    %rax,%rcx
ffff80000010abd3:	48 8b 45 e8          	mov    -0x18(%rbp),%rax
ffff80000010abd7:	48 8b 50 08          	mov    0x8(%rax),%rdx
ffff80000010abdb:	48 b8 00 00 00 00 00 	movabs $0xffff800000000000,%rax
ffff80000010abe2:	80 ff ff 
ffff80000010abe5:	48 01 d0             	add    %rdx,%rax
ffff80000010abe8:	48 c1 e8 15          	shr    $0x15,%rax
ffff80000010abec:	25 ff 01 00 00       	and    $0x1ff,%eax
ffff80000010abf1:	48 c1 e0 03          	shl    $0x3,%rax
ffff80000010abf5:	48 8d 14 01          	lea    (%rcx,%rax,1),%rdx
ffff80000010abf9:	48 b8 00 00 00 00 00 	movabs $0xffff800000000000,%rax
ffff80000010ac00:	80 ff ff 
ffff80000010ac03:	48 01 d0             	add    %rdx,%rax
ffff80000010ac06:	48 89 45 e0          	mov    %rax,-0x20(%rbp)
ffff80000010ac0a:	48 8b 45 e8          	mov    -0x18(%rbp),%rax
ffff80000010ac0e:	48 8b 40 08          	mov    0x8(%rax),%rax
ffff80000010ac12:	0c 83                	or     $0x83,%al
ffff80000010ac14:	48 89 c2             	mov    %rax,%rdx
ffff80000010ac17:	48 8b 45 e0          	mov    -0x20(%rbp),%rax
ffff80000010ac1b:	48 89 10             	mov    %rdx,(%rax)
ffff80000010ac1e:	48 8b 4d f0          	mov    -0x10(%rbp),%rcx
ffff80000010ac22:	48 89 c8             	mov    %rcx,%rax
ffff80000010ac25:	48 d1 e8             	shr    %rax
ffff80000010ac28:	48 ba 0b d7 a3 70 3d 	movabs $0xa3d70a3d70a3d70b,%rdx
ffff80000010ac2f:	0a d7 a3 
ffff80000010ac32:	48 f7 e2             	mul    %rdx
ffff80000010ac35:	48 c1 ea 04          	shr    $0x4,%rdx
ffff80000010ac39:	48 89 d0             	mov    %rdx,%rax
ffff80000010ac3c:	48 c1 e0 02          	shl    $0x2,%rax
ffff80000010ac40:	48 01 d0             	add    %rdx,%rax
ffff80000010ac43:	48 8d 14 85 00 00 00 	lea    0x0(,%rax,4),%rdx
ffff80000010ac4a:	00 
ffff80000010ac4b:	48 01 d0             	add    %rdx,%rax
ffff80000010ac4e:	48 01 c0             	add    %rax,%rax
ffff80000010ac51:	48 29 c1             	sub    %rax,%rcx
ffff80000010ac54:	48 89 ca             	mov    %rcx,%rdx
ffff80000010ac57:	48 85 d2             	test   %rdx,%rdx
ffff80000010ac5a:	75 37                	jne    ffff80000010ac93 <pagetable_init+0x3a2>
ffff80000010ac5c:	48 8b 45 e0          	mov    -0x20(%rbp),%rax
ffff80000010ac60:	48 8b 10             	mov    (%rax),%rdx
ffff80000010ac63:	48 8b 45 e0          	mov    -0x20(%rbp),%rax
ffff80000010ac67:	49 89 d0             	mov    %rdx,%r8
ffff80000010ac6a:	48 89 c1             	mov    %rax,%rcx
ffff80000010ac6d:	48 ba f3 a7 11 00 00 	movabs $0xffff80000011a7f3,%rdx
ffff80000010ac74:	80 ff ff 
ffff80000010ac77:	be 00 00 00 00       	mov    $0x0,%esi
ffff80000010ac7c:	bf 00 ff 00 00       	mov    $0xff00,%edi
ffff80000010ac81:	b8 00 00 00 00       	mov    $0x0,%eax
ffff80000010ac86:	49 b9 d0 56 10 00 00 	movabs $0xffff8000001056d0,%r9
ffff80000010ac8d:	80 ff ff 
ffff80000010ac90:	41 ff d1             	callq  *%r9
ffff80000010ac93:	48 83 45 f0 01       	addq   $0x1,-0x10(%rbp)
ffff80000010ac98:	48 83 45 e8 28       	addq   $0x28,-0x18(%rbp)
ffff80000010ac9d:	48 8b 45 d8          	mov    -0x28(%rbp),%rax
ffff80000010aca1:	48 8b 40 08          	mov    0x8(%rax),%rax
ffff80000010aca5:	48 3b 45 f0          	cmp    -0x10(%rbp),%rax
ffff80000010aca9:	0f 87 f6 fd ff ff    	ja     ffff80000010aaa5 <pagetable_init+0x1b4>
ffff80000010acaf:	48 83 45 f8 01       	addq   $0x1,-0x8(%rbp)
ffff80000010acb4:	48 b8 e0 15 13 00 00 	movabs $0xffff8000001315e0,%rax
ffff80000010acbb:	80 ff ff 
ffff80000010acbe:	48 8b 80 c0 02 00 00 	mov    0x2c0(%rax),%rax
ffff80000010acc5:	48 3b 45 f8          	cmp    -0x8(%rbp),%rax
ffff80000010acc9:	0f 87 6b fd ff ff    	ja     ffff80000010aa3a <pagetable_init+0x149>
ffff80000010accf:	0f 20 d8             	mov    %cr3,%rax
ffff80000010acd2:	0f 22 d8             	mov    %rax,%cr3
ffff80000010acd5:	48 89 45 c0          	mov    %rax,-0x40(%rbp)
ffff80000010acd9:	c9                   	leaveq 
ffff80000010acda:	c3                   	retq   

ffff80000010acdb <register_irq>:
ffff80000010acdb:	55                   	push   %rbp
ffff80000010acdc:	48 89 e5             	mov    %rsp,%rbp
ffff80000010acdf:	48 83 ec 40          	sub    $0x40,%rsp
ffff80000010ace3:	48 89 7d e8          	mov    %rdi,-0x18(%rbp)
ffff80000010ace7:	48 89 75 e0          	mov    %rsi,-0x20(%rbp)
ffff80000010aceb:	48 89 55 d8          	mov    %rdx,-0x28(%rbp)
ffff80000010acef:	48 89 4d d0          	mov    %rcx,-0x30(%rbp)
ffff80000010acf3:	4c 89 45 c8          	mov    %r8,-0x38(%rbp)
ffff80000010acf7:	4c 89 4d c0          	mov    %r9,-0x40(%rbp)
ffff80000010acfb:	48 8b 45 e8          	mov    -0x18(%rbp),%rax
ffff80000010acff:	48 8d 50 e0          	lea    -0x20(%rax),%rdx
ffff80000010ad03:	48 89 d0             	mov    %rdx,%rax
ffff80000010ad06:	48 c1 e0 02          	shl    $0x2,%rax
ffff80000010ad0a:	48 01 d0             	add    %rdx,%rax
ffff80000010ad0d:	48 c1 e0 03          	shl    $0x3,%rax
ffff80000010ad11:	48 ba 80 10 13 00 00 	movabs $0xffff800000131080,%rdx
ffff80000010ad18:	80 ff ff 
ffff80000010ad1b:	48 01 d0             	add    %rdx,%rax
ffff80000010ad1e:	48 89 45 f8          	mov    %rax,-0x8(%rbp)
ffff80000010ad22:	48 8b 45 f8          	mov    -0x8(%rbp),%rax
ffff80000010ad26:	48 8b 55 c8          	mov    -0x38(%rbp),%rdx
ffff80000010ad2a:	48 89 10             	mov    %rdx,(%rax)
ffff80000010ad2d:	48 8b 45 f8          	mov    -0x8(%rbp),%rax
ffff80000010ad31:	48 8b 55 c0          	mov    -0x40(%rbp),%rdx
ffff80000010ad35:	48 89 50 08          	mov    %rdx,0x8(%rax)
ffff80000010ad39:	48 8b 45 f8          	mov    -0x8(%rbp),%rax
ffff80000010ad3d:	48 8b 55 d0          	mov    -0x30(%rbp),%rdx
ffff80000010ad41:	48 89 50 10          	mov    %rdx,0x10(%rax)
ffff80000010ad45:	48 8b 45 f8          	mov    -0x8(%rbp),%rax
ffff80000010ad49:	48 c7 40 20 00 00 00 	movq   $0x0,0x20(%rax)
ffff80000010ad50:	00 
ffff80000010ad51:	48 8b 45 f8          	mov    -0x8(%rbp),%rax
ffff80000010ad55:	48 8b 55 d8          	mov    -0x28(%rbp),%rdx
ffff80000010ad59:	48 89 50 18          	mov    %rdx,0x18(%rax)
ffff80000010ad5d:	48 8b 45 f8          	mov    -0x8(%rbp),%rax
ffff80000010ad61:	48 8b 00             	mov    (%rax),%rax
ffff80000010ad64:	48 8b 40 10          	mov    0x10(%rax),%rax
ffff80000010ad68:	48 8b 4d e0          	mov    -0x20(%rbp),%rcx
ffff80000010ad6c:	48 8b 55 e8          	mov    -0x18(%rbp),%rdx
ffff80000010ad70:	48 89 ce             	mov    %rcx,%rsi
ffff80000010ad73:	48 89 d7             	mov    %rdx,%rdi
ffff80000010ad76:	ff d0                	callq  *%rax
ffff80000010ad78:	48 8b 45 f8          	mov    -0x8(%rbp),%rax
ffff80000010ad7c:	48 8b 00             	mov    (%rax),%rax
ffff80000010ad7f:	48 8b 00             	mov    (%rax),%rax
ffff80000010ad82:	48 8b 55 e8          	mov    -0x18(%rbp),%rdx
ffff80000010ad86:	48 89 d7             	mov    %rdx,%rdi
ffff80000010ad89:	ff d0                	callq  *%rax
ffff80000010ad8b:	b8 01 00 00 00       	mov    $0x1,%eax
ffff80000010ad90:	c9                   	leaveq 
ffff80000010ad91:	c3                   	retq   

ffff80000010ad92 <unregister_irq>:
ffff80000010ad92:	55                   	push   %rbp
ffff80000010ad93:	48 89 e5             	mov    %rsp,%rbp
ffff80000010ad96:	48 83 ec 20          	sub    $0x20,%rsp
ffff80000010ad9a:	48 89 7d e8          	mov    %rdi,-0x18(%rbp)
ffff80000010ad9e:	48 8b 45 e8          	mov    -0x18(%rbp),%rax
ffff80000010ada2:	48 8d 50 e0          	lea    -0x20(%rax),%rdx
ffff80000010ada6:	48 89 d0             	mov    %rdx,%rax
ffff80000010ada9:	48 c1 e0 02          	shl    $0x2,%rax
ffff80000010adad:	48 01 d0             	add    %rdx,%rax
ffff80000010adb0:	48 c1 e0 03          	shl    $0x3,%rax
ffff80000010adb4:	48 ba 80 10 13 00 00 	movabs $0xffff800000131080,%rdx
ffff80000010adbb:	80 ff ff 
ffff80000010adbe:	48 01 d0             	add    %rdx,%rax
ffff80000010adc1:	48 89 45 f8          	mov    %rax,-0x8(%rbp)
ffff80000010adc5:	48 8b 45 f8          	mov    -0x8(%rbp),%rax
ffff80000010adc9:	48 8b 00             	mov    (%rax),%rax
ffff80000010adcc:	48 8b 40 08          	mov    0x8(%rax),%rax
ffff80000010add0:	48 8b 55 e8          	mov    -0x18(%rbp),%rdx
ffff80000010add4:	48 89 d7             	mov    %rdx,%rdi
ffff80000010add7:	ff d0                	callq  *%rax
ffff80000010add9:	48 8b 45 f8          	mov    -0x8(%rbp),%rax
ffff80000010addd:	48 8b 00             	mov    (%rax),%rax
ffff80000010ade0:	48 8b 40 18          	mov    0x18(%rax),%rax
ffff80000010ade4:	48 8b 55 e8          	mov    -0x18(%rbp),%rdx
ffff80000010ade8:	48 89 d7             	mov    %rdx,%rdi
ffff80000010adeb:	ff d0                	callq  *%rax
ffff80000010aded:	48 8b 45 f8          	mov    -0x8(%rbp),%rax
ffff80000010adf1:	48 c7 00 00 00 00 00 	movq   $0x0,(%rax)
ffff80000010adf8:	48 8b 45 f8          	mov    -0x8(%rbp),%rax
ffff80000010adfc:	48 c7 40 08 00 00 00 	movq   $0x0,0x8(%rax)
ffff80000010ae03:	00 
ffff80000010ae04:	48 8b 45 f8          	mov    -0x8(%rbp),%rax
ffff80000010ae08:	48 c7 40 10 00 00 00 	movq   $0x0,0x10(%rax)
ffff80000010ae0f:	00 
ffff80000010ae10:	48 8b 45 f8          	mov    -0x8(%rbp),%rax
ffff80000010ae14:	48 c7 40 20 00 00 00 	movq   $0x0,0x20(%rax)
ffff80000010ae1b:	00 
ffff80000010ae1c:	48 8b 45 f8          	mov    -0x8(%rbp),%rax
ffff80000010ae20:	48 c7 40 18 00 00 00 	movq   $0x0,0x18(%rax)
ffff80000010ae27:	00 
ffff80000010ae28:	b8 01 00 00 00       	mov    $0x1,%eax
ffff80000010ae2d:	c9                   	leaveq 
ffff80000010ae2e:	c3                   	retq   

ffff80000010ae2f <register_IPI>:
ffff80000010ae2f:	55                   	push   %rbp
ffff80000010ae30:	48 89 e5             	mov    %rsp,%rbp
ffff80000010ae33:	48 89 7d e8          	mov    %rdi,-0x18(%rbp)
ffff80000010ae37:	48 89 75 e0          	mov    %rsi,-0x20(%rbp)
ffff80000010ae3b:	48 89 55 d8          	mov    %rdx,-0x28(%rbp)
ffff80000010ae3f:	48 89 4d d0          	mov    %rcx,-0x30(%rbp)
ffff80000010ae43:	4c 89 45 c8          	mov    %r8,-0x38(%rbp)
ffff80000010ae47:	4c 89 4d c0          	mov    %r9,-0x40(%rbp)
ffff80000010ae4b:	48 8b 45 e8          	mov    -0x18(%rbp),%rax
ffff80000010ae4f:	48 8d 90 38 ff ff ff 	lea    -0xc8(%rax),%rdx
ffff80000010ae56:	48 89 d0             	mov    %rdx,%rax
ffff80000010ae59:	48 c1 e0 02          	shl    $0x2,%rax
ffff80000010ae5d:	48 01 d0             	add    %rdx,%rax
ffff80000010ae60:	48 c1 e0 03          	shl    $0x3,%rax
ffff80000010ae64:	48 ba 40 14 13 00 00 	movabs $0xffff800000131440,%rdx
ffff80000010ae6b:	80 ff ff 
ffff80000010ae6e:	48 01 d0             	add    %rdx,%rax
ffff80000010ae71:	48 89 45 f8          	mov    %rax,-0x8(%rbp)
ffff80000010ae75:	48 8b 45 f8          	mov    -0x8(%rbp),%rax
ffff80000010ae79:	48 c7 00 00 00 00 00 	movq   $0x0,(%rax)
ffff80000010ae80:	48 8b 45 f8          	mov    -0x8(%rbp),%rax
ffff80000010ae84:	48 8b 55 c0          	mov    -0x40(%rbp),%rdx
ffff80000010ae88:	48 89 50 08          	mov    %rdx,0x8(%rax)
ffff80000010ae8c:	48 8b 45 f8          	mov    -0x8(%rbp),%rax
ffff80000010ae90:	48 8b 55 d0          	mov    -0x30(%rbp),%rdx
ffff80000010ae94:	48 89 50 10          	mov    %rdx,0x10(%rax)
ffff80000010ae98:	48 8b 45 f8          	mov    -0x8(%rbp),%rax
ffff80000010ae9c:	48 c7 40 20 00 00 00 	movq   $0x0,0x20(%rax)
ffff80000010aea3:	00 
ffff80000010aea4:	48 8b 45 f8          	mov    -0x8(%rbp),%rax
ffff80000010aea8:	48 8b 55 d8          	mov    -0x28(%rbp),%rdx
ffff80000010aeac:	48 89 50 18          	mov    %rdx,0x18(%rax)
ffff80000010aeb0:	b8 01 00 00 00       	mov    $0x1,%eax
ffff80000010aeb5:	5d                   	pop    %rbp
ffff80000010aeb6:	c3                   	retq   

ffff80000010aeb7 <unregister_IPI>:
ffff80000010aeb7:	55                   	push   %rbp
ffff80000010aeb8:	48 89 e5             	mov    %rsp,%rbp
ffff80000010aebb:	48 89 7d e8          	mov    %rdi,-0x18(%rbp)
ffff80000010aebf:	48 8b 45 e8          	mov    -0x18(%rbp),%rax
ffff80000010aec3:	48 8d 90 38 ff ff ff 	lea    -0xc8(%rax),%rdx
ffff80000010aeca:	48 89 d0             	mov    %rdx,%rax
ffff80000010aecd:	48 c1 e0 02          	shl    $0x2,%rax
ffff80000010aed1:	48 01 d0             	add    %rdx,%rax
ffff80000010aed4:	48 c1 e0 03          	shl    $0x3,%rax
ffff80000010aed8:	48 ba 40 14 13 00 00 	movabs $0xffff800000131440,%rdx
ffff80000010aedf:	80 ff ff 
ffff80000010aee2:	48 01 d0             	add    %rdx,%rax
ffff80000010aee5:	48 89 45 f8          	mov    %rax,-0x8(%rbp)
ffff80000010aee9:	48 8b 45 f8          	mov    -0x8(%rbp),%rax
ffff80000010aeed:	48 c7 00 00 00 00 00 	movq   $0x0,(%rax)
ffff80000010aef4:	48 8b 45 f8          	mov    -0x8(%rbp),%rax
ffff80000010aef8:	48 c7 40 08 00 00 00 	movq   $0x0,0x8(%rax)
ffff80000010aeff:	00 
ffff80000010af00:	48 8b 45 f8          	mov    -0x8(%rbp),%rax
ffff80000010af04:	48 c7 40 10 00 00 00 	movq   $0x0,0x10(%rax)
ffff80000010af0b:	00 
ffff80000010af0c:	48 8b 45 f8          	mov    -0x8(%rbp),%rax
ffff80000010af10:	48 c7 40 20 00 00 00 	movq   $0x0,0x20(%rax)
ffff80000010af17:	00 
ffff80000010af18:	48 8b 45 f8          	mov    -0x8(%rbp),%rax
ffff80000010af1c:	48 c7 40 18 00 00 00 	movq   $0x0,0x18(%rax)
ffff80000010af23:	00 
ffff80000010af24:	b8 01 00 00 00       	mov    $0x1,%eax
ffff80000010af29:	5d                   	pop    %rbp
ffff80000010af2a:	c3                   	retq   

ffff80000010af2b <memset>:
ffff80000010af2b:	55                   	push   %rbp
ffff80000010af2c:	48 89 e5             	mov    %rsp,%rbp
ffff80000010af2f:	48 89 7d e8          	mov    %rdi,-0x18(%rbp)
ffff80000010af33:	89 f0                	mov    %esi,%eax
ffff80000010af35:	48 89 55 d8          	mov    %rdx,-0x28(%rbp)
ffff80000010af39:	88 45 e4             	mov    %al,-0x1c(%rbp)
ffff80000010af3c:	0f b6 55 e4          	movzbl -0x1c(%rbp),%edx
ffff80000010af40:	48 b8 01 01 01 01 01 	movabs $0x101010101010101,%rax
ffff80000010af47:	01 01 01 
ffff80000010af4a:	48 0f af c2          	imul   %rdx,%rax
ffff80000010af4e:	48 89 45 f8          	mov    %rax,-0x8(%rbp)
ffff80000010af52:	48 8b 45 d8          	mov    -0x28(%rbp),%rax
ffff80000010af56:	48 8d 50 07          	lea    0x7(%rax),%rdx
ffff80000010af5a:	48 85 c0             	test   %rax,%rax
ffff80000010af5d:	48 0f 48 c2          	cmovs  %rdx,%rax
ffff80000010af61:	48 c1 f8 03          	sar    $0x3,%rax
ffff80000010af65:	48 89 c2             	mov    %rax,%rdx
ffff80000010af68:	48 8b 45 f8          	mov    -0x8(%rbp),%rax
ffff80000010af6c:	48 8b 75 d8          	mov    -0x28(%rbp),%rsi
ffff80000010af70:	48 8b 7d e8          	mov    -0x18(%rbp),%rdi
ffff80000010af74:	48 89 d1             	mov    %rdx,%rcx
ffff80000010af77:	fc                   	cld    
ffff80000010af78:	f3 48 ab             	rep stos %rax,%es:(%rdi)
ffff80000010af7b:	40 f6 c6 04          	test   $0x4,%sil
ffff80000010af7f:	74 01                	je     ffff80000010af82 <memset+0x57>
ffff80000010af81:	ab                   	stos   %eax,%es:(%rdi)
ffff80000010af82:	40 f6 c6 02          	test   $0x2,%sil
ffff80000010af86:	74 02                	je     ffff80000010af8a <memset+0x5f>
ffff80000010af88:	66 ab                	stos   %ax,%es:(%rdi)
ffff80000010af8a:	40 f6 c6 01          	test   $0x1,%sil
ffff80000010af8e:	74 01                	je     ffff80000010af91 <memset+0x66>
ffff80000010af90:	aa                   	stos   %al,%es:(%rdi)
ffff80000010af91:	89 f8                	mov    %edi,%eax
ffff80000010af93:	89 ca                	mov    %ecx,%edx
ffff80000010af95:	89 55 f4             	mov    %edx,-0xc(%rbp)
ffff80000010af98:	89 45 f0             	mov    %eax,-0x10(%rbp)
ffff80000010af9b:	48 8b 45 e8          	mov    -0x18(%rbp),%rax
ffff80000010af9f:	5d                   	pop    %rbp
ffff80000010afa0:	c3                   	retq   

ffff80000010afa1 <io_in8>:
ffff80000010afa1:	55                   	push   %rbp
ffff80000010afa2:	48 89 e5             	mov    %rsp,%rbp
ffff80000010afa5:	89 f8                	mov    %edi,%eax
ffff80000010afa7:	66 89 45 ec          	mov    %ax,-0x14(%rbp)
ffff80000010afab:	c6 45 ff 00          	movb   $0x0,-0x1(%rbp)
ffff80000010afaf:	0f b7 45 ec          	movzwl -0x14(%rbp),%eax
ffff80000010afb3:	89 c2                	mov    %eax,%edx
ffff80000010afb5:	ec                   	in     (%dx),%al
ffff80000010afb6:	0f ae f0             	mfence 
ffff80000010afb9:	88 45 ff             	mov    %al,-0x1(%rbp)
ffff80000010afbc:	0f b6 45 ff          	movzbl -0x1(%rbp),%eax
ffff80000010afc0:	5d                   	pop    %rbp
ffff80000010afc1:	c3                   	retq   

ffff80000010afc2 <io_in32>:
ffff80000010afc2:	55                   	push   %rbp
ffff80000010afc3:	48 89 e5             	mov    %rsp,%rbp
ffff80000010afc6:	89 f8                	mov    %edi,%eax
ffff80000010afc8:	66 89 45 ec          	mov    %ax,-0x14(%rbp)
ffff80000010afcc:	c7 45 fc 00 00 00 00 	movl   $0x0,-0x4(%rbp)
ffff80000010afd3:	0f b7 45 ec          	movzwl -0x14(%rbp),%eax
ffff80000010afd7:	89 c2                	mov    %eax,%edx
ffff80000010afd9:	ed                   	in     (%dx),%eax
ffff80000010afda:	0f ae f0             	mfence 
ffff80000010afdd:	89 45 fc             	mov    %eax,-0x4(%rbp)
ffff80000010afe0:	8b 45 fc             	mov    -0x4(%rbp),%eax
ffff80000010afe3:	5d                   	pop    %rbp
ffff80000010afe4:	c3                   	retq   

ffff80000010afe5 <io_out8>:
ffff80000010afe5:	55                   	push   %rbp
ffff80000010afe6:	48 89 e5             	mov    %rsp,%rbp
ffff80000010afe9:	89 fa                	mov    %edi,%edx
ffff80000010afeb:	89 f0                	mov    %esi,%eax
ffff80000010afed:	66 89 55 fc          	mov    %dx,-0x4(%rbp)
ffff80000010aff1:	88 45 f8             	mov    %al,-0x8(%rbp)
ffff80000010aff4:	0f b6 45 f8          	movzbl -0x8(%rbp),%eax
ffff80000010aff8:	0f b7 55 fc          	movzwl -0x4(%rbp),%edx
ffff80000010affc:	ee                   	out    %al,(%dx)
ffff80000010affd:	0f ae f0             	mfence 
ffff80000010b000:	5d                   	pop    %rbp
ffff80000010b001:	c3                   	retq   

ffff80000010b002 <io_out32>:
ffff80000010b002:	55                   	push   %rbp
ffff80000010b003:	48 89 e5             	mov    %rsp,%rbp
ffff80000010b006:	89 f8                	mov    %edi,%eax
ffff80000010b008:	89 75 f8             	mov    %esi,-0x8(%rbp)
ffff80000010b00b:	66 89 45 fc          	mov    %ax,-0x4(%rbp)
ffff80000010b00f:	8b 45 f8             	mov    -0x8(%rbp),%eax
ffff80000010b012:	0f b7 55 fc          	movzwl -0x4(%rbp),%edx
ffff80000010b016:	ef                   	out    %eax,(%dx)
ffff80000010b017:	0f ae f0             	mfence 
ffff80000010b01a:	5d                   	pop    %rbp
ffff80000010b01b:	c3                   	retq   
ffff80000010b01c:	55                   	push   %rbp
ffff80000010b01d:	48 89 e5             	mov    %rsp,%rbp
ffff80000010b020:	0f 20 d8             	mov    %cr3,%rax
ffff80000010b023:	48 89 45 f8          	mov    %rax,-0x8(%rbp)
ffff80000010b027:	48 8b 45 f8          	mov    -0x8(%rbp),%rax
ffff80000010b02b:	5d                   	pop    %rbp
ffff80000010b02c:	c3                   	retq   

ffff80000010b02d <set_intr_gate>:
ffff80000010b02d:	55                   	push   %rbp
ffff80000010b02e:	48 89 e5             	mov    %rsp,%rbp
ffff80000010b031:	89 7d ec             	mov    %edi,-0x14(%rbp)
ffff80000010b034:	89 f0                	mov    %esi,%eax
ffff80000010b036:	48 89 55 e0          	mov    %rdx,-0x20(%rbp)
ffff80000010b03a:	88 45 e8             	mov    %al,-0x18(%rbp)
ffff80000010b03d:	8b 45 ec             	mov    -0x14(%rbp),%eax
ffff80000010b040:	48 c1 e0 04          	shl    $0x4,%rax
ffff80000010b044:	48 89 c2             	mov    %rax,%rdx
ffff80000010b047:	48 b8 82 db 10 00 00 	movabs $0xffff80000010db82,%rax
ffff80000010b04e:	80 ff ff 
ffff80000010b051:	48 8d 34 02          	lea    (%rdx,%rax,1),%rsi
ffff80000010b055:	8b 45 ec             	mov    -0x14(%rbp),%eax
ffff80000010b058:	48 c1 e0 04          	shl    $0x4,%rax
ffff80000010b05c:	48 8d 50 08          	lea    0x8(%rax),%rdx
ffff80000010b060:	48 b8 82 db 10 00 00 	movabs $0xffff80000010db82,%rax
ffff80000010b067:	80 ff ff 
ffff80000010b06a:	48 8d 3c 02          	lea    (%rdx,%rax,1),%rdi
ffff80000010b06e:	48 8b 55 e0          	mov    -0x20(%rbp),%rdx
ffff80000010b072:	b8 00 00 08 00       	mov    $0x80000,%eax
ffff80000010b077:	0f b6 4d e8          	movzbl -0x18(%rbp),%ecx
ffff80000010b07b:	66 89 d0             	mov    %dx,%ax
ffff80000010b07e:	48 83 e1 07          	and    $0x7,%rcx
ffff80000010b082:	48 81 c1 00 8e 00 00 	add    $0x8e00,%rcx
ffff80000010b089:	48 c1 e1 20          	shl    $0x20,%rcx
ffff80000010b08d:	48 01 c8             	add    %rcx,%rax
ffff80000010b090:	48 31 c9             	xor    %rcx,%rcx
ffff80000010b093:	89 d1                	mov    %edx,%ecx
ffff80000010b095:	48 c1 e9 10          	shr    $0x10,%rcx
ffff80000010b099:	48 c1 e1 30          	shl    $0x30,%rcx
ffff80000010b09d:	48 01 c8             	add    %rcx,%rax
ffff80000010b0a0:	48 89 06             	mov    %rax,(%rsi)
ffff80000010b0a3:	48 c1 ea 20          	shr    $0x20,%rdx
ffff80000010b0a7:	48 89 17             	mov    %rdx,(%rdi)
ffff80000010b0aa:	48 89 45 f8          	mov    %rax,-0x8(%rbp)
ffff80000010b0ae:	48 89 55 f0          	mov    %rdx,-0x10(%rbp)
ffff80000010b0b2:	5d                   	pop    %rbp
ffff80000010b0b3:	c3                   	retq   
ffff80000010b0b4:	55                   	push   %rbp
ffff80000010b0b5:	48 89 e5             	mov    %rsp,%rbp
ffff80000010b0b8:	48 89 7d f8          	mov    %rdi,-0x8(%rbp)
ffff80000010b0bc:	48 89 75 f0          	mov    %rsi,-0x10(%rbp)
ffff80000010b0c0:	48 89 55 e8          	mov    %rdx,-0x18(%rbp)
ffff80000010b0c4:	48 89 4d e0          	mov    %rcx,-0x20(%rbp)
ffff80000010b0c8:	4c 89 45 d8          	mov    %r8,-0x28(%rbp)
ffff80000010b0cc:	4c 89 4d d0          	mov    %r9,-0x30(%rbp)
ffff80000010b0d0:	48 b8 90 eb 10 00 00 	movabs $0xffff80000010eb90,%rax
ffff80000010b0d7:	80 ff ff 
ffff80000010b0da:	48 8b 55 f8          	mov    -0x8(%rbp),%rdx
ffff80000010b0de:	48 89 10             	mov    %rdx,(%rax)
ffff80000010b0e1:	48 b8 98 eb 10 00 00 	movabs $0xffff80000010eb98,%rax
ffff80000010b0e8:	80 ff ff 
ffff80000010b0eb:	48 8b 55 f0          	mov    -0x10(%rbp),%rdx
ffff80000010b0ef:	48 89 10             	mov    %rdx,(%rax)
ffff80000010b0f2:	48 b8 a0 eb 10 00 00 	movabs $0xffff80000010eba0,%rax
ffff80000010b0f9:	80 ff ff 
ffff80000010b0fc:	48 8b 55 e8          	mov    -0x18(%rbp),%rdx
ffff80000010b100:	48 89 10             	mov    %rdx,(%rax)
ffff80000010b103:	48 b8 b0 eb 10 00 00 	movabs $0xffff80000010ebb0,%rax
ffff80000010b10a:	80 ff ff 
ffff80000010b10d:	48 8b 55 e0          	mov    -0x20(%rbp),%rdx
ffff80000010b111:	48 89 10             	mov    %rdx,(%rax)
ffff80000010b114:	48 b8 b8 eb 10 00 00 	movabs $0xffff80000010ebb8,%rax
ffff80000010b11b:	80 ff ff 
ffff80000010b11e:	48 8b 55 d8          	mov    -0x28(%rbp),%rdx
ffff80000010b122:	48 89 10             	mov    %rdx,(%rax)
ffff80000010b125:	48 b8 c0 eb 10 00 00 	movabs $0xffff80000010ebc0,%rax
ffff80000010b12c:	80 ff ff 
ffff80000010b12f:	48 8b 55 d0          	mov    -0x30(%rbp),%rdx
ffff80000010b133:	48 89 10             	mov    %rdx,(%rax)
ffff80000010b136:	48 b8 c8 eb 10 00 00 	movabs $0xffff80000010ebc8,%rax
ffff80000010b13d:	80 ff ff 
ffff80000010b140:	48 8b 55 10          	mov    0x10(%rbp),%rdx
ffff80000010b144:	48 89 10             	mov    %rdx,(%rax)
ffff80000010b147:	48 b8 d0 eb 10 00 00 	movabs $0xffff80000010ebd0,%rax
ffff80000010b14e:	80 ff ff 
ffff80000010b151:	48 8b 55 18          	mov    0x18(%rbp),%rdx
ffff80000010b155:	48 89 10             	mov    %rdx,(%rax)
ffff80000010b158:	48 b8 d8 eb 10 00 00 	movabs $0xffff80000010ebd8,%rax
ffff80000010b15f:	80 ff ff 
ffff80000010b162:	48 8b 55 20          	mov    0x20(%rbp),%rdx
ffff80000010b166:	48 89 10             	mov    %rdx,(%rax)
ffff80000010b169:	48 b8 e0 eb 10 00 00 	movabs $0xffff80000010ebe0,%rax
ffff80000010b170:	80 ff ff 
ffff80000010b173:	48 8b 55 28          	mov    0x28(%rbp),%rdx
ffff80000010b177:	48 89 10             	mov    %rdx,(%rax)
ffff80000010b17a:	5d                   	pop    %rbp
ffff80000010b17b:	c3                   	retq   
ffff80000010b17c:	55                   	push   %rbp
ffff80000010b17d:	48 89 e5             	mov    %rsp,%rbp
ffff80000010b180:	53                   	push   %rbx
ffff80000010b181:	89 7d f4             	mov    %edi,-0xc(%rbp)
ffff80000010b184:	89 75 f0             	mov    %esi,-0x10(%rbp)
ffff80000010b187:	48 89 55 e8          	mov    %rdx,-0x18(%rbp)
ffff80000010b18b:	48 89 4d e0          	mov    %rcx,-0x20(%rbp)
ffff80000010b18f:	4c 89 45 d8          	mov    %r8,-0x28(%rbp)
ffff80000010b193:	4c 89 4d d0          	mov    %r9,-0x30(%rbp)
ffff80000010b197:	8b 45 f4             	mov    -0xc(%rbp),%eax
ffff80000010b19a:	8b 55 f0             	mov    -0x10(%rbp),%edx
ffff80000010b19d:	89 d1                	mov    %edx,%ecx
ffff80000010b19f:	0f a2                	cpuid  
ffff80000010b1a1:	89 de                	mov    %ebx,%esi
ffff80000010b1a3:	48 8b 7d e8          	mov    -0x18(%rbp),%rdi
ffff80000010b1a7:	89 07                	mov    %eax,(%rdi)
ffff80000010b1a9:	48 8b 45 e0          	mov    -0x20(%rbp),%rax
ffff80000010b1ad:	89 30                	mov    %esi,(%rax)
ffff80000010b1af:	48 8b 45 d8          	mov    -0x28(%rbp),%rax
ffff80000010b1b3:	89 08                	mov    %ecx,(%rax)
ffff80000010b1b5:	48 8b 45 d0          	mov    -0x30(%rbp),%rax
ffff80000010b1b9:	89 10                	mov    %edx,(%rax)
ffff80000010b1bb:	5b                   	pop    %rbx
ffff80000010b1bc:	5d                   	pop    %rbp
ffff80000010b1bd:	c3                   	retq   

ffff80000010b1be <IOAPIC_enable>:
ffff80000010b1be:	55                   	push   %rbp
ffff80000010b1bf:	48 89 e5             	mov    %rsp,%rbp
ffff80000010b1c2:	48 83 ec 20          	sub    $0x20,%rsp
ffff80000010b1c6:	48 89 7d e8          	mov    %rdi,-0x18(%rbp)
ffff80000010b1ca:	48 c7 45 f8 00 00 00 	movq   $0x0,-0x8(%rbp)
ffff80000010b1d1:	00 
ffff80000010b1d2:	48 8b 45 e8          	mov    -0x18(%rbp),%rax
ffff80000010b1d6:	83 c0 68             	add    $0x68,%eax
ffff80000010b1d9:	01 c0                	add    %eax,%eax
ffff80000010b1db:	0f b6 c0             	movzbl %al,%eax
ffff80000010b1de:	89 c7                	mov    %eax,%edi
ffff80000010b1e0:	48 b8 5f b3 10 00 00 	movabs $0xffff80000010b35f,%rax
ffff80000010b1e7:	80 ff ff 
ffff80000010b1ea:	ff d0                	callq  *%rax
ffff80000010b1ec:	48 89 45 f8          	mov    %rax,-0x8(%rbp)
ffff80000010b1f0:	48 81 65 f8 ff ff fe 	andq   $0xfffffffffffeffff,-0x8(%rbp)
ffff80000010b1f7:	ff 
ffff80000010b1f8:	48 8b 45 e8          	mov    -0x18(%rbp),%rax
ffff80000010b1fc:	83 c0 68             	add    $0x68,%eax
ffff80000010b1ff:	01 c0                	add    %eax,%eax
ffff80000010b201:	0f b6 c0             	movzbl %al,%eax
ffff80000010b204:	48 8b 55 f8          	mov    -0x8(%rbp),%rdx
ffff80000010b208:	48 89 d6             	mov    %rdx,%rsi
ffff80000010b20b:	89 c7                	mov    %eax,%edi
ffff80000010b20d:	48 b8 d6 b3 10 00 00 	movabs $0xffff80000010b3d6,%rax
ffff80000010b214:	80 ff ff 
ffff80000010b217:	ff d0                	callq  *%rax
ffff80000010b219:	c9                   	leaveq 
ffff80000010b21a:	c3                   	retq   

ffff80000010b21b <IOAPIC_disable>:
ffff80000010b21b:	55                   	push   %rbp
ffff80000010b21c:	48 89 e5             	mov    %rsp,%rbp
ffff80000010b21f:	48 83 ec 20          	sub    $0x20,%rsp
ffff80000010b223:	48 89 7d e8          	mov    %rdi,-0x18(%rbp)
ffff80000010b227:	48 c7 45 f8 00 00 00 	movq   $0x0,-0x8(%rbp)
ffff80000010b22e:	00 
ffff80000010b22f:	48 8b 45 e8          	mov    -0x18(%rbp),%rax
ffff80000010b233:	83 c0 68             	add    $0x68,%eax
ffff80000010b236:	01 c0                	add    %eax,%eax
ffff80000010b238:	0f b6 c0             	movzbl %al,%eax
ffff80000010b23b:	89 c7                	mov    %eax,%edi
ffff80000010b23d:	48 b8 5f b3 10 00 00 	movabs $0xffff80000010b35f,%rax
ffff80000010b244:	80 ff ff 
ffff80000010b247:	ff d0                	callq  *%rax
ffff80000010b249:	48 89 45 f8          	mov    %rax,-0x8(%rbp)
ffff80000010b24d:	48 81 4d f8 00 00 01 	orq    $0x10000,-0x8(%rbp)
ffff80000010b254:	00 
ffff80000010b255:	48 8b 45 e8          	mov    -0x18(%rbp),%rax
ffff80000010b259:	83 c0 68             	add    $0x68,%eax
ffff80000010b25c:	01 c0                	add    %eax,%eax
ffff80000010b25e:	0f b6 c0             	movzbl %al,%eax
ffff80000010b261:	48 8b 55 f8          	mov    -0x8(%rbp),%rdx
ffff80000010b265:	48 89 d6             	mov    %rdx,%rsi
ffff80000010b268:	89 c7                	mov    %eax,%edi
ffff80000010b26a:	48 b8 d6 b3 10 00 00 	movabs $0xffff80000010b3d6,%rax
ffff80000010b271:	80 ff ff 
ffff80000010b274:	ff d0                	callq  *%rax
ffff80000010b276:	c9                   	leaveq 
ffff80000010b277:	c3                   	retq   

ffff80000010b278 <IOAPIC_install>:
ffff80000010b278:	55                   	push   %rbp
ffff80000010b279:	48 89 e5             	mov    %rsp,%rbp
ffff80000010b27c:	48 83 ec 20          	sub    $0x20,%rsp
ffff80000010b280:	48 89 7d e8          	mov    %rdi,-0x18(%rbp)
ffff80000010b284:	48 89 75 e0          	mov    %rsi,-0x20(%rbp)
ffff80000010b288:	48 8b 45 e0          	mov    -0x20(%rbp),%rax
ffff80000010b28c:	48 89 45 f8          	mov    %rax,-0x8(%rbp)
ffff80000010b290:	48 8b 45 f8          	mov    -0x8(%rbp),%rax
ffff80000010b294:	48 8b 10             	mov    (%rax),%rdx
ffff80000010b297:	48 8b 45 e8          	mov    -0x18(%rbp),%rax
ffff80000010b29b:	83 c0 68             	add    $0x68,%eax
ffff80000010b29e:	01 c0                	add    %eax,%eax
ffff80000010b2a0:	0f b6 c0             	movzbl %al,%eax
ffff80000010b2a3:	48 89 d6             	mov    %rdx,%rsi
ffff80000010b2a6:	89 c7                	mov    %eax,%edi
ffff80000010b2a8:	48 b8 d6 b3 10 00 00 	movabs $0xffff80000010b3d6,%rax
ffff80000010b2af:	80 ff ff 
ffff80000010b2b2:	ff d0                	callq  *%rax
ffff80000010b2b4:	b8 01 00 00 00       	mov    $0x1,%eax
ffff80000010b2b9:	c9                   	leaveq 
ffff80000010b2ba:	c3                   	retq   

ffff80000010b2bb <IOAPIC_uninstall>:
ffff80000010b2bb:	55                   	push   %rbp
ffff80000010b2bc:	48 89 e5             	mov    %rsp,%rbp
ffff80000010b2bf:	48 83 ec 10          	sub    $0x10,%rsp
ffff80000010b2c3:	48 89 7d f8          	mov    %rdi,-0x8(%rbp)
ffff80000010b2c7:	48 8b 45 f8          	mov    -0x8(%rbp),%rax
ffff80000010b2cb:	83 c0 68             	add    $0x68,%eax
ffff80000010b2ce:	01 c0                	add    %eax,%eax
ffff80000010b2d0:	0f b6 c0             	movzbl %al,%eax
ffff80000010b2d3:	be 00 00 01 00       	mov    $0x10000,%esi
ffff80000010b2d8:	89 c7                	mov    %eax,%edi
ffff80000010b2da:	48 b8 d6 b3 10 00 00 	movabs $0xffff80000010b3d6,%rax
ffff80000010b2e1:	80 ff ff 
ffff80000010b2e4:	ff d0                	callq  *%rax
ffff80000010b2e6:	c9                   	leaveq 
ffff80000010b2e7:	c3                   	retq   

ffff80000010b2e8 <IOAPIC_level_ack>:
ffff80000010b2e8:	55                   	push   %rbp
ffff80000010b2e9:	48 89 e5             	mov    %rsp,%rbp
ffff80000010b2ec:	48 89 7d f8          	mov    %rdi,-0x8(%rbp)
ffff80000010b2f0:	48 c7 c2 00 00 00 00 	mov    $0x0,%rdx
ffff80000010b2f7:	48 c7 c0 00 00 00 00 	mov    $0x0,%rax
ffff80000010b2fe:	48 c7 c1 0b 08 00 00 	mov    $0x80b,%rcx
ffff80000010b305:	0f 30                	wrmsr  
ffff80000010b307:	48 b8 20 a4 13 00 00 	movabs $0xffff80000013a420,%rax
ffff80000010b30e:	80 ff ff 
ffff80000010b311:	48 8b 40 18          	mov    0x18(%rax),%rax
ffff80000010b315:	48 8b 55 f8          	mov    -0x8(%rbp),%rdx
ffff80000010b319:	89 10                	mov    %edx,(%rax)
ffff80000010b31b:	5d                   	pop    %rbp
ffff80000010b31c:	c3                   	retq   

ffff80000010b31d <IOAPIC_edge_ack>:
ffff80000010b31d:	55                   	push   %rbp
ffff80000010b31e:	48 89 e5             	mov    %rsp,%rbp
ffff80000010b321:	48 89 7d f8          	mov    %rdi,-0x8(%rbp)
ffff80000010b325:	48 c7 c2 00 00 00 00 	mov    $0x0,%rdx
ffff80000010b32c:	48 c7 c0 00 00 00 00 	mov    $0x0,%rax
ffff80000010b333:	48 c7 c1 0b 08 00 00 	mov    $0x80b,%rcx
ffff80000010b33a:	0f 30                	wrmsr  
ffff80000010b33c:	5d                   	pop    %rbp
ffff80000010b33d:	c3                   	retq   

ffff80000010b33e <Local_APIC_edge_level_ack>:
ffff80000010b33e:	55                   	push   %rbp
ffff80000010b33f:	48 89 e5             	mov    %rsp,%rbp
ffff80000010b342:	48 89 7d f8          	mov    %rdi,-0x8(%rbp)
ffff80000010b346:	48 c7 c2 00 00 00 00 	mov    $0x0,%rdx
ffff80000010b34d:	48 c7 c0 00 00 00 00 	mov    $0x0,%rax
ffff80000010b354:	48 c7 c1 0b 08 00 00 	mov    $0x80b,%rcx
ffff80000010b35b:	0f 30                	wrmsr  
ffff80000010b35d:	5d                   	pop    %rbp
ffff80000010b35e:	c3                   	retq   

ffff80000010b35f <ioapic_rte_read>:
ffff80000010b35f:	55                   	push   %rbp
ffff80000010b360:	48 89 e5             	mov    %rsp,%rbp
ffff80000010b363:	89 f8                	mov    %edi,%eax
ffff80000010b365:	88 45 ec             	mov    %al,-0x14(%rbp)
ffff80000010b368:	48 b8 20 a4 13 00 00 	movabs $0xffff80000013a420,%rax
ffff80000010b36f:	80 ff ff 
ffff80000010b372:	48 8b 40 08          	mov    0x8(%rax),%rax
ffff80000010b376:	0f b6 55 ec          	movzbl -0x14(%rbp),%edx
ffff80000010b37a:	83 c2 01             	add    $0x1,%edx
ffff80000010b37d:	88 10                	mov    %dl,(%rax)
ffff80000010b37f:	0f ae f0             	mfence 
ffff80000010b382:	48 b8 20 a4 13 00 00 	movabs $0xffff80000013a420,%rax
ffff80000010b389:	80 ff ff 
ffff80000010b38c:	48 8b 40 10          	mov    0x10(%rax),%rax
ffff80000010b390:	8b 00                	mov    (%rax),%eax
ffff80000010b392:	89 c0                	mov    %eax,%eax
ffff80000010b394:	48 89 45 f8          	mov    %rax,-0x8(%rbp)
ffff80000010b398:	48 c1 65 f8 20       	shlq   $0x20,-0x8(%rbp)
ffff80000010b39d:	0f ae f0             	mfence 
ffff80000010b3a0:	48 b8 20 a4 13 00 00 	movabs $0xffff80000013a420,%rax
ffff80000010b3a7:	80 ff ff 
ffff80000010b3aa:	48 8b 40 08          	mov    0x8(%rax),%rax
ffff80000010b3ae:	0f b6 55 ec          	movzbl -0x14(%rbp),%edx
ffff80000010b3b2:	88 10                	mov    %dl,(%rax)
ffff80000010b3b4:	0f ae f0             	mfence 
ffff80000010b3b7:	48 b8 20 a4 13 00 00 	movabs $0xffff80000013a420,%rax
ffff80000010b3be:	80 ff ff 
ffff80000010b3c1:	48 8b 40 10          	mov    0x10(%rax),%rax
ffff80000010b3c5:	8b 00                	mov    (%rax),%eax
ffff80000010b3c7:	89 c0                	mov    %eax,%eax
ffff80000010b3c9:	48 09 45 f8          	or     %rax,-0x8(%rbp)
ffff80000010b3cd:	0f ae f0             	mfence 
ffff80000010b3d0:	48 8b 45 f8          	mov    -0x8(%rbp),%rax
ffff80000010b3d4:	5d                   	pop    %rbp
ffff80000010b3d5:	c3                   	retq   

ffff80000010b3d6 <ioapic_rte_write>:
ffff80000010b3d6:	55                   	push   %rbp
ffff80000010b3d7:	48 89 e5             	mov    %rsp,%rbp
ffff80000010b3da:	89 f8                	mov    %edi,%eax
ffff80000010b3dc:	48 89 75 f0          	mov    %rsi,-0x10(%rbp)
ffff80000010b3e0:	88 45 fc             	mov    %al,-0x4(%rbp)
ffff80000010b3e3:	48 b8 20 a4 13 00 00 	movabs $0xffff80000013a420,%rax
ffff80000010b3ea:	80 ff ff 
ffff80000010b3ed:	48 8b 40 08          	mov    0x8(%rax),%rax
ffff80000010b3f1:	0f b6 55 fc          	movzbl -0x4(%rbp),%edx
ffff80000010b3f5:	88 10                	mov    %dl,(%rax)
ffff80000010b3f7:	0f ae f0             	mfence 
ffff80000010b3fa:	48 b8 20 a4 13 00 00 	movabs $0xffff80000013a420,%rax
ffff80000010b401:	80 ff ff 
ffff80000010b404:	48 8b 40 10          	mov    0x10(%rax),%rax
ffff80000010b408:	48 8b 55 f0          	mov    -0x10(%rbp),%rdx
ffff80000010b40c:	89 10                	mov    %edx,(%rax)
ffff80000010b40e:	48 c1 6d f0 20       	shrq   $0x20,-0x10(%rbp)
ffff80000010b413:	0f ae f0             	mfence 
ffff80000010b416:	48 b8 20 a4 13 00 00 	movabs $0xffff80000013a420,%rax
ffff80000010b41d:	80 ff ff 
ffff80000010b420:	48 8b 40 08          	mov    0x8(%rax),%rax
ffff80000010b424:	0f b6 55 fc          	movzbl -0x4(%rbp),%edx
ffff80000010b428:	83 c2 01             	add    $0x1,%edx
ffff80000010b42b:	88 10                	mov    %dl,(%rax)
ffff80000010b42d:	0f ae f0             	mfence 
ffff80000010b430:	48 b8 20 a4 13 00 00 	movabs $0xffff80000013a420,%rax
ffff80000010b437:	80 ff ff 
ffff80000010b43a:	48 8b 40 10          	mov    0x10(%rax),%rax
ffff80000010b43e:	48 8b 55 f0          	mov    -0x10(%rbp),%rdx
ffff80000010b442:	89 10                	mov    %edx,(%rax)
ffff80000010b444:	0f ae f0             	mfence 
ffff80000010b447:	5d                   	pop    %rbp
ffff80000010b448:	c3                   	retq   

ffff80000010b449 <IOAPIC_pagetable_remap>:
ffff80000010b449:	55                   	push   %rbp
ffff80000010b44a:	48 89 e5             	mov    %rsp,%rbp
ffff80000010b44d:	48 83 ec 30          	sub    $0x30,%rsp
ffff80000010b451:	48 b8 00 00 c0 fe 00 	movabs $0xffff8000fec00000,%rax
ffff80000010b458:	80 ff ff 
ffff80000010b45b:	48 89 45 f8          	mov    %rax,-0x8(%rbp)
ffff80000010b45f:	48 b8 20 a4 13 00 00 	movabs $0xffff80000013a420,%rax
ffff80000010b466:	80 ff ff 
ffff80000010b469:	c7 00 00 00 c0 fe    	movl   $0xfec00000,(%rax)
ffff80000010b46f:	48 b8 20 a4 13 00 00 	movabs $0xffff80000013a420,%rax
ffff80000010b476:	80 ff ff 
ffff80000010b479:	48 8b 55 f8          	mov    -0x8(%rbp),%rdx
ffff80000010b47d:	48 89 50 08          	mov    %rdx,0x8(%rax)
ffff80000010b481:	48 8b 45 f8          	mov    -0x8(%rbp),%rax
ffff80000010b485:	48 8d 50 10          	lea    0x10(%rax),%rdx
ffff80000010b489:	48 b8 20 a4 13 00 00 	movabs $0xffff80000013a420,%rax
ffff80000010b490:	80 ff ff 
ffff80000010b493:	48 89 50 10          	mov    %rdx,0x10(%rax)
ffff80000010b497:	48 8b 45 f8          	mov    -0x8(%rbp),%rax
ffff80000010b49b:	48 8d 50 40          	lea    0x40(%rax),%rdx
ffff80000010b49f:	48 b8 20 a4 13 00 00 	movabs $0xffff80000013a420,%rax
ffff80000010b4a6:	80 ff ff 
ffff80000010b4a9:	48 89 50 18          	mov    %rdx,0x18(%rax)
ffff80000010b4ad:	b8 00 00 00 00       	mov    $0x0,%eax
ffff80000010b4b2:	48 ba 3d 43 10 00 00 	movabs $0xffff80000010433d,%rdx
ffff80000010b4b9:	80 ff ff 
ffff80000010b4bc:	ff d2                	callq  *%rdx
ffff80000010b4be:	48 8b 55 f8          	mov    -0x8(%rbp),%rdx
ffff80000010b4c2:	48 c1 ea 27          	shr    $0x27,%rdx
ffff80000010b4c6:	81 e2 ff 01 00 00    	and    $0x1ff,%edx
ffff80000010b4cc:	48 c1 e2 03          	shl    $0x3,%rdx
ffff80000010b4d0:	48 01 d0             	add    %rdx,%rax
ffff80000010b4d3:	48 89 c2             	mov    %rax,%rdx
ffff80000010b4d6:	48 b8 00 00 00 00 00 	movabs $0xffff800000000000,%rax
ffff80000010b4dd:	80 ff ff 
ffff80000010b4e0:	48 01 d0             	add    %rdx,%rax
ffff80000010b4e3:	48 89 45 f0          	mov    %rax,-0x10(%rbp)
ffff80000010b4e7:	48 8b 45 f0          	mov    -0x10(%rbp),%rax
ffff80000010b4eb:	48 8b 00             	mov    (%rax),%rax
ffff80000010b4ee:	48 85 c0             	test   %rax,%rax
ffff80000010b4f1:	75 56                	jne    ffff80000010b549 <IOAPIC_pagetable_remap+0x100>
ffff80000010b4f3:	be 00 00 00 00       	mov    $0x0,%esi
ffff80000010b4f8:	bf 00 10 00 00       	mov    $0x1000,%edi
ffff80000010b4fd:	48 b8 04 83 10 00 00 	movabs $0xffff800000108304,%rax
ffff80000010b504:	80 ff ff 
ffff80000010b507:	ff d0                	callq  *%rax
ffff80000010b509:	48 89 45 e8          	mov    %rax,-0x18(%rbp)
ffff80000010b50d:	48 8b 45 e8          	mov    -0x18(%rbp),%rax
ffff80000010b511:	ba 00 10 00 00       	mov    $0x1000,%edx
ffff80000010b516:	be 00 00 00 00       	mov    $0x0,%esi
ffff80000010b51b:	48 89 c7             	mov    %rax,%rdi
ffff80000010b51e:	48 b8 2b af 10 00 00 	movabs $0xffff80000010af2b,%rax
ffff80000010b525:	80 ff ff 
ffff80000010b528:	ff d0                	callq  *%rax
ffff80000010b52a:	48 8b 55 e8          	mov    -0x18(%rbp),%rdx
ffff80000010b52e:	48 b8 00 00 00 00 00 	movabs $0x800000000000,%rax
ffff80000010b535:	80 00 00 
ffff80000010b538:	48 01 d0             	add    %rdx,%rax
ffff80000010b53b:	48 83 c8 03          	or     $0x3,%rax
ffff80000010b53f:	48 89 c2             	mov    %rax,%rdx
ffff80000010b542:	48 8b 45 f0          	mov    -0x10(%rbp),%rax
ffff80000010b546:	48 89 10             	mov    %rdx,(%rax)
ffff80000010b549:	48 8b 45 f0          	mov    -0x10(%rbp),%rax
ffff80000010b54d:	48 8b 10             	mov    (%rax),%rdx
ffff80000010b550:	48 8b 45 f0          	mov    -0x10(%rbp),%rax
ffff80000010b554:	49 89 d0             	mov    %rdx,%r8
ffff80000010b557:	48 89 c1             	mov    %rax,%rcx
ffff80000010b55a:	48 ba 08 a8 11 00 00 	movabs $0xffff80000011a808,%rdx
ffff80000010b561:	80 ff ff 
ffff80000010b564:	be 00 00 00 00       	mov    $0x0,%esi
ffff80000010b569:	bf 00 ff ff 00       	mov    $0xffff00,%edi
ffff80000010b56e:	b8 00 00 00 00       	mov    $0x0,%eax
ffff80000010b573:	49 b9 d0 56 10 00 00 	movabs $0xffff8000001056d0,%r9
ffff80000010b57a:	80 ff ff 
ffff80000010b57d:	41 ff d1             	callq  *%r9
ffff80000010b580:	48 8b 45 f8          	mov    -0x8(%rbp),%rax
ffff80000010b584:	48 c1 e8 1e          	shr    $0x1e,%rax
ffff80000010b588:	25 ff 01 00 00       	and    $0x1ff,%eax
ffff80000010b58d:	48 8d 14 c5 00 00 00 	lea    0x0(,%rax,8),%rdx
ffff80000010b594:	00 
ffff80000010b595:	48 8b 45 f0          	mov    -0x10(%rbp),%rax
ffff80000010b599:	48 8b 00             	mov    (%rax),%rax
ffff80000010b59c:	48 25 00 f0 ff ff    	and    $0xfffffffffffff000,%rax
ffff80000010b5a2:	48 01 c2             	add    %rax,%rdx
ffff80000010b5a5:	48 b8 00 00 00 00 00 	movabs $0xffff800000000000,%rax
ffff80000010b5ac:	80 ff ff 
ffff80000010b5af:	48 01 d0             	add    %rdx,%rax
ffff80000010b5b2:	48 89 45 f0          	mov    %rax,-0x10(%rbp)
ffff80000010b5b6:	48 8b 45 f0          	mov    -0x10(%rbp),%rax
ffff80000010b5ba:	48 8b 00             	mov    (%rax),%rax
ffff80000010b5bd:	48 85 c0             	test   %rax,%rax
ffff80000010b5c0:	75 56                	jne    ffff80000010b618 <IOAPIC_pagetable_remap+0x1cf>
ffff80000010b5c2:	be 00 00 00 00       	mov    $0x0,%esi
ffff80000010b5c7:	bf 00 10 00 00       	mov    $0x1000,%edi
ffff80000010b5cc:	48 b8 04 83 10 00 00 	movabs $0xffff800000108304,%rax
ffff80000010b5d3:	80 ff ff 
ffff80000010b5d6:	ff d0                	callq  *%rax
ffff80000010b5d8:	48 89 45 e0          	mov    %rax,-0x20(%rbp)
ffff80000010b5dc:	48 8b 45 e0          	mov    -0x20(%rbp),%rax
ffff80000010b5e0:	ba 00 10 00 00       	mov    $0x1000,%edx
ffff80000010b5e5:	be 00 00 00 00       	mov    $0x0,%esi
ffff80000010b5ea:	48 89 c7             	mov    %rax,%rdi
ffff80000010b5ed:	48 b8 2b af 10 00 00 	movabs $0xffff80000010af2b,%rax
ffff80000010b5f4:	80 ff ff 
ffff80000010b5f7:	ff d0                	callq  *%rax
ffff80000010b5f9:	48 8b 55 e0          	mov    -0x20(%rbp),%rdx
ffff80000010b5fd:	48 b8 00 00 00 00 00 	movabs $0x800000000000,%rax
ffff80000010b604:	80 00 00 
ffff80000010b607:	48 01 d0             	add    %rdx,%rax
ffff80000010b60a:	48 83 c8 03          	or     $0x3,%rax
ffff80000010b60e:	48 89 c2             	mov    %rax,%rdx
ffff80000010b611:	48 8b 45 f0          	mov    -0x10(%rbp),%rax
ffff80000010b615:	48 89 10             	mov    %rdx,(%rax)
ffff80000010b618:	48 8b 45 f0          	mov    -0x10(%rbp),%rax
ffff80000010b61c:	48 8b 10             	mov    (%rax),%rdx
ffff80000010b61f:	48 8b 45 f0          	mov    -0x10(%rbp),%rax
ffff80000010b623:	49 89 d0             	mov    %rdx,%r8
ffff80000010b626:	48 89 c1             	mov    %rax,%rcx
ffff80000010b629:	48 ba 1b a8 11 00 00 	movabs $0xffff80000011a81b,%rdx
ffff80000010b630:	80 ff ff 
ffff80000010b633:	be 00 00 00 00       	mov    $0x0,%esi
ffff80000010b638:	bf 00 ff ff 00       	mov    $0xffff00,%edi
ffff80000010b63d:	b8 00 00 00 00       	mov    $0x0,%eax
ffff80000010b642:	49 b9 d0 56 10 00 00 	movabs $0xffff8000001056d0,%r9
ffff80000010b649:	80 ff ff 
ffff80000010b64c:	41 ff d1             	callq  *%r9
ffff80000010b64f:	48 8b 45 f8          	mov    -0x8(%rbp),%rax
ffff80000010b653:	48 c1 e8 15          	shr    $0x15,%rax
ffff80000010b657:	25 ff 01 00 00       	and    $0x1ff,%eax
ffff80000010b65c:	48 8d 14 c5 00 00 00 	lea    0x0(,%rax,8),%rdx
ffff80000010b663:	00 
ffff80000010b664:	48 8b 45 f0          	mov    -0x10(%rbp),%rax
ffff80000010b668:	48 8b 00             	mov    (%rax),%rax
ffff80000010b66b:	48 25 00 f0 ff ff    	and    $0xfffffffffffff000,%rax
ffff80000010b671:	48 01 c2             	add    %rax,%rdx
ffff80000010b674:	48 b8 00 00 00 00 00 	movabs $0xffff800000000000,%rax
ffff80000010b67b:	80 ff ff 
ffff80000010b67e:	48 01 d0             	add    %rdx,%rax
ffff80000010b681:	48 89 45 f0          	mov    %rax,-0x10(%rbp)
ffff80000010b685:	48 b8 20 a4 13 00 00 	movabs $0xffff80000013a420,%rax
ffff80000010b68c:	80 ff ff 
ffff80000010b68f:	8b 00                	mov    (%rax),%eax
ffff80000010b691:	0c 9b                	or     $0x9b,%al
ffff80000010b693:	89 c2                	mov    %eax,%edx
ffff80000010b695:	48 8b 45 f0          	mov    -0x10(%rbp),%rax
ffff80000010b699:	48 89 10             	mov    %rdx,(%rax)
ffff80000010b69c:	48 8b 45 f0          	mov    -0x10(%rbp),%rax
ffff80000010b6a0:	48 8b 10             	mov    (%rax),%rdx
ffff80000010b6a3:	48 8b 45 f0          	mov    -0x10(%rbp),%rax
ffff80000010b6a7:	49 89 d0             	mov    %rdx,%r8
ffff80000010b6aa:	48 89 c1             	mov    %rax,%rcx
ffff80000010b6ad:	48 ba 2e a8 11 00 00 	movabs $0xffff80000011a82e,%rdx
ffff80000010b6b4:	80 ff ff 
ffff80000010b6b7:	be 00 00 00 00       	mov    $0x0,%esi
ffff80000010b6bc:	bf ff 00 00 00       	mov    $0xff,%edi
ffff80000010b6c1:	b8 00 00 00 00       	mov    $0x0,%eax
ffff80000010b6c6:	49 b9 d0 56 10 00 00 	movabs $0xffff8000001056d0,%r9
ffff80000010b6cd:	80 ff ff 
ffff80000010b6d0:	41 ff d1             	callq  *%r9
ffff80000010b6d3:	48 b8 20 a4 13 00 00 	movabs $0xffff80000013a420,%rax
ffff80000010b6da:	80 ff ff 
ffff80000010b6dd:	8b 00                	mov    (%rax),%eax
ffff80000010b6df:	89 c1                	mov    %eax,%ecx
ffff80000010b6e1:	48 ba 48 a8 11 00 00 	movabs $0xffff80000011a848,%rdx
ffff80000010b6e8:	80 ff ff 
ffff80000010b6eb:	be 00 00 00 00       	mov    $0x0,%esi
ffff80000010b6f0:	bf ff 00 00 00       	mov    $0xff,%edi
ffff80000010b6f5:	b8 00 00 00 00       	mov    $0x0,%eax
ffff80000010b6fa:	49 b8 d0 56 10 00 00 	movabs $0xffff8000001056d0,%r8
ffff80000010b701:	80 ff ff 
ffff80000010b704:	41 ff d0             	callq  *%r8
ffff80000010b707:	48 b8 20 a4 13 00 00 	movabs $0xffff80000013a420,%rax
ffff80000010b70e:	80 ff ff 
ffff80000010b711:	48 8b 40 08          	mov    0x8(%rax),%rax
ffff80000010b715:	48 89 c1             	mov    %rax,%rcx
ffff80000010b718:	48 ba 70 a8 11 00 00 	movabs $0xffff80000011a870,%rdx
ffff80000010b71f:	80 ff ff 
ffff80000010b722:	be 00 00 00 00       	mov    $0x0,%esi
ffff80000010b727:	bf ff 00 00 00       	mov    $0xff,%edi
ffff80000010b72c:	b8 00 00 00 00       	mov    $0x0,%eax
ffff80000010b731:	49 b8 d0 56 10 00 00 	movabs $0xffff8000001056d0,%r8
ffff80000010b738:	80 ff ff 
ffff80000010b73b:	41 ff d0             	callq  *%r8
ffff80000010b73e:	0f 20 d8             	mov    %cr3,%rax
ffff80000010b741:	0f 22 d8             	mov    %rax,%cr3
ffff80000010b744:	48 89 45 d8          	mov    %rax,-0x28(%rbp)
ffff80000010b748:	c9                   	leaveq 
ffff80000010b749:	c3                   	retq   

ffff80000010b74a <Local_APIC_init>:
ffff80000010b74a:	55                   	push   %rbp
ffff80000010b74b:	48 89 e5             	mov    %rsp,%rbp
ffff80000010b74e:	48 83 ec 30          	sub    $0x30,%rsp
ffff80000010b752:	48 8d 75 e8          	lea    -0x18(%rbp),%rsi
ffff80000010b756:	48 8d 4d ec          	lea    -0x14(%rbp),%rcx
ffff80000010b75a:	48 8d 55 f0          	lea    -0x10(%rbp),%rdx
ffff80000010b75e:	48 8d 45 f4          	lea    -0xc(%rbp),%rax
ffff80000010b762:	49 89 f1             	mov    %rsi,%r9
ffff80000010b765:	49 89 c8             	mov    %rcx,%r8
ffff80000010b768:	48 89 d1             	mov    %rdx,%rcx
ffff80000010b76b:	48 89 c2             	mov    %rax,%rdx
ffff80000010b76e:	be 00 00 00 00       	mov    $0x0,%esi
ffff80000010b773:	bf 01 00 00 00       	mov    $0x1,%edi
ffff80000010b778:	48 b8 4e 43 10 00 00 	movabs $0xffff80000010434e,%rax
ffff80000010b77f:	80 ff ff 
ffff80000010b782:	ff d0                	callq  *%rax
ffff80000010b784:	8b 55 e8             	mov    -0x18(%rbp),%edx
ffff80000010b787:	8b 75 ec             	mov    -0x14(%rbp),%esi
ffff80000010b78a:	8b 4d f0             	mov    -0x10(%rbp),%ecx
ffff80000010b78d:	8b 45 f4             	mov    -0xc(%rbp),%eax
ffff80000010b790:	89 14 24             	mov    %edx,(%rsp)
ffff80000010b793:	41 89 f1             	mov    %esi,%r9d
ffff80000010b796:	41 89 c8             	mov    %ecx,%r8d
ffff80000010b799:	89 c1                	mov    %eax,%ecx
ffff80000010b79b:	48 ba 98 a8 11 00 00 	movabs $0xffff80000011a898,%rdx
ffff80000010b7a2:	80 ff ff 
ffff80000010b7a5:	be 00 00 00 00       	mov    $0x0,%esi
ffff80000010b7aa:	bf ff ff ff 00       	mov    $0xffffff,%edi
ffff80000010b7af:	b8 00 00 00 00       	mov    $0x0,%eax
ffff80000010b7b4:	49 ba d0 56 10 00 00 	movabs $0xffff8000001056d0,%r10
ffff80000010b7bb:	80 ff ff 
ffff80000010b7be:	41 ff d2             	callq  *%r10
ffff80000010b7c1:	8b 45 e8             	mov    -0x18(%rbp),%eax
ffff80000010b7c4:	25 00 02 00 00       	and    $0x200,%eax
ffff80000010b7c9:	85 c0                	test   %eax,%eax
ffff80000010b7cb:	74 27                	je     ffff80000010b7f4 <Local_APIC_init+0xaa>
ffff80000010b7cd:	48 ba ce a8 11 00 00 	movabs $0xffff80000011a8ce,%rdx
ffff80000010b7d4:	80 ff ff 
ffff80000010b7d7:	be 00 00 00 00       	mov    $0x0,%esi
ffff80000010b7dc:	bf ff ff ff 00       	mov    $0xffffff,%edi
ffff80000010b7e1:	b8 00 00 00 00       	mov    $0x0,%eax
ffff80000010b7e6:	48 b9 d0 56 10 00 00 	movabs $0xffff8000001056d0,%rcx
ffff80000010b7ed:	80 ff ff 
ffff80000010b7f0:	ff d1                	callq  *%rcx
ffff80000010b7f2:	eb 25                	jmp    ffff80000010b819 <Local_APIC_init+0xcf>
ffff80000010b7f4:	48 ba e5 a8 11 00 00 	movabs $0xffff80000011a8e5,%rdx
ffff80000010b7fb:	80 ff ff 
ffff80000010b7fe:	be 00 00 00 00       	mov    $0x0,%esi
ffff80000010b803:	bf ff ff ff 00       	mov    $0xffffff,%edi
ffff80000010b808:	b8 00 00 00 00       	mov    $0x0,%eax
ffff80000010b80d:	48 b9 d0 56 10 00 00 	movabs $0xffff8000001056d0,%rcx
ffff80000010b814:	80 ff ff 
ffff80000010b817:	ff d1                	callq  *%rcx
ffff80000010b819:	8b 45 ec             	mov    -0x14(%rbp),%eax
ffff80000010b81c:	25 00 00 20 00       	and    $0x200000,%eax
ffff80000010b821:	85 c0                	test   %eax,%eax
ffff80000010b823:	74 27                	je     ffff80000010b84c <Local_APIC_init+0x102>
ffff80000010b825:	48 ba ff a8 11 00 00 	movabs $0xffff80000011a8ff,%rdx
ffff80000010b82c:	80 ff ff 
ffff80000010b82f:	be 00 00 00 00       	mov    $0x0,%esi
ffff80000010b834:	bf ff ff ff 00       	mov    $0xffffff,%edi
ffff80000010b839:	b8 00 00 00 00       	mov    $0x0,%eax
ffff80000010b83e:	48 b9 d0 56 10 00 00 	movabs $0xffff8000001056d0,%rcx
ffff80000010b845:	80 ff ff 
ffff80000010b848:	ff d1                	callq  *%rcx
ffff80000010b84a:	eb 25                	jmp    ffff80000010b871 <Local_APIC_init+0x127>
ffff80000010b84c:	48 ba 12 a9 11 00 00 	movabs $0xffff80000011a912,%rdx
ffff80000010b853:	80 ff ff 
ffff80000010b856:	be 00 00 00 00       	mov    $0x0,%esi
ffff80000010b85b:	bf ff ff ff 00       	mov    $0xffffff,%edi
ffff80000010b860:	b8 00 00 00 00       	mov    $0x0,%eax
ffff80000010b865:	48 b9 d0 56 10 00 00 	movabs $0xffff8000001056d0,%rcx
ffff80000010b86c:	80 ff ff 
ffff80000010b86f:	ff d1                	callq  *%rcx
ffff80000010b871:	48 c7 c1 1b 00 00 00 	mov    $0x1b,%rcx
ffff80000010b878:	0f 32                	rdmsr  
ffff80000010b87a:	48 0f ba e8 0a       	bts    $0xa,%rax
ffff80000010b87f:	48 0f ba e8 0b       	bts    $0xb,%rax
ffff80000010b884:	0f 30                	wrmsr  
ffff80000010b886:	48 c7 c1 1b 00 00 00 	mov    $0x1b,%rcx
ffff80000010b88d:	0f 32                	rdmsr  
ffff80000010b88f:	89 45 fc             	mov    %eax,-0x4(%rbp)
ffff80000010b892:	89 55 f8             	mov    %edx,-0x8(%rbp)
ffff80000010b895:	8b 55 f8             	mov    -0x8(%rbp),%edx
ffff80000010b898:	8b 45 fc             	mov    -0x4(%rbp),%eax
ffff80000010b89b:	41 89 d0             	mov    %edx,%r8d
ffff80000010b89e:	89 c1                	mov    %eax,%ecx
ffff80000010b8a0:	48 ba 28 a9 11 00 00 	movabs $0xffff80000011a928,%rdx
ffff80000010b8a7:	80 ff ff 
ffff80000010b8aa:	be 00 00 00 00       	mov    $0x0,%esi
ffff80000010b8af:	bf ff ff ff 00       	mov    $0xffffff,%edi
ffff80000010b8b4:	b8 00 00 00 00       	mov    $0x0,%eax
ffff80000010b8b9:	49 b9 d0 56 10 00 00 	movabs $0xffff8000001056d0,%r9
ffff80000010b8c0:	80 ff ff 
ffff80000010b8c3:	41 ff d1             	callq  *%r9
ffff80000010b8c6:	8b 45 fc             	mov    -0x4(%rbp),%eax
ffff80000010b8c9:	25 00 0c 00 00       	and    $0xc00,%eax
ffff80000010b8ce:	85 c0                	test   %eax,%eax
ffff80000010b8d0:	74 25                	je     ffff80000010b8f7 <Local_APIC_init+0x1ad>
ffff80000010b8d2:	48 ba 3f a9 11 00 00 	movabs $0xffff80000011a93f,%rdx
ffff80000010b8d9:	80 ff ff 
ffff80000010b8dc:	be 00 00 00 00       	mov    $0x0,%esi
ffff80000010b8e1:	bf ff ff ff 00       	mov    $0xffffff,%edi
ffff80000010b8e6:	b8 00 00 00 00       	mov    $0x0,%eax
ffff80000010b8eb:	48 b9 d0 56 10 00 00 	movabs $0xffff8000001056d0,%rcx
ffff80000010b8f2:	80 ff ff 
ffff80000010b8f5:	ff d1                	callq  *%rcx
ffff80000010b8f7:	48 c7 c1 0f 08 00 00 	mov    $0x80f,%rcx
ffff80000010b8fe:	0f 32                	rdmsr  
ffff80000010b900:	48 0f ba e8 08       	bts    $0x8,%rax
ffff80000010b905:	48 0f ba e8 0c       	bts    $0xc,%rax
ffff80000010b90a:	0f 30                	wrmsr  
ffff80000010b90c:	48 c7 c1 0f 08 00 00 	mov    $0x80f,%rcx
ffff80000010b913:	0f 32                	rdmsr  
ffff80000010b915:	89 45 fc             	mov    %eax,-0x4(%rbp)
ffff80000010b918:	89 55 f8             	mov    %edx,-0x8(%rbp)
ffff80000010b91b:	8b 55 f8             	mov    -0x8(%rbp),%edx
ffff80000010b91e:	8b 45 fc             	mov    -0x4(%rbp),%eax
ffff80000010b921:	41 89 d0             	mov    %edx,%r8d
ffff80000010b924:	89 c1                	mov    %eax,%ecx
ffff80000010b926:	48 ba 28 a9 11 00 00 	movabs $0xffff80000011a928,%rdx
ffff80000010b92d:	80 ff ff 
ffff80000010b930:	be 00 00 00 00       	mov    $0x0,%esi
ffff80000010b935:	bf ff ff ff 00       	mov    $0xffffff,%edi
ffff80000010b93a:	b8 00 00 00 00       	mov    $0x0,%eax
ffff80000010b93f:	49 b9 d0 56 10 00 00 	movabs $0xffff8000001056d0,%r9
ffff80000010b946:	80 ff ff 
ffff80000010b949:	41 ff d1             	callq  *%r9
ffff80000010b94c:	8b 45 fc             	mov    -0x4(%rbp),%eax
ffff80000010b94f:	25 00 01 00 00       	and    $0x100,%eax
ffff80000010b954:	85 c0                	test   %eax,%eax
ffff80000010b956:	74 25                	je     ffff80000010b97d <Local_APIC_init+0x233>
ffff80000010b958:	48 ba 57 a9 11 00 00 	movabs $0xffff80000011a957,%rdx
ffff80000010b95f:	80 ff ff 
ffff80000010b962:	be 00 00 00 00       	mov    $0x0,%esi
ffff80000010b967:	bf ff ff ff 00       	mov    $0xffffff,%edi
ffff80000010b96c:	b8 00 00 00 00       	mov    $0x0,%eax
ffff80000010b971:	48 b9 d0 56 10 00 00 	movabs $0xffff8000001056d0,%rcx
ffff80000010b978:	80 ff ff 
ffff80000010b97b:	ff d1                	callq  *%rcx
ffff80000010b97d:	8b 45 fc             	mov    -0x4(%rbp),%eax
ffff80000010b980:	25 00 10 00 00       	and    $0x1000,%eax
ffff80000010b985:	85 c0                	test   %eax,%eax
ffff80000010b987:	74 25                	je     ffff80000010b9ae <Local_APIC_init+0x264>
ffff80000010b989:	48 ba 67 a9 11 00 00 	movabs $0xffff80000011a967,%rdx
ffff80000010b990:	80 ff ff 
ffff80000010b993:	be 00 00 00 00       	mov    $0x0,%esi
ffff80000010b998:	bf ff ff ff 00       	mov    $0xffffff,%edi
ffff80000010b99d:	b8 00 00 00 00       	mov    $0x0,%eax
ffff80000010b9a2:	48 b9 d0 56 10 00 00 	movabs $0xffff8000001056d0,%rcx
ffff80000010b9a9:	80 ff ff 
ffff80000010b9ac:	ff d1                	callq  *%rcx
ffff80000010b9ae:	48 c7 c1 02 08 00 00 	mov    $0x802,%rcx
ffff80000010b9b5:	0f 32                	rdmsr  
ffff80000010b9b7:	89 45 fc             	mov    %eax,-0x4(%rbp)
ffff80000010b9ba:	89 55 f8             	mov    %edx,-0x8(%rbp)
ffff80000010b9bd:	8b 4d fc             	mov    -0x4(%rbp),%ecx
ffff80000010b9c0:	8b 55 f8             	mov    -0x8(%rbp),%edx
ffff80000010b9c3:	8b 45 fc             	mov    -0x4(%rbp),%eax
ffff80000010b9c6:	41 89 c9             	mov    %ecx,%r9d
ffff80000010b9c9:	41 89 d0             	mov    %edx,%r8d
ffff80000010b9cc:	89 c1                	mov    %eax,%ecx
ffff80000010b9ce:	48 ba 78 a9 11 00 00 	movabs $0xffff80000011a978,%rdx
ffff80000010b9d5:	80 ff ff 
ffff80000010b9d8:	be 00 00 00 00       	mov    $0x0,%esi
ffff80000010b9dd:	bf ff ff ff 00       	mov    $0xffffff,%edi
ffff80000010b9e2:	b8 00 00 00 00       	mov    $0x0,%eax
ffff80000010b9e7:	49 ba d0 56 10 00 00 	movabs $0xffff8000001056d0,%r10
ffff80000010b9ee:	80 ff ff 
ffff80000010b9f1:	41 ff d2             	callq  *%r10
ffff80000010b9f4:	48 c7 c1 03 08 00 00 	mov    $0x803,%rcx
ffff80000010b9fb:	0f 32                	rdmsr  
ffff80000010b9fd:	89 45 fc             	mov    %eax,-0x4(%rbp)
ffff80000010ba00:	89 55 f8             	mov    %edx,-0x8(%rbp)
ffff80000010ba03:	8b 45 fc             	mov    -0x4(%rbp),%eax
ffff80000010ba06:	c1 e8 18             	shr    $0x18,%eax
ffff80000010ba09:	83 e0 01             	and    $0x1,%eax
ffff80000010ba0c:	89 c1                	mov    %eax,%ecx
ffff80000010ba0e:	8b 45 fc             	mov    -0x4(%rbp),%eax
ffff80000010ba11:	c1 e8 10             	shr    $0x10,%eax
ffff80000010ba14:	0f b6 c0             	movzbl %al,%eax
ffff80000010ba17:	8d 50 01             	lea    0x1(%rax),%edx
ffff80000010ba1a:	8b 45 fc             	mov    -0x4(%rbp),%eax
ffff80000010ba1d:	0f b6 c0             	movzbl %al,%eax
ffff80000010ba20:	41 89 c9             	mov    %ecx,%r9d
ffff80000010ba23:	41 89 d0             	mov    %edx,%r8d
ffff80000010ba26:	89 c1                	mov    %eax,%ecx
ffff80000010ba28:	48 ba a0 a9 11 00 00 	movabs $0xffff80000011a9a0,%rdx
ffff80000010ba2f:	80 ff ff 
ffff80000010ba32:	be 00 00 00 00       	mov    $0x0,%esi
ffff80000010ba37:	bf ff ff ff 00       	mov    $0xffffff,%edi
ffff80000010ba3c:	b8 00 00 00 00       	mov    $0x0,%eax
ffff80000010ba41:	49 ba d0 56 10 00 00 	movabs $0xffff8000001056d0,%r10
ffff80000010ba48:	80 ff ff 
ffff80000010ba4b:	41 ff d2             	callq  *%r10
ffff80000010ba4e:	8b 45 fc             	mov    -0x4(%rbp),%eax
ffff80000010ba51:	0f b6 c0             	movzbl %al,%eax
ffff80000010ba54:	83 f8 0f             	cmp    $0xf,%eax
ffff80000010ba57:	77 27                	ja     ffff80000010ba80 <Local_APIC_init+0x336>
ffff80000010ba59:	48 ba f2 a9 11 00 00 	movabs $0xffff80000011a9f2,%rdx
ffff80000010ba60:	80 ff ff 
ffff80000010ba63:	be 00 00 00 00       	mov    $0x0,%esi
ffff80000010ba68:	bf ff ff ff 00       	mov    $0xffffff,%edi
ffff80000010ba6d:	b8 00 00 00 00       	mov    $0x0,%eax
ffff80000010ba72:	48 b9 d0 56 10 00 00 	movabs $0xffff8000001056d0,%rcx
ffff80000010ba79:	80 ff ff 
ffff80000010ba7c:	ff d1                	callq  *%rcx
ffff80000010ba7e:	eb 3b                	jmp    ffff80000010babb <Local_APIC_init+0x371>
ffff80000010ba80:	8b 45 fc             	mov    -0x4(%rbp),%eax
ffff80000010ba83:	0f b6 c0             	movzbl %al,%eax
ffff80000010ba86:	83 f8 0f             	cmp    $0xf,%eax
ffff80000010ba89:	76 30                	jbe    ffff80000010babb <Local_APIC_init+0x371>
ffff80000010ba8b:	8b 45 fc             	mov    -0x4(%rbp),%eax
ffff80000010ba8e:	0f b6 c0             	movzbl %al,%eax
ffff80000010ba91:	83 f8 15             	cmp    $0x15,%eax
ffff80000010ba94:	77 25                	ja     ffff80000010babb <Local_APIC_init+0x371>
ffff80000010ba96:	48 ba 09 aa 11 00 00 	movabs $0xffff80000011aa09,%rdx
ffff80000010ba9d:	80 ff ff 
ffff80000010baa0:	be 00 00 00 00       	mov    $0x0,%esi
ffff80000010baa5:	bf ff ff ff 00       	mov    $0xffffff,%edi
ffff80000010baaa:	b8 00 00 00 00       	mov    $0x0,%eax
ffff80000010baaf:	48 b9 d0 56 10 00 00 	movabs $0xffff8000001056d0,%rcx
ffff80000010bab6:	80 ff ff 
ffff80000010bab9:	ff d1                	callq  *%rcx
ffff80000010babb:	b8 00 00 01 00       	mov    $0x10000,%eax
ffff80000010bac0:	ba 00 00 00 00       	mov    $0x0,%edx
ffff80000010bac5:	48 c7 c1 2f 08 00 00 	mov    $0x82f,%rcx
ffff80000010bacc:	0f 30                	wrmsr  
ffff80000010bace:	48 c7 c1 32 08 00 00 	mov    $0x832,%rcx
ffff80000010bad5:	0f 30                	wrmsr  
ffff80000010bad7:	48 c7 c1 33 08 00 00 	mov    $0x833,%rcx
ffff80000010bade:	0f 30                	wrmsr  
ffff80000010bae0:	48 c7 c1 34 08 00 00 	mov    $0x834,%rcx
ffff80000010bae7:	0f 30                	wrmsr  
ffff80000010bae9:	48 c7 c1 35 08 00 00 	mov    $0x835,%rcx
ffff80000010baf0:	0f 30                	wrmsr  
ffff80000010baf2:	48 c7 c1 36 08 00 00 	mov    $0x836,%rcx
ffff80000010baf9:	0f 30                	wrmsr  
ffff80000010bafb:	48 c7 c1 37 08 00 00 	mov    $0x837,%rcx
ffff80000010bb02:	0f 30                	wrmsr  
ffff80000010bb04:	48 ba 1a aa 11 00 00 	movabs $0xffff80000011aa1a,%rdx
ffff80000010bb0b:	80 ff ff 
ffff80000010bb0e:	be 00 00 00 00       	mov    $0x0,%esi
ffff80000010bb13:	bf 00 ff 00 00       	mov    $0xff00,%edi
ffff80000010bb18:	b8 00 00 00 00       	mov    $0x0,%eax
ffff80000010bb1d:	48 b9 d0 56 10 00 00 	movabs $0xffff8000001056d0,%rcx
ffff80000010bb24:	80 ff ff 
ffff80000010bb27:	ff d1                	callq  *%rcx
ffff80000010bb29:	48 c7 c1 08 08 00 00 	mov    $0x808,%rcx
ffff80000010bb30:	0f 32                	rdmsr  
ffff80000010bb32:	89 45 fc             	mov    %eax,-0x4(%rbp)
ffff80000010bb35:	89 55 f8             	mov    %edx,-0x8(%rbp)
ffff80000010bb38:	8b 45 fc             	mov    -0x4(%rbp),%eax
ffff80000010bb3b:	89 c1                	mov    %eax,%ecx
ffff80000010bb3d:	48 ba 28 aa 11 00 00 	movabs $0xffff80000011aa28,%rdx
ffff80000010bb44:	80 ff ff 
ffff80000010bb47:	be 00 00 00 00       	mov    $0x0,%esi
ffff80000010bb4c:	bf 00 ff 00 00       	mov    $0xff00,%edi
ffff80000010bb51:	b8 00 00 00 00       	mov    $0x0,%eax
ffff80000010bb56:	49 b8 d0 56 10 00 00 	movabs $0xffff8000001056d0,%r8
ffff80000010bb5d:	80 ff ff 
ffff80000010bb60:	41 ff d0             	callq  *%r8
ffff80000010bb63:	48 c7 c1 0a 08 00 00 	mov    $0x80a,%rcx
ffff80000010bb6a:	0f 32                	rdmsr  
ffff80000010bb6c:	89 45 fc             	mov    %eax,-0x4(%rbp)
ffff80000010bb6f:	89 55 f8             	mov    %edx,-0x8(%rbp)
ffff80000010bb72:	8b 45 fc             	mov    -0x4(%rbp),%eax
ffff80000010bb75:	89 c1                	mov    %eax,%ecx
ffff80000010bb77:	48 ba 3c aa 11 00 00 	movabs $0xffff80000011aa3c,%rdx
ffff80000010bb7e:	80 ff ff 
ffff80000010bb81:	be 00 00 00 00       	mov    $0x0,%esi
ffff80000010bb86:	bf 00 ff 00 00       	mov    $0xff00,%edi
ffff80000010bb8b:	b8 00 00 00 00       	mov    $0x0,%eax
ffff80000010bb90:	49 b8 d0 56 10 00 00 	movabs $0xffff8000001056d0,%r8
ffff80000010bb97:	80 ff ff 
ffff80000010bb9a:	41 ff d0             	callq  *%r8
ffff80000010bb9d:	c9                   	leaveq 
ffff80000010bb9e:	c3                   	retq   

ffff80000010bb9f <IOAPIC_init>:
ffff80000010bb9f:	55                   	push   %rbp
ffff80000010bba0:	48 89 e5             	mov    %rsp,%rbp
ffff80000010bba3:	48 83 ec 10          	sub    $0x10,%rsp
ffff80000010bba7:	48 b8 20 a4 13 00 00 	movabs $0xffff80000013a420,%rax
ffff80000010bbae:	80 ff ff 
ffff80000010bbb1:	48 8b 40 08          	mov    0x8(%rax),%rax
ffff80000010bbb5:	c6 00 00             	movb   $0x0,(%rax)
ffff80000010bbb8:	0f ae f0             	mfence 
ffff80000010bbbb:	48 b8 20 a4 13 00 00 	movabs $0xffff80000013a420,%rax
ffff80000010bbc2:	80 ff ff 
ffff80000010bbc5:	48 8b 40 10          	mov    0x10(%rax),%rax
ffff80000010bbc9:	c7 00 00 00 00 0f    	movl   $0xf000000,(%rax)
ffff80000010bbcf:	0f ae f0             	mfence 
ffff80000010bbd2:	48 b8 20 a4 13 00 00 	movabs $0xffff80000013a420,%rax
ffff80000010bbd9:	80 ff ff 
ffff80000010bbdc:	48 8b 40 10          	mov    0x10(%rax),%rax
ffff80000010bbe0:	8b 00                	mov    (%rax),%eax
ffff80000010bbe2:	c1 e8 18             	shr    $0x18,%eax
ffff80000010bbe5:	83 e0 0f             	and    $0xf,%eax
ffff80000010bbe8:	89 c2                	mov    %eax,%edx
ffff80000010bbea:	48 b8 20 a4 13 00 00 	movabs $0xffff80000013a420,%rax
ffff80000010bbf1:	80 ff ff 
ffff80000010bbf4:	48 8b 40 10          	mov    0x10(%rax),%rax
ffff80000010bbf8:	8b 00                	mov    (%rax),%eax
ffff80000010bbfa:	41 89 d0             	mov    %edx,%r8d
ffff80000010bbfd:	89 c1                	mov    %eax,%ecx
ffff80000010bbff:	48 ba 50 aa 11 00 00 	movabs $0xffff80000011aa50,%rdx
ffff80000010bc06:	80 ff ff 
ffff80000010bc09:	be 00 00 00 00       	mov    $0x0,%esi
ffff80000010bc0e:	bf 00 ff 00 00       	mov    $0xff00,%edi
ffff80000010bc13:	b8 00 00 00 00       	mov    $0x0,%eax
ffff80000010bc18:	49 b9 d0 56 10 00 00 	movabs $0xffff8000001056d0,%r9
ffff80000010bc1f:	80 ff ff 
ffff80000010bc22:	41 ff d1             	callq  *%r9
ffff80000010bc25:	0f ae f0             	mfence 
ffff80000010bc28:	48 b8 20 a4 13 00 00 	movabs $0xffff80000013a420,%rax
ffff80000010bc2f:	80 ff ff 
ffff80000010bc32:	48 8b 40 08          	mov    0x8(%rax),%rax
ffff80000010bc36:	c6 00 01             	movb   $0x1,(%rax)
ffff80000010bc39:	0f ae f0             	mfence 
ffff80000010bc3c:	48 b8 20 a4 13 00 00 	movabs $0xffff80000013a420,%rax
ffff80000010bc43:	80 ff ff 
ffff80000010bc46:	48 8b 40 10          	mov    0x10(%rax),%rax
ffff80000010bc4a:	8b 00                	mov    (%rax),%eax
ffff80000010bc4c:	c1 e8 10             	shr    $0x10,%eax
ffff80000010bc4f:	0f b6 c0             	movzbl %al,%eax
ffff80000010bc52:	8d 50 01             	lea    0x1(%rax),%edx
ffff80000010bc55:	48 b8 20 a4 13 00 00 	movabs $0xffff80000013a420,%rax
ffff80000010bc5c:	80 ff ff 
ffff80000010bc5f:	48 8b 40 10          	mov    0x10(%rax),%rax
ffff80000010bc63:	8b 00                	mov    (%rax),%eax
ffff80000010bc65:	41 89 d0             	mov    %edx,%r8d
ffff80000010bc68:	89 c1                	mov    %eax,%ecx
ffff80000010bc6a:	48 ba 78 aa 11 00 00 	movabs $0xffff80000011aa78,%rdx
ffff80000010bc71:	80 ff ff 
ffff80000010bc74:	be 00 00 00 00       	mov    $0x0,%esi
ffff80000010bc79:	bf 00 ff 00 00       	mov    $0xff00,%edi
ffff80000010bc7e:	b8 00 00 00 00       	mov    $0x0,%eax
ffff80000010bc83:	49 b9 d0 56 10 00 00 	movabs $0xffff8000001056d0,%r9
ffff80000010bc8a:	80 ff ff 
ffff80000010bc8d:	41 ff d1             	callq  *%r9
ffff80000010bc90:	c7 45 fc 10 00 00 00 	movl   $0x10,-0x4(%rbp)
ffff80000010bc97:	eb 2b                	jmp    ffff80000010bcc4 <IOAPIC_init+0x125>
ffff80000010bc99:	8b 45 fc             	mov    -0x4(%rbp),%eax
ffff80000010bc9c:	83 e8 10             	sub    $0x10,%eax
ffff80000010bc9f:	d1 f8                	sar    %eax
ffff80000010bca1:	05 20 00 01 00       	add    $0x10020,%eax
ffff80000010bca6:	48 63 d0             	movslq %eax,%rdx
ffff80000010bca9:	8b 45 fc             	mov    -0x4(%rbp),%eax
ffff80000010bcac:	0f b6 c0             	movzbl %al,%eax
ffff80000010bcaf:	48 89 d6             	mov    %rdx,%rsi
ffff80000010bcb2:	89 c7                	mov    %eax,%edi
ffff80000010bcb4:	48 b8 d6 b3 10 00 00 	movabs $0xffff80000010b3d6,%rax
ffff80000010bcbb:	80 ff ff 
ffff80000010bcbe:	ff d0                	callq  *%rax
ffff80000010bcc0:	83 45 fc 02          	addl   $0x2,-0x4(%rbp)
ffff80000010bcc4:	83 7d fc 3f          	cmpl   $0x3f,-0x4(%rbp)
ffff80000010bcc8:	7e cf                	jle    ffff80000010bc99 <IOAPIC_init+0xfa>
ffff80000010bcca:	48 ba b8 aa 11 00 00 	movabs $0xffff80000011aab8,%rdx
ffff80000010bcd1:	80 ff ff 
ffff80000010bcd4:	be 00 00 00 00       	mov    $0x0,%esi
ffff80000010bcd9:	bf 00 ff 00 00       	mov    $0xff00,%edi
ffff80000010bcde:	b8 00 00 00 00       	mov    $0x0,%eax
ffff80000010bce3:	48 b9 d0 56 10 00 00 	movabs $0xffff8000001056d0,%rcx
ffff80000010bcea:	80 ff ff 
ffff80000010bced:	ff d1                	callq  *%rcx
ffff80000010bcef:	c9                   	leaveq 
ffff80000010bcf0:	c3                   	retq   

ffff80000010bcf1 <APIC_IOAPIC_init>:
ffff80000010bcf1:	55                   	push   %rbp
ffff80000010bcf2:	48 89 e5             	mov    %rsp,%rbp
ffff80000010bcf5:	48 83 ec 20          	sub    $0x20,%rsp
ffff80000010bcf9:	48 c7 45 f0 00 00 00 	movq   $0x0,-0x10(%rbp)
ffff80000010bd00:	00 
ffff80000010bd01:	b8 00 00 00 00       	mov    $0x0,%eax
ffff80000010bd06:	48 ba 49 b4 10 00 00 	movabs $0xffff80000010b449,%rdx
ffff80000010bd0d:	80 ff ff 
ffff80000010bd10:	ff d2                	callq  *%rdx
ffff80000010bd12:	c7 45 fc 20 00 00 00 	movl   $0x20,-0x4(%rbp)
ffff80000010bd19:	eb 31                	jmp    ffff80000010bd4c <APIC_IOAPIC_init+0x5b>
ffff80000010bd1b:	8b 45 fc             	mov    -0x4(%rbp),%eax
ffff80000010bd1e:	8d 50 e0             	lea    -0x20(%rax),%edx
ffff80000010bd21:	48 b8 80 3e 11 00 00 	movabs $0xffff800000113e80,%rax
ffff80000010bd28:	80 ff ff 
ffff80000010bd2b:	48 63 d2             	movslq %edx,%rdx
ffff80000010bd2e:	48 8b 14 d0          	mov    (%rax,%rdx,8),%rdx
ffff80000010bd32:	8b 45 fc             	mov    -0x4(%rbp),%eax
ffff80000010bd35:	be 00 00 00 00       	mov    $0x0,%esi
ffff80000010bd3a:	89 c7                	mov    %eax,%edi
ffff80000010bd3c:	48 b8 2d b0 10 00 00 	movabs $0xffff80000010b02d,%rax
ffff80000010bd43:	80 ff ff 
ffff80000010bd46:	ff d0                	callq  *%rax
ffff80000010bd48:	83 45 fc 01          	addl   $0x1,-0x4(%rbp)
ffff80000010bd4c:	83 7d fc 37          	cmpl   $0x37,-0x4(%rbp)
ffff80000010bd50:	7e c9                	jle    ffff80000010bd1b <APIC_IOAPIC_init+0x2a>
ffff80000010bd52:	48 ba ea aa 11 00 00 	movabs $0xffff80000011aaea,%rdx
ffff80000010bd59:	80 ff ff 
ffff80000010bd5c:	be 00 00 00 00       	mov    $0x0,%esi
ffff80000010bd61:	bf 00 ff 00 00       	mov    $0xff00,%edi
ffff80000010bd66:	b8 00 00 00 00       	mov    $0x0,%eax
ffff80000010bd6b:	48 b9 d0 56 10 00 00 	movabs $0xffff8000001056d0,%rcx
ffff80000010bd72:	80 ff ff 
ffff80000010bd75:	ff d1                	callq  *%rcx
ffff80000010bd77:	be ff 00 00 00       	mov    $0xff,%esi
ffff80000010bd7c:	bf 21 00 00 00       	mov    $0x21,%edi
ffff80000010bd81:	48 b8 e5 af 10 00 00 	movabs $0xffff80000010afe5,%rax
ffff80000010bd88:	80 ff ff 
ffff80000010bd8b:	ff d0                	callq  *%rax
ffff80000010bd8d:	be ff 00 00 00       	mov    $0xff,%esi
ffff80000010bd92:	bf a1 00 00 00       	mov    $0xa1,%edi
ffff80000010bd97:	48 b8 e5 af 10 00 00 	movabs $0xffff80000010afe5,%rax
ffff80000010bd9e:	80 ff ff 
ffff80000010bda1:	ff d0                	callq  *%rax
ffff80000010bda3:	be 70 00 00 00       	mov    $0x70,%esi
ffff80000010bda8:	bf 22 00 00 00       	mov    $0x22,%edi
ffff80000010bdad:	48 b8 e5 af 10 00 00 	movabs $0xffff80000010afe5,%rax
ffff80000010bdb4:	80 ff ff 
ffff80000010bdb7:	ff d0                	callq  *%rax
ffff80000010bdb9:	be 01 00 00 00       	mov    $0x1,%esi
ffff80000010bdbe:	bf 23 00 00 00       	mov    $0x23,%edi
ffff80000010bdc3:	48 b8 e5 af 10 00 00 	movabs $0xffff80000010afe5,%rax
ffff80000010bdca:	80 ff ff 
ffff80000010bdcd:	ff d0                	callq  *%rax
ffff80000010bdcf:	b8 00 00 00 00       	mov    $0x0,%eax
ffff80000010bdd4:	48 ba 4a b7 10 00 00 	movabs $0xffff80000010b74a,%rdx
ffff80000010bddb:	80 ff ff 
ffff80000010bdde:	ff d2                	callq  *%rdx
ffff80000010bde0:	b8 00 00 00 00       	mov    $0x0,%eax
ffff80000010bde5:	48 ba 9f bb 10 00 00 	movabs $0xffff80000010bb9f,%rdx
ffff80000010bdec:	80 ff ff 
ffff80000010bdef:	ff d2                	callq  *%rdx
ffff80000010bdf1:	be f0 f8 00 80       	mov    $0x8000f8f0,%esi
ffff80000010bdf6:	bf f8 0c 00 00       	mov    $0xcf8,%edi
ffff80000010bdfb:	48 b8 02 b0 10 00 00 	movabs $0xffff80000010b002,%rax
ffff80000010be02:	80 ff ff 
ffff80000010be05:	ff d0                	callq  *%rax
ffff80000010be07:	bf fc 0c 00 00       	mov    $0xcfc,%edi
ffff80000010be0c:	48 b8 c2 af 10 00 00 	movabs $0xffff80000010afc2,%rax
ffff80000010be13:	80 ff ff 
ffff80000010be16:	ff d0                	callq  *%rax
ffff80000010be18:	89 45 ec             	mov    %eax,-0x14(%rbp)
ffff80000010be1b:	8b 45 ec             	mov    -0x14(%rbp),%eax
ffff80000010be1e:	89 c1                	mov    %eax,%ecx
ffff80000010be20:	48 ba f6 aa 11 00 00 	movabs $0xffff80000011aaf6,%rdx
ffff80000010be27:	80 ff ff 
ffff80000010be2a:	be 00 00 00 00       	mov    $0x0,%esi
ffff80000010be2f:	bf 00 00 ff 00       	mov    $0xff0000,%edi
ffff80000010be34:	b8 00 00 00 00       	mov    $0x0,%eax
ffff80000010be39:	49 b8 d0 56 10 00 00 	movabs $0xffff8000001056d0,%r8
ffff80000010be40:	80 ff ff 
ffff80000010be43:	41 ff d0             	callq  *%r8
ffff80000010be46:	81 65 ec 00 c0 ff ff 	andl   $0xffffc000,-0x14(%rbp)
ffff80000010be4d:	8b 45 ec             	mov    -0x14(%rbp),%eax
ffff80000010be50:	89 c1                	mov    %eax,%ecx
ffff80000010be52:	48 ba f6 aa 11 00 00 	movabs $0xffff80000011aaf6,%rdx
ffff80000010be59:	80 ff ff 
ffff80000010be5c:	be 00 00 00 00       	mov    $0x0,%esi
ffff80000010be61:	bf 00 00 ff 00       	mov    $0xff0000,%edi
ffff80000010be66:	b8 00 00 00 00       	mov    $0x0,%eax
ffff80000010be6b:	49 b8 d0 56 10 00 00 	movabs $0xffff8000001056d0,%r8
ffff80000010be72:	80 ff ff 
ffff80000010be75:	41 ff d0             	callq  *%r8
ffff80000010be78:	81 7d ec 00 00 c0 fe 	cmpl   $0xfec00000,-0x14(%rbp)
ffff80000010be7f:	76 1d                	jbe    ffff80000010be9e <APIC_IOAPIC_init+0x1ad>
ffff80000010be81:	81 7d ec ff ff df fe 	cmpl   $0xfedfffff,-0x14(%rbp)
ffff80000010be88:	77 14                	ja     ffff80000010be9e <APIC_IOAPIC_init+0x1ad>
ffff80000010be8a:	8b 55 ec             	mov    -0x14(%rbp),%edx
ffff80000010be8d:	48 b8 fe 31 00 00 00 	movabs $0xffff8000000031fe,%rax
ffff80000010be94:	80 ff ff 
ffff80000010be97:	48 01 d0             	add    %rdx,%rax
ffff80000010be9a:	48 89 45 f0          	mov    %rax,-0x10(%rbp)
ffff80000010be9e:	48 8b 45 f0          	mov    -0x10(%rbp),%rax
ffff80000010bea2:	8b 00                	mov    (%rax),%eax
ffff80000010bea4:	25 00 fe ff ff       	and    $0xfffffe00,%eax
ffff80000010bea9:	80 cc 01             	or     $0x1,%ah
ffff80000010beac:	89 45 ec             	mov    %eax,-0x14(%rbp)
ffff80000010beaf:	0f ae f0             	mfence 
ffff80000010beb2:	48 8b 45 f0          	mov    -0x10(%rbp),%rax
ffff80000010beb6:	8b 55 ec             	mov    -0x14(%rbp),%edx
ffff80000010beb9:	89 10                	mov    %edx,(%rax)
ffff80000010bebb:	0f ae f0             	mfence 
ffff80000010bebe:	ba c0 03 00 00       	mov    $0x3c0,%edx
ffff80000010bec3:	be 00 00 00 00       	mov    $0x0,%esi
ffff80000010bec8:	48 bf 80 10 13 00 00 	movabs $0xffff800000131080,%rdi
ffff80000010becf:	80 ff ff 
ffff80000010bed2:	48 b8 2b af 10 00 00 	movabs $0xffff80000010af2b,%rax
ffff80000010bed9:	80 ff ff 
ffff80000010bedc:	ff d0                	callq  *%rax
ffff80000010bede:	48 ba 0f ab 11 00 00 	movabs $0xffff80000011ab0f,%rdx
ffff80000010bee5:	80 ff ff 
ffff80000010bee8:	be 00 00 00 00       	mov    $0x0,%esi
ffff80000010beed:	bf 00 00 ff 00       	mov    $0xff0000,%edi
ffff80000010bef2:	b8 00 00 00 00       	mov    $0x0,%eax
ffff80000010bef7:	48 b9 d0 56 10 00 00 	movabs $0xffff8000001056d0,%rcx
ffff80000010befe:	80 ff ff 
ffff80000010bf01:	ff d1                	callq  *%rcx
ffff80000010bf03:	fb                   	sti    
ffff80000010bf04:	48 ba 1f ab 11 00 00 	movabs $0xffff80000011ab1f,%rdx
ffff80000010bf0b:	80 ff ff 
ffff80000010bf0e:	be 00 00 00 00       	mov    $0x0,%esi
ffff80000010bf13:	bf 00 00 ff 00       	mov    $0xff0000,%edi
ffff80000010bf18:	b8 00 00 00 00       	mov    $0x0,%eax
ffff80000010bf1d:	48 b9 d0 56 10 00 00 	movabs $0xffff8000001056d0,%rcx
ffff80000010bf24:	80 ff ff 
ffff80000010bf27:	ff d1                	callq  *%rcx
ffff80000010bf29:	c9                   	leaveq 
ffff80000010bf2a:	c3                   	retq   

ffff80000010bf2b <do_IRQ>:
ffff80000010bf2b:	55                   	push   %rbp
ffff80000010bf2c:	48 89 e5             	mov    %rsp,%rbp
ffff80000010bf2f:	48 83 ec 30          	sub    $0x30,%rsp
ffff80000010bf33:	48 89 7d d8          	mov    %rdi,-0x28(%rbp)
ffff80000010bf37:	48 89 75 d0          	mov    %rsi,-0x30(%rbp)
ffff80000010bf3b:	48 8b 45 d0          	mov    -0x30(%rbp),%rax
ffff80000010bf3f:	25 80 00 00 00       	and    $0x80,%eax
ffff80000010bf44:	48 85 c0             	test   %rax,%rax
ffff80000010bf47:	74 11                	je     ffff80000010bf5a <do_IRQ+0x2f>
ffff80000010bf49:	48 3d 80 00 00 00    	cmp    $0x80,%rax
ffff80000010bf4f:	0f 84 d8 00 00 00    	je     ffff80000010c02d <do_IRQ+0x102>
ffff80000010bf55:	e9 3e 01 00 00       	jmpq   ffff80000010c098 <do_IRQ+0x16d>
ffff80000010bf5a:	48 8b 45 d0          	mov    -0x30(%rbp),%rax
ffff80000010bf5e:	48 8d 50 e0          	lea    -0x20(%rax),%rdx
ffff80000010bf62:	48 89 d0             	mov    %rdx,%rax
ffff80000010bf65:	48 c1 e0 02          	shl    $0x2,%rax
ffff80000010bf69:	48 01 d0             	add    %rdx,%rax
ffff80000010bf6c:	48 c1 e0 03          	shl    $0x3,%rax
ffff80000010bf70:	48 ba 80 10 13 00 00 	movabs $0xffff800000131080,%rdx
ffff80000010bf77:	80 ff ff 
ffff80000010bf7a:	48 01 d0             	add    %rdx,%rax
ffff80000010bf7d:	48 89 45 f8          	mov    %rax,-0x8(%rbp)
ffff80000010bf81:	bf 60 00 00 00       	mov    $0x60,%edi
ffff80000010bf86:	48 b8 a1 af 10 00 00 	movabs $0xffff80000010afa1,%rax
ffff80000010bf8d:	80 ff ff 
ffff80000010bf90:	ff d0                	callq  *%rax
ffff80000010bf92:	88 45 f7             	mov    %al,-0x9(%rbp)
ffff80000010bf95:	0f b6 55 f7          	movzbl -0x9(%rbp),%edx
ffff80000010bf99:	48 8b 45 d0          	mov    -0x30(%rbp),%rax
ffff80000010bf9d:	41 89 d0             	mov    %edx,%r8d
ffff80000010bfa0:	48 89 c1             	mov    %rax,%rcx
ffff80000010bfa3:	48 ba 31 ab 11 00 00 	movabs $0xffff80000011ab31,%rdx
ffff80000010bfaa:	80 ff ff 
ffff80000010bfad:	be ff ff ff 00       	mov    $0xffffff,%esi
ffff80000010bfb2:	bf ff 00 00 00       	mov    $0xff,%edi
ffff80000010bfb7:	b8 00 00 00 00       	mov    $0x0,%eax
ffff80000010bfbc:	49 b9 d0 56 10 00 00 	movabs $0xffff8000001056d0,%r9
ffff80000010bfc3:	80 ff ff 
ffff80000010bfc6:	41 ff d1             	callq  *%r9
ffff80000010bfc9:	48 8b 45 f8          	mov    -0x8(%rbp),%rax
ffff80000010bfcd:	48 8b 40 18          	mov    0x18(%rax),%rax
ffff80000010bfd1:	48 85 c0             	test   %rax,%rax
ffff80000010bfd4:	74 1d                	je     ffff80000010bff3 <do_IRQ+0xc8>
ffff80000010bfd6:	48 8b 45 f8          	mov    -0x8(%rbp),%rax
ffff80000010bfda:	48 8b 40 18          	mov    0x18(%rax),%rax
ffff80000010bfde:	48 8b 55 f8          	mov    -0x8(%rbp),%rdx
ffff80000010bfe2:	48 8b 72 10          	mov    0x10(%rdx),%rsi
ffff80000010bfe6:	48 8b 55 d8          	mov    -0x28(%rbp),%rdx
ffff80000010bfea:	48 8b 4d d0          	mov    -0x30(%rbp),%rcx
ffff80000010bfee:	48 89 cf             	mov    %rcx,%rdi
ffff80000010bff1:	ff d0                	callq  *%rax
ffff80000010bff3:	48 8b 45 f8          	mov    -0x8(%rbp),%rax
ffff80000010bff7:	48 8b 00             	mov    (%rax),%rax
ffff80000010bffa:	48 85 c0             	test   %rax,%rax
ffff80000010bffd:	74 29                	je     ffff80000010c028 <do_IRQ+0xfd>
ffff80000010bfff:	48 8b 45 f8          	mov    -0x8(%rbp),%rax
ffff80000010c003:	48 8b 00             	mov    (%rax),%rax
ffff80000010c006:	48 8b 40 20          	mov    0x20(%rax),%rax
ffff80000010c00a:	48 85 c0             	test   %rax,%rax
ffff80000010c00d:	74 19                	je     ffff80000010c028 <do_IRQ+0xfd>
ffff80000010c00f:	48 8b 45 f8          	mov    -0x8(%rbp),%rax
ffff80000010c013:	48 8b 00             	mov    (%rax),%rax
ffff80000010c016:	48 8b 40 20          	mov    0x20(%rax),%rax
ffff80000010c01a:	48 8b 55 d0          	mov    -0x30(%rbp),%rdx
ffff80000010c01e:	48 89 d7             	mov    %rdx,%rdi
ffff80000010c021:	ff d0                	callq  *%rax
ffff80000010c023:	e9 9e 00 00 00       	jmpq   ffff80000010c0c6 <do_IRQ+0x19b>
ffff80000010c028:	e9 99 00 00 00       	jmpq   ffff80000010c0c6 <do_IRQ+0x19b>
ffff80000010c02d:	48 8b 45 d0          	mov    -0x30(%rbp),%rax
ffff80000010c031:	48 89 c7             	mov    %rax,%rdi
ffff80000010c034:	48 b8 3e b3 10 00 00 	movabs $0xffff80000010b33e,%rax
ffff80000010c03b:	80 ff ff 
ffff80000010c03e:	ff d0                	callq  *%rax
ffff80000010c040:	48 8b 45 d0          	mov    -0x30(%rbp),%rax
ffff80000010c044:	48 8d 90 38 ff ff ff 	lea    -0xc8(%rax),%rdx
ffff80000010c04b:	48 89 d0             	mov    %rdx,%rax
ffff80000010c04e:	48 c1 e0 02          	shl    $0x2,%rax
ffff80000010c052:	48 01 d0             	add    %rdx,%rax
ffff80000010c055:	48 c1 e0 03          	shl    $0x3,%rax
ffff80000010c059:	48 ba 40 14 13 00 00 	movabs $0xffff800000131440,%rdx
ffff80000010c060:	80 ff ff 
ffff80000010c063:	48 01 d0             	add    %rdx,%rax
ffff80000010c066:	48 89 45 e8          	mov    %rax,-0x18(%rbp)
ffff80000010c06a:	48 8b 45 e8          	mov    -0x18(%rbp),%rax
ffff80000010c06e:	48 8b 40 18          	mov    0x18(%rax),%rax
ffff80000010c072:	48 85 c0             	test   %rax,%rax
ffff80000010c075:	74 1f                	je     ffff80000010c096 <do_IRQ+0x16b>
ffff80000010c077:	48 8b 45 e8          	mov    -0x18(%rbp),%rax
ffff80000010c07b:	48 8b 40 18          	mov    0x18(%rax),%rax
ffff80000010c07f:	48 8b 55 e8          	mov    -0x18(%rbp),%rdx
ffff80000010c083:	48 8b 72 10          	mov    0x10(%rdx),%rsi
ffff80000010c087:	48 8b 55 d8          	mov    -0x28(%rbp),%rdx
ffff80000010c08b:	48 8b 4d d0          	mov    -0x30(%rbp),%rcx
ffff80000010c08f:	48 89 cf             	mov    %rcx,%rdi
ffff80000010c092:	ff d0                	callq  *%rax
ffff80000010c094:	eb 30                	jmp    ffff80000010c0c6 <do_IRQ+0x19b>
ffff80000010c096:	eb 2e                	jmp    ffff80000010c0c6 <do_IRQ+0x19b>
ffff80000010c098:	48 8b 45 d0          	mov    -0x30(%rbp),%rax
ffff80000010c09c:	48 89 c1             	mov    %rax,%rcx
ffff80000010c09f:	48 ba 4d ab 11 00 00 	movabs $0xffff80000011ab4d,%rdx
ffff80000010c0a6:	80 ff ff 
ffff80000010c0a9:	be 00 00 00 00       	mov    $0x0,%esi
ffff80000010c0ae:	bf 00 00 ff 00       	mov    $0xff0000,%edi
ffff80000010c0b3:	b8 00 00 00 00       	mov    $0x0,%eax
ffff80000010c0b8:	49 b8 d0 56 10 00 00 	movabs $0xffff8000001056d0,%r8
ffff80000010c0bf:	80 ff ff 
ffff80000010c0c2:	41 ff d0             	callq  *%r8
ffff80000010c0c5:	90                   	nop
ffff80000010c0c6:	c9                   	leaveq 
ffff80000010c0c7:	c3                   	retq   

ffff80000010c0c8 <list_init>:
ffff80000010c0c8:	55                   	push   %rbp
ffff80000010c0c9:	48 89 e5             	mov    %rsp,%rbp
ffff80000010c0cc:	48 89 7d f8          	mov    %rdi,-0x8(%rbp)
ffff80000010c0d0:	48 8b 45 f8          	mov    -0x8(%rbp),%rax
ffff80000010c0d4:	48 8b 55 f8          	mov    -0x8(%rbp),%rdx
ffff80000010c0d8:	48 89 10             	mov    %rdx,(%rax)
ffff80000010c0db:	48 8b 45 f8          	mov    -0x8(%rbp),%rax
ffff80000010c0df:	48 8b 55 f8          	mov    -0x8(%rbp),%rdx
ffff80000010c0e3:	48 89 50 08          	mov    %rdx,0x8(%rax)
ffff80000010c0e7:	5d                   	pop    %rbp
ffff80000010c0e8:	c3                   	retq   

ffff80000010c0e9 <list_add_to_before>:
ffff80000010c0e9:	55                   	push   %rbp
ffff80000010c0ea:	48 89 e5             	mov    %rsp,%rbp
ffff80000010c0ed:	48 89 7d f8          	mov    %rdi,-0x8(%rbp)
ffff80000010c0f1:	48 89 75 f0          	mov    %rsi,-0x10(%rbp)
ffff80000010c0f5:	48 8b 45 f0          	mov    -0x10(%rbp),%rax
ffff80000010c0f9:	48 8b 55 f8          	mov    -0x8(%rbp),%rdx
ffff80000010c0fd:	48 89 50 08          	mov    %rdx,0x8(%rax)
ffff80000010c101:	48 8b 45 f8          	mov    -0x8(%rbp),%rax
ffff80000010c105:	48 8b 00             	mov    (%rax),%rax
ffff80000010c108:	48 8b 55 f0          	mov    -0x10(%rbp),%rdx
ffff80000010c10c:	48 89 50 08          	mov    %rdx,0x8(%rax)
ffff80000010c110:	48 8b 45 f8          	mov    -0x8(%rbp),%rax
ffff80000010c114:	48 8b 10             	mov    (%rax),%rdx
ffff80000010c117:	48 8b 45 f0          	mov    -0x10(%rbp),%rax
ffff80000010c11b:	48 89 10             	mov    %rdx,(%rax)
ffff80000010c11e:	48 8b 45 f8          	mov    -0x8(%rbp),%rax
ffff80000010c122:	48 8b 55 f0          	mov    -0x10(%rbp),%rdx
ffff80000010c126:	48 89 10             	mov    %rdx,(%rax)
ffff80000010c129:	5d                   	pop    %rbp
ffff80000010c12a:	c3                   	retq   

ffff80000010c12b <list_next>:
ffff80000010c12b:	55                   	push   %rbp
ffff80000010c12c:	48 89 e5             	mov    %rsp,%rbp
ffff80000010c12f:	48 89 7d f8          	mov    %rdi,-0x8(%rbp)
ffff80000010c133:	48 8b 45 f8          	mov    -0x8(%rbp),%rax
ffff80000010c137:	48 8b 40 08          	mov    0x8(%rax),%rax
ffff80000010c13b:	48 85 c0             	test   %rax,%rax
ffff80000010c13e:	74 0a                	je     ffff80000010c14a <list_next+0x1f>
ffff80000010c140:	48 8b 45 f8          	mov    -0x8(%rbp),%rax
ffff80000010c144:	48 8b 40 08          	mov    0x8(%rax),%rax
ffff80000010c148:	eb 05                	jmp    ffff80000010c14f <list_next+0x24>
ffff80000010c14a:	b8 00 00 00 00       	mov    $0x0,%eax
ffff80000010c14f:	5d                   	pop    %rbp
ffff80000010c150:	c3                   	retq   

ffff80000010c151 <memcpy>:
ffff80000010c151:	55                   	push   %rbp
ffff80000010c152:	48 89 e5             	mov    %rsp,%rbp
ffff80000010c155:	48 89 7d e8          	mov    %rdi,-0x18(%rbp)
ffff80000010c159:	48 89 75 e0          	mov    %rsi,-0x20(%rbp)
ffff80000010c15d:	48 89 55 d8          	mov    %rdx,-0x28(%rbp)
ffff80000010c161:	48 8b 45 d8          	mov    -0x28(%rbp),%rax
ffff80000010c165:	48 8d 50 07          	lea    0x7(%rax),%rdx
ffff80000010c169:	48 85 c0             	test   %rax,%rax
ffff80000010c16c:	48 0f 48 c2          	cmovs  %rdx,%rax
ffff80000010c170:	48 c1 f8 03          	sar    $0x3,%rax
ffff80000010c174:	48 8b 55 d8          	mov    -0x28(%rbp),%rdx
ffff80000010c178:	48 8b 7d e0          	mov    -0x20(%rbp),%rdi
ffff80000010c17c:	48 8b 75 e8          	mov    -0x18(%rbp),%rsi
ffff80000010c180:	48 89 c1             	mov    %rax,%rcx
ffff80000010c183:	fc                   	cld    
ffff80000010c184:	f3 48 a5             	rep movsq %ds:(%rsi),%es:(%rdi)
ffff80000010c187:	f6 c2 04             	test   $0x4,%dl
ffff80000010c18a:	74 01                	je     ffff80000010c18d <memcpy+0x3c>
ffff80000010c18c:	a5                   	movsl  %ds:(%rsi),%es:(%rdi)
ffff80000010c18d:	f6 c2 02             	test   $0x2,%dl
ffff80000010c190:	74 02                	je     ffff80000010c194 <memcpy+0x43>
ffff80000010c192:	66 a5                	movsw  %ds:(%rsi),%es:(%rdi)
ffff80000010c194:	f6 c2 01             	test   $0x1,%dl
ffff80000010c197:	74 01                	je     ffff80000010c19a <memcpy+0x49>
ffff80000010c199:	a4                   	movsb  %ds:(%rsi),%es:(%rdi)
ffff80000010c19a:	89 f0                	mov    %esi,%eax
ffff80000010c19c:	89 4d fc             	mov    %ecx,-0x4(%rbp)
ffff80000010c19f:	89 7d f8             	mov    %edi,-0x8(%rbp)
ffff80000010c1a2:	89 45 f4             	mov    %eax,-0xc(%rbp)
ffff80000010c1a5:	48 8b 45 e0          	mov    -0x20(%rbp),%rax
ffff80000010c1a9:	5d                   	pop    %rbp
ffff80000010c1aa:	c3                   	retq   

ffff80000010c1ab <memset>:
ffff80000010c1ab:	55                   	push   %rbp
ffff80000010c1ac:	48 89 e5             	mov    %rsp,%rbp
ffff80000010c1af:	48 89 7d e8          	mov    %rdi,-0x18(%rbp)
ffff80000010c1b3:	89 f0                	mov    %esi,%eax
ffff80000010c1b5:	48 89 55 d8          	mov    %rdx,-0x28(%rbp)
ffff80000010c1b9:	88 45 e4             	mov    %al,-0x1c(%rbp)
ffff80000010c1bc:	0f b6 55 e4          	movzbl -0x1c(%rbp),%edx
ffff80000010c1c0:	48 b8 01 01 01 01 01 	movabs $0x101010101010101,%rax
ffff80000010c1c7:	01 01 01 
ffff80000010c1ca:	48 0f af c2          	imul   %rdx,%rax
ffff80000010c1ce:	48 89 45 f8          	mov    %rax,-0x8(%rbp)
ffff80000010c1d2:	48 8b 45 d8          	mov    -0x28(%rbp),%rax
ffff80000010c1d6:	48 8d 50 07          	lea    0x7(%rax),%rdx
ffff80000010c1da:	48 85 c0             	test   %rax,%rax
ffff80000010c1dd:	48 0f 48 c2          	cmovs  %rdx,%rax
ffff80000010c1e1:	48 c1 f8 03          	sar    $0x3,%rax
ffff80000010c1e5:	48 89 c2             	mov    %rax,%rdx
ffff80000010c1e8:	48 8b 45 f8          	mov    -0x8(%rbp),%rax
ffff80000010c1ec:	48 8b 75 d8          	mov    -0x28(%rbp),%rsi
ffff80000010c1f0:	48 8b 7d e8          	mov    -0x18(%rbp),%rdi
ffff80000010c1f4:	48 89 d1             	mov    %rdx,%rcx
ffff80000010c1f7:	fc                   	cld    
ffff80000010c1f8:	f3 48 ab             	rep stos %rax,%es:(%rdi)
ffff80000010c1fb:	40 f6 c6 04          	test   $0x4,%sil
ffff80000010c1ff:	74 01                	je     ffff80000010c202 <memset+0x57>
ffff80000010c201:	ab                   	stos   %eax,%es:(%rdi)
ffff80000010c202:	40 f6 c6 02          	test   $0x2,%sil
ffff80000010c206:	74 02                	je     ffff80000010c20a <memset+0x5f>
ffff80000010c208:	66 ab                	stos   %ax,%es:(%rdi)
ffff80000010c20a:	40 f6 c6 01          	test   $0x1,%sil
ffff80000010c20e:	74 01                	je     ffff80000010c211 <memset+0x66>
ffff80000010c210:	aa                   	stos   %al,%es:(%rdi)
ffff80000010c211:	89 f8                	mov    %edi,%eax
ffff80000010c213:	89 ca                	mov    %ecx,%edx
ffff80000010c215:	89 55 f4             	mov    %edx,-0xc(%rbp)
ffff80000010c218:	89 45 f0             	mov    %eax,-0x10(%rbp)
ffff80000010c21b:	48 8b 45 e8          	mov    -0x18(%rbp),%rax
ffff80000010c21f:	5d                   	pop    %rbp
ffff80000010c220:	c3                   	retq   

ffff80000010c221 <wrmsr>:
ffff80000010c221:	55                   	push   %rbp
ffff80000010c222:	48 89 e5             	mov    %rsp,%rbp
ffff80000010c225:	48 89 7d f8          	mov    %rdi,-0x8(%rbp)
ffff80000010c229:	48 89 75 f0          	mov    %rsi,-0x10(%rbp)
ffff80000010c22d:	48 8b 45 f0          	mov    -0x10(%rbp),%rax
ffff80000010c231:	48 c1 e8 20          	shr    $0x20,%rax
ffff80000010c235:	48 89 c2             	mov    %rax,%rdx
ffff80000010c238:	48 8b 45 f0          	mov    -0x10(%rbp),%rax
ffff80000010c23c:	89 c0                	mov    %eax,%eax
ffff80000010c23e:	48 8b 4d f8          	mov    -0x8(%rbp),%rcx
ffff80000010c242:	0f 30                	wrmsr  
ffff80000010c244:	5d                   	pop    %rbp
ffff80000010c245:	c3                   	retq   
ffff80000010c246:	55                   	push   %rbp
ffff80000010c247:	48 89 e5             	mov    %rsp,%rbp
ffff80000010c24a:	0f 20 d8             	mov    %cr3,%rax
ffff80000010c24d:	48 89 45 f8          	mov    %rax,-0x8(%rbp)
ffff80000010c251:	48 8b 45 f8          	mov    -0x8(%rbp),%rax
ffff80000010c255:	5d                   	pop    %rbp
ffff80000010c256:	c3                   	retq   
ffff80000010c257:	55                   	push   %rbp
ffff80000010c258:	48 89 e5             	mov    %rsp,%rbp
ffff80000010c25b:	53                   	push   %rbx
ffff80000010c25c:	89 7d f4             	mov    %edi,-0xc(%rbp)
ffff80000010c25f:	89 75 f0             	mov    %esi,-0x10(%rbp)
ffff80000010c262:	48 89 55 e8          	mov    %rdx,-0x18(%rbp)
ffff80000010c266:	48 89 4d e0          	mov    %rcx,-0x20(%rbp)
ffff80000010c26a:	4c 89 45 d8          	mov    %r8,-0x28(%rbp)
ffff80000010c26e:	4c 89 4d d0          	mov    %r9,-0x30(%rbp)
ffff80000010c272:	8b 45 f4             	mov    -0xc(%rbp),%eax
ffff80000010c275:	8b 55 f0             	mov    -0x10(%rbp),%edx
ffff80000010c278:	89 d1                	mov    %edx,%ecx
ffff80000010c27a:	0f a2                	cpuid  
ffff80000010c27c:	89 de                	mov    %ebx,%esi
ffff80000010c27e:	48 8b 7d e8          	mov    -0x18(%rbp),%rdi
ffff80000010c282:	89 07                	mov    %eax,(%rdi)
ffff80000010c284:	48 8b 45 e0          	mov    -0x20(%rbp),%rax
ffff80000010c288:	89 30                	mov    %esi,(%rax)
ffff80000010c28a:	48 8b 45 d8          	mov    -0x28(%rbp),%rax
ffff80000010c28e:	89 08                	mov    %ecx,(%rax)
ffff80000010c290:	48 8b 45 d0          	mov    -0x30(%rbp),%rax
ffff80000010c294:	89 10                	mov    %edx,(%rax)
ffff80000010c296:	5b                   	pop    %rbx
ffff80000010c297:	5d                   	pop    %rbp
ffff80000010c298:	c3                   	retq   

ffff80000010c299 <get_current>:
ffff80000010c299:	55                   	push   %rbp
ffff80000010c29a:	48 89 e5             	mov    %rsp,%rbp
ffff80000010c29d:	48 c7 45 f8 00 00 00 	movq   $0x0,-0x8(%rbp)
ffff80000010c2a4:	00 
ffff80000010c2a5:	48 c7 c0 00 80 ff ff 	mov    $0xffffffffffff8000,%rax
ffff80000010c2ac:	48 21 e0             	and    %rsp,%rax
ffff80000010c2af:	48 89 45 f8          	mov    %rax,-0x8(%rbp)
ffff80000010c2b3:	48 8b 45 f8          	mov    -0x8(%rbp),%rax
ffff80000010c2b7:	5d                   	pop    %rbp
ffff80000010c2b8:	c3                   	retq   
ffff80000010c2b9:	55                   	push   %rbp
ffff80000010c2ba:	48 89 e5             	mov    %rsp,%rbp
ffff80000010c2bd:	48 89 7d f8          	mov    %rdi,-0x8(%rbp)
ffff80000010c2c1:	48 89 75 f0          	mov    %rsi,-0x10(%rbp)
ffff80000010c2c5:	48 89 55 e8          	mov    %rdx,-0x18(%rbp)
ffff80000010c2c9:	48 89 4d e0          	mov    %rcx,-0x20(%rbp)
ffff80000010c2cd:	4c 89 45 d8          	mov    %r8,-0x28(%rbp)
ffff80000010c2d1:	4c 89 4d d0          	mov    %r9,-0x30(%rbp)
ffff80000010c2d5:	48 b8 90 eb 10 00 00 	movabs $0xffff80000010eb90,%rax
ffff80000010c2dc:	80 ff ff 
ffff80000010c2df:	48 8b 55 f8          	mov    -0x8(%rbp),%rdx
ffff80000010c2e3:	48 89 10             	mov    %rdx,(%rax)
ffff80000010c2e6:	48 b8 98 eb 10 00 00 	movabs $0xffff80000010eb98,%rax
ffff80000010c2ed:	80 ff ff 
ffff80000010c2f0:	48 8b 55 f0          	mov    -0x10(%rbp),%rdx
ffff80000010c2f4:	48 89 10             	mov    %rdx,(%rax)
ffff80000010c2f7:	48 b8 a0 eb 10 00 00 	movabs $0xffff80000010eba0,%rax
ffff80000010c2fe:	80 ff ff 
ffff80000010c301:	48 8b 55 e8          	mov    -0x18(%rbp),%rdx
ffff80000010c305:	48 89 10             	mov    %rdx,(%rax)
ffff80000010c308:	48 b8 b0 eb 10 00 00 	movabs $0xffff80000010ebb0,%rax
ffff80000010c30f:	80 ff ff 
ffff80000010c312:	48 8b 55 e0          	mov    -0x20(%rbp),%rdx
ffff80000010c316:	48 89 10             	mov    %rdx,(%rax)
ffff80000010c319:	48 b8 b8 eb 10 00 00 	movabs $0xffff80000010ebb8,%rax
ffff80000010c320:	80 ff ff 
ffff80000010c323:	48 8b 55 d8          	mov    -0x28(%rbp),%rdx
ffff80000010c327:	48 89 10             	mov    %rdx,(%rax)
ffff80000010c32a:	48 b8 c0 eb 10 00 00 	movabs $0xffff80000010ebc0,%rax
ffff80000010c331:	80 ff ff 
ffff80000010c334:	48 8b 55 d0          	mov    -0x30(%rbp),%rdx
ffff80000010c338:	48 89 10             	mov    %rdx,(%rax)
ffff80000010c33b:	48 b8 c8 eb 10 00 00 	movabs $0xffff80000010ebc8,%rax
ffff80000010c342:	80 ff ff 
ffff80000010c345:	48 8b 55 10          	mov    0x10(%rbp),%rdx
ffff80000010c349:	48 89 10             	mov    %rdx,(%rax)
ffff80000010c34c:	48 b8 d0 eb 10 00 00 	movabs $0xffff80000010ebd0,%rax
ffff80000010c353:	80 ff ff 
ffff80000010c356:	48 8b 55 18          	mov    0x18(%rbp),%rdx
ffff80000010c35a:	48 89 10             	mov    %rdx,(%rax)
ffff80000010c35d:	48 b8 d8 eb 10 00 00 	movabs $0xffff80000010ebd8,%rax
ffff80000010c364:	80 ff ff 
ffff80000010c367:	48 8b 55 20          	mov    0x20(%rbp),%rdx
ffff80000010c36b:	48 89 10             	mov    %rdx,(%rax)
ffff80000010c36e:	48 b8 e0 eb 10 00 00 	movabs $0xffff80000010ebe0,%rax
ffff80000010c375:	80 ff ff 
ffff80000010c378:	48 8b 55 28          	mov    0x28(%rbp),%rdx
ffff80000010c37c:	48 89 10             	mov    %rdx,(%rax)
ffff80000010c37f:	5d                   	pop    %rbp
ffff80000010c380:	c3                   	retq   

ffff80000010c381 <no_system_call>:
ffff80000010c381:	55                   	push   %rbp
ffff80000010c382:	48 89 e5             	mov    %rsp,%rbp
ffff80000010c385:	48 83 ec 10          	sub    $0x10,%rsp
ffff80000010c389:	48 89 7d f8          	mov    %rdi,-0x8(%rbp)
ffff80000010c38d:	48 8b 45 f8          	mov    -0x8(%rbp),%rax
ffff80000010c391:	48 8b 80 80 00 00 00 	mov    0x80(%rax),%rax
ffff80000010c398:	48 89 c1             	mov    %rax,%rcx
ffff80000010c39b:	48 ba 60 ab 11 00 00 	movabs $0xffff80000011ab60,%rdx
ffff80000010c3a2:	80 ff ff 
ffff80000010c3a5:	be 00 00 00 00       	mov    $0x0,%esi
ffff80000010c3aa:	bf 00 00 ff 00       	mov    $0xff0000,%edi
ffff80000010c3af:	b8 00 00 00 00       	mov    $0x0,%eax
ffff80000010c3b4:	49 b8 d0 56 10 00 00 	movabs $0xffff8000001056d0,%r8
ffff80000010c3bb:	80 ff ff 
ffff80000010c3be:	41 ff d0             	callq  *%r8
ffff80000010c3c1:	48 c7 c0 ff ff ff ff 	mov    $0xffffffffffffffff,%rax
ffff80000010c3c8:	c9                   	leaveq 
ffff80000010c3c9:	c3                   	retq   

ffff80000010c3ca <sys_printf>:
ffff80000010c3ca:	55                   	push   %rbp
ffff80000010c3cb:	48 89 e5             	mov    %rsp,%rbp
ffff80000010c3ce:	48 83 ec 10          	sub    $0x10,%rsp
ffff80000010c3d2:	48 89 7d f8          	mov    %rdi,-0x8(%rbp)
ffff80000010c3d6:	48 8b 45 f8          	mov    -0x8(%rbp),%rax
ffff80000010c3da:	48 8b 40 60          	mov    0x60(%rax),%rax
ffff80000010c3de:	48 89 c2             	mov    %rax,%rdx
ffff80000010c3e1:	be ff ff ff 00       	mov    $0xffffff,%esi
ffff80000010c3e6:	bf 00 00 00 00       	mov    $0x0,%edi
ffff80000010c3eb:	b8 00 00 00 00       	mov    $0x0,%eax
ffff80000010c3f0:	48 b9 d0 56 10 00 00 	movabs $0xffff8000001056d0,%rcx
ffff80000010c3f7:	80 ff ff 
ffff80000010c3fa:	ff d1                	callq  *%rcx
ffff80000010c3fc:	b8 01 00 00 00       	mov    $0x1,%eax
ffff80000010c401:	c9                   	leaveq 
ffff80000010c402:	c3                   	retq   

ffff80000010c403 <user_level_function>:
ffff80000010c403:	55                   	push   %rbp
ffff80000010c404:	48 89 e5             	mov    %rsp,%rbp
ffff80000010c407:	48 c7 45 f8 00 00 00 	movq   $0x0,-0x8(%rbp)
ffff80000010c40e:	00 
ffff80000010c40f:	48 b8 48 65 6c 6c 6f 	movabs $0x6f57206f6c6c6548,%rax
ffff80000010c416:	20 57 6f 
ffff80000010c419:	48 89 45 e0          	mov    %rax,-0x20(%rbp)
ffff80000010c41d:	c7 45 e8 72 6c 64 21 	movl   $0x21646c72,-0x18(%rbp)
ffff80000010c424:	66 c7 45 ec 0a 00    	movw   $0xa,-0x14(%rbp)
ffff80000010c42a:	b8 01 00 00 00       	mov    $0x1,%eax
ffff80000010c42f:	48 8d 55 e0          	lea    -0x20(%rbp),%rdx
ffff80000010c433:	48 89 d7             	mov    %rdx,%rdi
ffff80000010c436:	48 8d 15 05 00 00 00 	lea    0x5(%rip),%rdx        # ffff80000010c442 <sysexit_return_address>
ffff80000010c43d:	48 89 e1             	mov    %rsp,%rcx
ffff80000010c440:	0f 34                	sysenter 

ffff80000010c442 <sysexit_return_address>:
ffff80000010c442:	48 89 45 f8          	mov    %rax,-0x8(%rbp)
ffff80000010c446:	eb fe                	jmp    ffff80000010c446 <sysexit_return_address+0x4>

ffff80000010c448 <do_execve>:
ffff80000010c448:	55                   	push   %rbp
ffff80000010c449:	48 89 e5             	mov    %rsp,%rbp
ffff80000010c44c:	48 83 ec 10          	sub    $0x10,%rsp
ffff80000010c450:	48 89 7d f8          	mov    %rdi,-0x8(%rbp)
ffff80000010c454:	48 8b 45 f8          	mov    -0x8(%rbp),%rax
ffff80000010c458:	48 c7 40 50 00 00 80 	movq   $0x800000,0x50(%rax)
ffff80000010c45f:	00 
ffff80000010c460:	48 8b 45 f8          	mov    -0x8(%rbp),%rax
ffff80000010c464:	48 c7 40 48 00 00 a0 	movq   $0xa00000,0x48(%rax)
ffff80000010c46b:	00 
ffff80000010c46c:	48 8b 45 f8          	mov    -0x8(%rbp),%rax
ffff80000010c470:	48 c7 80 80 00 00 00 	movq   $0x1,0x80(%rax)
ffff80000010c477:	01 00 00 00 
ffff80000010c47b:	48 8b 45 f8          	mov    -0x8(%rbp),%rax
ffff80000010c47f:	48 c7 40 70 00 00 00 	movq   $0x0,0x70(%rax)
ffff80000010c486:	00 
ffff80000010c487:	48 8b 45 f8          	mov    -0x8(%rbp),%rax
ffff80000010c48b:	48 c7 40 78 00 00 00 	movq   $0x0,0x78(%rax)
ffff80000010c492:	00 
ffff80000010c493:	48 ba 84 ab 11 00 00 	movabs $0xffff80000011ab84,%rdx
ffff80000010c49a:	80 ff ff 
ffff80000010c49d:	be 00 00 00 00       	mov    $0x0,%esi
ffff80000010c4a2:	bf 00 00 ff 00       	mov    $0xff0000,%edi
ffff80000010c4a7:	b8 00 00 00 00       	mov    $0x0,%eax
ffff80000010c4ac:	48 b9 d0 56 10 00 00 	movabs $0xffff8000001056d0,%rcx
ffff80000010c4b3:	80 ff ff 
ffff80000010c4b6:	ff d1                	callq  *%rcx
ffff80000010c4b8:	ba 00 04 00 00       	mov    $0x400,%edx
ffff80000010c4bd:	be 00 00 80 00       	mov    $0x800000,%esi
ffff80000010c4c2:	48 bf 03 c4 10 00 00 	movabs $0xffff80000010c403,%rdi
ffff80000010c4c9:	80 ff ff 
ffff80000010c4cc:	48 b8 51 c1 10 00 00 	movabs $0xffff80000010c151,%rax
ffff80000010c4d3:	80 ff ff 
ffff80000010c4d6:	ff d0                	callq  *%rax
ffff80000010c4d8:	b8 00 00 00 00       	mov    $0x0,%eax
ffff80000010c4dd:	c9                   	leaveq 
ffff80000010c4de:	c3                   	retq   

ffff80000010c4df <init>:
ffff80000010c4df:	55                   	push   %rbp
ffff80000010c4e0:	48 89 e5             	mov    %rsp,%rbp
ffff80000010c4e3:	53                   	push   %rbx
ffff80000010c4e4:	48 83 ec 28          	sub    $0x28,%rsp
ffff80000010c4e8:	48 89 7d d8          	mov    %rdi,-0x28(%rbp)
ffff80000010c4ec:	48 8b 45 d8          	mov    -0x28(%rbp),%rax
ffff80000010c4f0:	48 89 c1             	mov    %rax,%rcx
ffff80000010c4f3:	48 ba a0 ab 11 00 00 	movabs $0xffff80000011aba0,%rdx
ffff80000010c4fa:	80 ff ff 
ffff80000010c4fd:	be 00 00 00 00       	mov    $0x0,%esi
ffff80000010c502:	bf 00 00 ff 00       	mov    $0xff0000,%edi
ffff80000010c507:	b8 00 00 00 00       	mov    $0x0,%eax
ffff80000010c50c:	49 b8 d0 56 10 00 00 	movabs $0xffff8000001056d0,%r8
ffff80000010c513:	80 ff ff 
ffff80000010c516:	41 ff d0             	callq  *%r8
ffff80000010c519:	b8 00 00 00 00       	mov    $0x0,%eax
ffff80000010c51e:	48 ba 99 c2 10 00 00 	movabs $0xffff80000010c299,%rdx
ffff80000010c525:	80 ff ff 
ffff80000010c528:	ff d2                	callq  *%rdx
ffff80000010c52a:	48 8b 40 30          	mov    0x30(%rax),%rax
ffff80000010c52e:	48 ba 64 40 10 00 00 	movabs $0xffff800000104064,%rdx
ffff80000010c535:	80 ff ff 
ffff80000010c538:	48 89 50 08          	mov    %rdx,0x8(%rax)
ffff80000010c53c:	b8 00 00 00 00       	mov    $0x0,%eax
ffff80000010c541:	48 ba 99 c2 10 00 00 	movabs $0xffff80000010c299,%rdx
ffff80000010c548:	80 ff ff 
ffff80000010c54b:	ff d2                	callq  *%rdx
ffff80000010c54d:	48 8b 58 30          	mov    0x30(%rax),%rbx
ffff80000010c551:	b8 00 00 00 00       	mov    $0x0,%eax
ffff80000010c556:	48 ba 99 c2 10 00 00 	movabs $0xffff80000010c299,%rdx
ffff80000010c55d:	80 ff ff 
ffff80000010c560:	ff d2                	callq  *%rdx
ffff80000010c562:	48 05 40 7f 00 00    	add    $0x7f40,%rax
ffff80000010c568:	48 89 43 10          	mov    %rax,0x10(%rbx)
ffff80000010c56c:	b8 00 00 00 00       	mov    $0x0,%eax
ffff80000010c571:	48 ba 99 c2 10 00 00 	movabs $0xffff80000010c299,%rdx
ffff80000010c578:	80 ff ff 
ffff80000010c57b:	ff d2                	callq  *%rdx
ffff80000010c57d:	48 8b 40 30          	mov    0x30(%rax),%rax
ffff80000010c581:	48 8b 40 10          	mov    0x10(%rax),%rax
ffff80000010c585:	48 89 45 e8          	mov    %rax,-0x18(%rbp)
ffff80000010c589:	b8 00 00 00 00       	mov    $0x0,%eax
ffff80000010c58e:	48 ba 99 c2 10 00 00 	movabs $0xffff80000010c299,%rdx
ffff80000010c595:	80 ff ff 
ffff80000010c598:	ff d2                	callq  *%rdx
ffff80000010c59a:	48 8b 58 30          	mov    0x30(%rax),%rbx
ffff80000010c59e:	b8 00 00 00 00       	mov    $0x0,%eax
ffff80000010c5a3:	48 ba 99 c2 10 00 00 	movabs $0xffff80000010c299,%rdx
ffff80000010c5aa:	80 ff ff 
ffff80000010c5ad:	ff d2                	callq  *%rdx
ffff80000010c5af:	48 8b 50 30          	mov    0x30(%rax),%rdx
ffff80000010c5b3:	48 8b 45 e8          	mov    -0x18(%rbp),%rax
ffff80000010c5b7:	48 89 c7             	mov    %rax,%rdi
ffff80000010c5ba:	48 8b 63 10          	mov    0x10(%rbx),%rsp
ffff80000010c5be:	ff 72 08             	pushq  0x8(%rdx)
ffff80000010c5c1:	e9 82 fe ff ff       	jmpq   ffff80000010c448 <do_execve>
ffff80000010c5c6:	b8 01 00 00 00       	mov    $0x1,%eax
ffff80000010c5cb:	48 83 c4 28          	add    $0x28,%rsp
ffff80000010c5cf:	5b                   	pop    %rbx
ffff80000010c5d0:	5d                   	pop    %rbp
ffff80000010c5d1:	c3                   	retq   

ffff80000010c5d2 <do_fork>:
ffff80000010c5d2:	55                   	push   %rbp
ffff80000010c5d3:	48 89 e5             	mov    %rsp,%rbp
ffff80000010c5d6:	48 83 ec 40          	sub    $0x40,%rsp
ffff80000010c5da:	48 89 7d d8          	mov    %rdi,-0x28(%rbp)
ffff80000010c5de:	48 89 75 d0          	mov    %rsi,-0x30(%rbp)
ffff80000010c5e2:	48 89 55 c8          	mov    %rdx,-0x38(%rbp)
ffff80000010c5e6:	48 89 4d c0          	mov    %rcx,-0x40(%rbp)
ffff80000010c5ea:	48 c7 45 f8 00 00 00 	movq   $0x0,-0x8(%rbp)
ffff80000010c5f1:	00 
ffff80000010c5f2:	48 c7 45 f0 00 00 00 	movq   $0x0,-0x10(%rbp)
ffff80000010c5f9:	00 
ffff80000010c5fa:	48 c7 45 e8 00 00 00 	movq   $0x0,-0x18(%rbp)
ffff80000010c601:	00 
ffff80000010c602:	48 b8 e0 15 13 00 00 	movabs $0xffff8000001315e0,%rax
ffff80000010c609:	80 ff ff 
ffff80000010c60c:	48 8b 80 88 02 00 00 	mov    0x288(%rax),%rax
ffff80000010c613:	48 8b 00             	mov    (%rax),%rax
ffff80000010c616:	48 89 c1             	mov    %rax,%rcx
ffff80000010c619:	48 ba c2 ab 11 00 00 	movabs $0xffff80000011abc2,%rdx
ffff80000010c620:	80 ff ff 
ffff80000010c623:	be 00 00 00 00       	mov    $0x0,%esi
ffff80000010c628:	bf ff ff ff 00       	mov    $0xffffff,%edi
ffff80000010c62d:	b8 00 00 00 00       	mov    $0x0,%eax
ffff80000010c632:	49 b8 d0 56 10 00 00 	movabs $0xffff8000001056d0,%r8
ffff80000010c639:	80 ff ff 
ffff80000010c63c:	41 ff d0             	callq  *%r8
ffff80000010c63f:	ba 09 00 00 00       	mov    $0x9,%edx
ffff80000010c644:	be 01 00 00 00       	mov    $0x1,%esi
ffff80000010c649:	bf 02 00 00 00       	mov    $0x2,%edi
ffff80000010c64e:	48 b8 75 7d 10 00 00 	movabs $0xffff800000107d75,%rax
ffff80000010c655:	80 ff ff 
ffff80000010c658:	ff d0                	callq  *%rax
ffff80000010c65a:	48 89 45 e8          	mov    %rax,-0x18(%rbp)
ffff80000010c65e:	48 b8 e0 15 13 00 00 	movabs $0xffff8000001315e0,%rax
ffff80000010c665:	80 ff ff 
ffff80000010c668:	48 8b 80 88 02 00 00 	mov    0x288(%rax),%rax
ffff80000010c66f:	48 8b 00             	mov    (%rax),%rax
ffff80000010c672:	48 89 c1             	mov    %rax,%rcx
ffff80000010c675:	48 ba c2 ab 11 00 00 	movabs $0xffff80000011abc2,%rdx
ffff80000010c67c:	80 ff ff 
ffff80000010c67f:	be 00 00 00 00       	mov    $0x0,%esi
ffff80000010c684:	bf ff ff ff 00       	mov    $0xffffff,%edi
ffff80000010c689:	b8 00 00 00 00       	mov    $0x0,%eax
ffff80000010c68e:	49 b8 d0 56 10 00 00 	movabs $0xffff8000001056d0,%r8
ffff80000010c695:	80 ff ff 
ffff80000010c698:	41 ff d0             	callq  *%r8
ffff80000010c69b:	48 8b 45 e8          	mov    -0x18(%rbp),%rax
ffff80000010c69f:	48 8b 50 08          	mov    0x8(%rax),%rdx
ffff80000010c6a3:	48 b8 00 00 00 00 00 	movabs $0xffff800000000000,%rax
ffff80000010c6aa:	80 ff ff 
ffff80000010c6ad:	48 01 d0             	add    %rdx,%rax
ffff80000010c6b0:	48 89 45 f8          	mov    %rax,-0x8(%rbp)
ffff80000010c6b4:	48 8b 45 f8          	mov    -0x8(%rbp),%rax
ffff80000010c6b8:	48 89 c1             	mov    %rax,%rcx
ffff80000010c6bb:	48 ba e0 ab 11 00 00 	movabs $0xffff80000011abe0,%rdx
ffff80000010c6c2:	80 ff ff 
ffff80000010c6c5:	be 00 00 00 00       	mov    $0x0,%esi
ffff80000010c6ca:	bf ff ff ff 00       	mov    $0xffffff,%edi
ffff80000010c6cf:	b8 00 00 00 00       	mov    $0x0,%eax
ffff80000010c6d4:	49 b8 d0 56 10 00 00 	movabs $0xffff8000001056d0,%r8
ffff80000010c6db:	80 ff ff 
ffff80000010c6de:	41 ff d0             	callq  *%r8
ffff80000010c6e1:	48 8b 45 f8          	mov    -0x8(%rbp),%rax
ffff80000010c6e5:	ba 60 00 00 00       	mov    $0x60,%edx
ffff80000010c6ea:	be 00 00 00 00       	mov    $0x0,%esi
ffff80000010c6ef:	48 89 c7             	mov    %rax,%rdi
ffff80000010c6f2:	48 b8 ab c1 10 00 00 	movabs $0xffff80000010c1ab,%rax
ffff80000010c6f9:	80 ff ff 
ffff80000010c6fc:	ff d0                	callq  *%rax
ffff80000010c6fe:	b8 00 00 00 00       	mov    $0x0,%eax
ffff80000010c703:	48 ba 99 c2 10 00 00 	movabs $0xffff80000010c299,%rdx
ffff80000010c70a:	80 ff ff 
ffff80000010c70d:	ff d2                	callq  *%rdx
ffff80000010c70f:	48 8b 55 f8          	mov    -0x8(%rbp),%rdx
ffff80000010c713:	48 8b 08             	mov    (%rax),%rcx
ffff80000010c716:	48 89 0a             	mov    %rcx,(%rdx)
ffff80000010c719:	48 8b 48 08          	mov    0x8(%rax),%rcx
ffff80000010c71d:	48 89 4a 08          	mov    %rcx,0x8(%rdx)
ffff80000010c721:	48 8b 48 10          	mov    0x10(%rax),%rcx
ffff80000010c725:	48 89 4a 10          	mov    %rcx,0x10(%rdx)
ffff80000010c729:	48 8b 48 18          	mov    0x18(%rax),%rcx
ffff80000010c72d:	48 89 4a 18          	mov    %rcx,0x18(%rdx)
ffff80000010c731:	48 8b 48 20          	mov    0x20(%rax),%rcx
ffff80000010c735:	48 89 4a 20          	mov    %rcx,0x20(%rdx)
ffff80000010c739:	48 8b 48 28          	mov    0x28(%rax),%rcx
ffff80000010c73d:	48 89 4a 28          	mov    %rcx,0x28(%rdx)
ffff80000010c741:	48 8b 48 30          	mov    0x30(%rax),%rcx
ffff80000010c745:	48 89 4a 30          	mov    %rcx,0x30(%rdx)
ffff80000010c749:	48 8b 48 38          	mov    0x38(%rax),%rcx
ffff80000010c74d:	48 89 4a 38          	mov    %rcx,0x38(%rdx)
ffff80000010c751:	48 8b 48 40          	mov    0x40(%rax),%rcx
ffff80000010c755:	48 89 4a 40          	mov    %rcx,0x40(%rdx)
ffff80000010c759:	48 8b 48 48          	mov    0x48(%rax),%rcx
ffff80000010c75d:	48 89 4a 48          	mov    %rcx,0x48(%rdx)
ffff80000010c761:	48 8b 48 50          	mov    0x50(%rax),%rcx
ffff80000010c765:	48 89 4a 50          	mov    %rcx,0x50(%rdx)
ffff80000010c769:	48 8b 40 58          	mov    0x58(%rax),%rax
ffff80000010c76d:	48 89 42 58          	mov    %rax,0x58(%rdx)
ffff80000010c771:	48 8b 45 f8          	mov    -0x8(%rbp),%rax
ffff80000010c775:	48 89 c7             	mov    %rax,%rdi
ffff80000010c778:	48 b8 c8 c0 10 00 00 	movabs $0xffff80000010c0c8,%rax
ffff80000010c77f:	80 ff ff 
ffff80000010c782:	ff d0                	callq  *%rax
ffff80000010c784:	48 8b 45 f8          	mov    -0x8(%rbp),%rax
ffff80000010c788:	48 89 c6             	mov    %rax,%rsi
ffff80000010c78b:	48 bf 00 00 12 00 00 	movabs $0xffff800000120000,%rdi
ffff80000010c792:	80 ff ff 
ffff80000010c795:	48 b8 e9 c0 10 00 00 	movabs $0xffff80000010c0e9,%rax
ffff80000010c79c:	80 ff ff 
ffff80000010c79f:	ff d0                	callq  *%rax
ffff80000010c7a1:	48 8b 45 f8          	mov    -0x8(%rbp),%rax
ffff80000010c7a5:	48 8b 40 40          	mov    0x40(%rax),%rax
ffff80000010c7a9:	48 8d 50 01          	lea    0x1(%rax),%rdx
ffff80000010c7ad:	48 8b 45 f8          	mov    -0x8(%rbp),%rax
ffff80000010c7b1:	48 89 50 40          	mov    %rdx,0x40(%rax)
ffff80000010c7b5:	48 8b 45 f8          	mov    -0x8(%rbp),%rax
ffff80000010c7b9:	48 c7 40 10 04 00 00 	movq   $0x4,0x10(%rax)
ffff80000010c7c0:	00 
ffff80000010c7c1:	48 8b 45 f8          	mov    -0x8(%rbp),%rax
ffff80000010c7c5:	48 83 c0 60          	add    $0x60,%rax
ffff80000010c7c9:	48 89 45 f0          	mov    %rax,-0x10(%rbp)
ffff80000010c7cd:	48 8b 45 f8          	mov    -0x8(%rbp),%rax
ffff80000010c7d1:	48 8b 55 f0          	mov    -0x10(%rbp),%rdx
ffff80000010c7d5:	48 89 50 30          	mov    %rdx,0x30(%rax)
ffff80000010c7d9:	48 8b 45 f8          	mov    -0x8(%rbp),%rax
ffff80000010c7dd:	48 05 40 7f 00 00    	add    $0x7f40,%rax
ffff80000010c7e3:	48 89 c1             	mov    %rax,%rcx
ffff80000010c7e6:	48 8b 45 d8          	mov    -0x28(%rbp),%rax
ffff80000010c7ea:	ba c0 00 00 00       	mov    $0xc0,%edx
ffff80000010c7ef:	48 89 ce             	mov    %rcx,%rsi
ffff80000010c7f2:	48 89 c7             	mov    %rax,%rdi
ffff80000010c7f5:	48 b8 51 c1 10 00 00 	movabs $0xffff80000010c151,%rax
ffff80000010c7fc:	80 ff ff 
ffff80000010c7ff:	ff d0                	callq  *%rax
ffff80000010c801:	48 8b 45 f8          	mov    -0x8(%rbp),%rax
ffff80000010c805:	48 8d 90 00 80 00 00 	lea    0x8000(%rax),%rdx
ffff80000010c80c:	48 8b 45 f0          	mov    -0x10(%rbp),%rax
ffff80000010c810:	48 89 10             	mov    %rdx,(%rax)
ffff80000010c813:	48 8b 45 d8          	mov    -0x28(%rbp),%rax
ffff80000010c817:	48 8b 90 98 00 00 00 	mov    0x98(%rax),%rdx
ffff80000010c81e:	48 8b 45 f0          	mov    -0x10(%rbp),%rax
ffff80000010c822:	48 89 50 08          	mov    %rdx,0x8(%rax)
ffff80000010c826:	48 8b 45 f8          	mov    -0x8(%rbp),%rax
ffff80000010c82a:	48 8d 90 40 7f 00 00 	lea    0x7f40(%rax),%rdx
ffff80000010c831:	48 8b 45 f0          	mov    -0x10(%rbp),%rax
ffff80000010c835:	48 89 50 10          	mov    %rdx,0x10(%rax)
ffff80000010c839:	48 8b 45 f8          	mov    -0x8(%rbp),%rax
ffff80000010c83d:	48 8b 40 18          	mov    0x18(%rax),%rax
ffff80000010c841:	83 e0 01             	and    $0x1,%eax
ffff80000010c844:	48 85 c0             	test   %rax,%rax
ffff80000010c847:	75 28                	jne    ffff80000010c871 <do_fork+0x29f>
ffff80000010c849:	48 ba 64 40 10 00 00 	movabs $0xffff800000104064,%rdx
ffff80000010c850:	80 ff ff 
ffff80000010c853:	48 8b 45 d8          	mov    -0x28(%rbp),%rax
ffff80000010c857:	48 89 90 98 00 00 00 	mov    %rdx,0x98(%rax)
ffff80000010c85e:	48 8b 45 d8          	mov    -0x28(%rbp),%rax
ffff80000010c862:	48 8b 90 98 00 00 00 	mov    0x98(%rax),%rdx
ffff80000010c869:	48 8b 45 f0          	mov    -0x10(%rbp),%rax
ffff80000010c86d:	48 89 50 08          	mov    %rdx,0x8(%rax)
ffff80000010c871:	48 8b 45 f8          	mov    -0x8(%rbp),%rax
ffff80000010c875:	48 c7 40 10 01 00 00 	movq   $0x1,0x10(%rax)
ffff80000010c87c:	00 
ffff80000010c87d:	b8 00 00 00 00       	mov    $0x0,%eax
ffff80000010c882:	c9                   	leaveq 
ffff80000010c883:	c3                   	retq   

ffff80000010c884 <do_exit>:
ffff80000010c884:	55                   	push   %rbp
ffff80000010c885:	48 89 e5             	mov    %rsp,%rbp
ffff80000010c888:	48 83 ec 10          	sub    $0x10,%rsp
ffff80000010c88c:	48 89 7d f8          	mov    %rdi,-0x8(%rbp)
ffff80000010c890:	48 8b 45 f8          	mov    -0x8(%rbp),%rax
ffff80000010c894:	48 89 c1             	mov    %rax,%rcx
ffff80000010c897:	48 ba 08 ac 11 00 00 	movabs $0xffff80000011ac08,%rdx
ffff80000010c89e:	80 ff ff 
ffff80000010c8a1:	be 00 00 00 00       	mov    $0x0,%esi
ffff80000010c8a6:	bf 00 00 ff 00       	mov    $0xff0000,%edi
ffff80000010c8ab:	b8 00 00 00 00       	mov    $0x0,%eax
ffff80000010c8b0:	49 b8 d0 56 10 00 00 	movabs $0xffff8000001056d0,%r8
ffff80000010c8b7:	80 ff ff 
ffff80000010c8ba:	41 ff d0             	callq  *%r8
ffff80000010c8bd:	eb fe                	jmp    ffff80000010c8bd <do_exit+0x39>

ffff80000010c8bf <system_call_function>:
ffff80000010c8bf:	55                   	push   %rbp
ffff80000010c8c0:	48 89 e5             	mov    %rsp,%rbp
ffff80000010c8c3:	48 83 ec 10          	sub    $0x10,%rsp
ffff80000010c8c7:	48 89 7d f8          	mov    %rdi,-0x8(%rbp)
ffff80000010c8cb:	48 8b 45 f8          	mov    -0x8(%rbp),%rax
ffff80000010c8cf:	48 8b 90 80 00 00 00 	mov    0x80(%rax),%rdx
ffff80000010c8d6:	48 b8 60 6a 11 00 00 	movabs $0xffff800000116a60,%rax
ffff80000010c8dd:	80 ff ff 
ffff80000010c8e0:	48 8b 04 d0          	mov    (%rax,%rdx,8),%rax
ffff80000010c8e4:	48 8b 55 f8          	mov    -0x8(%rbp),%rdx
ffff80000010c8e8:	48 89 d7             	mov    %rdx,%rdi
ffff80000010c8eb:	ff d0                	callq  *%rax
ffff80000010c8ed:	c9                   	leaveq 
ffff80000010c8ee:	c3                   	retq   

ffff80000010c8ef <kernel_thread_func>:
ffff80000010c8ef:	41 5f                	pop    %r15
ffff80000010c8f1:	41 5e                	pop    %r14
ffff80000010c8f3:	41 5d                	pop    %r13
ffff80000010c8f5:	41 5c                	pop    %r12
ffff80000010c8f7:	41 5b                	pop    %r11
ffff80000010c8f9:	41 5a                	pop    %r10
ffff80000010c8fb:	41 59                	pop    %r9
ffff80000010c8fd:	41 58                	pop    %r8
ffff80000010c8ff:	5b                   	pop    %rbx
ffff80000010c900:	59                   	pop    %rcx
ffff80000010c901:	5a                   	pop    %rdx
ffff80000010c902:	5e                   	pop    %rsi
ffff80000010c903:	5f                   	pop    %rdi
ffff80000010c904:	5d                   	pop    %rbp
ffff80000010c905:	58                   	pop    %rax
ffff80000010c906:	48 8e d8             	mov    %rax,%ds
ffff80000010c909:	58                   	pop    %rax
ffff80000010c90a:	48 8e c0             	mov    %rax,%es
ffff80000010c90d:	58                   	pop    %rax
ffff80000010c90e:	48 83 c4 38          	add    $0x38,%rsp
ffff80000010c912:	48 89 d7             	mov    %rdx,%rdi
ffff80000010c915:	ff d3                	callq  *%rbx
ffff80000010c917:	48 89 c7             	mov    %rax,%rdi
ffff80000010c91a:	e8 65 ff ff ff       	callq  ffff80000010c884 <do_exit>

ffff80000010c91f <kernel_thread>:
ffff80000010c91f:	55                   	push   %rbp
ffff80000010c920:	48 89 e5             	mov    %rsp,%rbp
ffff80000010c923:	48 81 ec e0 00 00 00 	sub    $0xe0,%rsp
ffff80000010c92a:	48 89 bd 38 ff ff ff 	mov    %rdi,-0xc8(%rbp)
ffff80000010c931:	48 89 b5 30 ff ff ff 	mov    %rsi,-0xd0(%rbp)
ffff80000010c938:	48 89 95 28 ff ff ff 	mov    %rdx,-0xd8(%rbp)
ffff80000010c93f:	48 8d 85 40 ff ff ff 	lea    -0xc0(%rbp),%rax
ffff80000010c946:	ba c0 00 00 00       	mov    $0xc0,%edx
ffff80000010c94b:	be 00 00 00 00       	mov    $0x0,%esi
ffff80000010c950:	48 89 c7             	mov    %rax,%rdi
ffff80000010c953:	48 b8 ab c1 10 00 00 	movabs $0xffff80000010c1ab,%rax
ffff80000010c95a:	80 ff ff 
ffff80000010c95d:	ff d0                	callq  *%rax
ffff80000010c95f:	48 8b 85 38 ff ff ff 	mov    -0xc8(%rbp),%rax
ffff80000010c966:	48 89 45 80          	mov    %rax,-0x80(%rbp)
ffff80000010c96a:	48 8b 85 30 ff ff ff 	mov    -0xd0(%rbp),%rax
ffff80000010c971:	48 89 45 90          	mov    %rax,-0x70(%rbp)
ffff80000010c975:	48 c7 45 b0 10 00 00 	movq   $0x10,-0x50(%rbp)
ffff80000010c97c:	00 
ffff80000010c97d:	48 c7 45 b8 10 00 00 	movq   $0x10,-0x48(%rbp)
ffff80000010c984:	00 
ffff80000010c985:	48 c7 45 e0 08 00 00 	movq   $0x8,-0x20(%rbp)
ffff80000010c98c:	00 
ffff80000010c98d:	48 c7 45 f8 10 00 00 	movq   $0x10,-0x8(%rbp)
ffff80000010c994:	00 
ffff80000010c995:	48 c7 45 e8 00 02 00 	movq   $0x200,-0x18(%rbp)
ffff80000010c99c:	00 
ffff80000010c99d:	48 b8 ef c8 10 00 00 	movabs $0xffff80000010c8ef,%rax
ffff80000010c9a4:	80 ff ff 
ffff80000010c9a7:	48 89 45 d8          	mov    %rax,-0x28(%rbp)
ffff80000010c9ab:	48 8b b5 28 ff ff ff 	mov    -0xd8(%rbp),%rsi
ffff80000010c9b2:	48 8d 85 40 ff ff ff 	lea    -0xc0(%rbp),%rax
ffff80000010c9b9:	b9 00 00 00 00       	mov    $0x0,%ecx
ffff80000010c9be:	ba 00 00 00 00       	mov    $0x0,%edx
ffff80000010c9c3:	48 89 c7             	mov    %rax,%rdi
ffff80000010c9c6:	48 b8 d2 c5 10 00 00 	movabs $0xffff80000010c5d2,%rax
ffff80000010c9cd:	80 ff ff 
ffff80000010c9d0:	ff d0                	callq  *%rax
ffff80000010c9d2:	c9                   	leaveq 
ffff80000010c9d3:	c3                   	retq   

ffff80000010c9d4 <__switch_to>:
ffff80000010c9d4:	55                   	push   %rbp
ffff80000010c9d5:	48 89 e5             	mov    %rsp,%rbp
ffff80000010c9d8:	53                   	push   %rbx
ffff80000010c9d9:	48 83 ec 38          	sub    $0x38,%rsp
ffff80000010c9dd:	48 89 7d e8          	mov    %rdi,-0x18(%rbp)
ffff80000010c9e1:	48 89 75 e0          	mov    %rsi,-0x20(%rbp)
ffff80000010c9e5:	48 8b 45 e0          	mov    -0x20(%rbp),%rax
ffff80000010c9e9:	48 8b 40 30          	mov    0x30(%rax),%rax
ffff80000010c9ed:	48 8b 10             	mov    (%rax),%rdx
ffff80000010c9f0:	48 b8 00 00 11 00 00 	movabs $0xffff800000110000,%rax
ffff80000010c9f7:	80 ff ff 
ffff80000010c9fa:	48 89 50 04          	mov    %rdx,0x4(%rax)
ffff80000010c9fe:	48 b8 00 00 11 00 00 	movabs $0xffff800000110000,%rax
ffff80000010ca05:	80 ff ff 
ffff80000010ca08:	4c 8b 50 54          	mov    0x54(%rax),%r10
ffff80000010ca0c:	48 b8 00 00 11 00 00 	movabs $0xffff800000110000,%rax
ffff80000010ca13:	80 ff ff 
ffff80000010ca16:	4c 8b 48 4c          	mov    0x4c(%rax),%r9
ffff80000010ca1a:	48 b8 00 00 11 00 00 	movabs $0xffff800000110000,%rax
ffff80000010ca21:	80 ff ff 
ffff80000010ca24:	4c 8b 40 44          	mov    0x44(%rax),%r8
ffff80000010ca28:	48 b8 00 00 11 00 00 	movabs $0xffff800000110000,%rax
ffff80000010ca2f:	80 ff ff 
ffff80000010ca32:	48 8b 78 3c          	mov    0x3c(%rax),%rdi
ffff80000010ca36:	48 b8 00 00 11 00 00 	movabs $0xffff800000110000,%rax
ffff80000010ca3d:	80 ff ff 
ffff80000010ca40:	48 8b 58 34          	mov    0x34(%rax),%rbx
ffff80000010ca44:	48 b8 00 00 11 00 00 	movabs $0xffff800000110000,%rax
ffff80000010ca4b:	80 ff ff 
ffff80000010ca4e:	4c 8b 58 2c          	mov    0x2c(%rax),%r11
ffff80000010ca52:	48 b8 00 00 11 00 00 	movabs $0xffff800000110000,%rax
ffff80000010ca59:	80 ff ff 
ffff80000010ca5c:	48 8b 48 24          	mov    0x24(%rax),%rcx
ffff80000010ca60:	48 b8 00 00 11 00 00 	movabs $0xffff800000110000,%rax
ffff80000010ca67:	80 ff ff 
ffff80000010ca6a:	48 8b 50 14          	mov    0x14(%rax),%rdx
ffff80000010ca6e:	48 b8 00 00 11 00 00 	movabs $0xffff800000110000,%rax
ffff80000010ca75:	80 ff ff 
ffff80000010ca78:	48 8b 70 0c          	mov    0xc(%rax),%rsi
ffff80000010ca7c:	48 b8 00 00 11 00 00 	movabs $0xffff800000110000,%rax
ffff80000010ca83:	80 ff ff 
ffff80000010ca86:	48 8b 40 04          	mov    0x4(%rax),%rax
ffff80000010ca8a:	4c 89 54 24 18       	mov    %r10,0x18(%rsp)
ffff80000010ca8f:	4c 89 4c 24 10       	mov    %r9,0x10(%rsp)
ffff80000010ca94:	4c 89 44 24 08       	mov    %r8,0x8(%rsp)
ffff80000010ca99:	48 89 3c 24          	mov    %rdi,(%rsp)
ffff80000010ca9d:	49 89 d9             	mov    %rbx,%r9
ffff80000010caa0:	4d 89 d8             	mov    %r11,%r8
ffff80000010caa3:	48 89 c7             	mov    %rax,%rdi
ffff80000010caa6:	48 b8 75 42 10 00 00 	movabs $0xffff800000104275,%rax
ffff80000010caad:	80 ff ff 
ffff80000010cab0:	ff d0                	callq  *%rax
ffff80000010cab2:	48 8b 45 e8          	mov    -0x18(%rbp),%rax
ffff80000010cab6:	48 8b 50 30          	mov    0x30(%rax),%rdx
ffff80000010caba:	48 8c e0             	mov    %fs,%rax
ffff80000010cabd:	48 89 42 18          	mov    %rax,0x18(%rdx)
ffff80000010cac1:	48 8b 45 e8          	mov    -0x18(%rbp),%rax
ffff80000010cac5:	48 8b 50 30          	mov    0x30(%rax),%rdx
ffff80000010cac9:	48 8c e8             	mov    %gs,%rax
ffff80000010cacc:	48 89 42 20          	mov    %rax,0x20(%rdx)
ffff80000010cad0:	48 8b 45 e0          	mov    -0x20(%rbp),%rax
ffff80000010cad4:	48 8b 40 30          	mov    0x30(%rax),%rax
ffff80000010cad8:	48 8b 40 18          	mov    0x18(%rax),%rax
ffff80000010cadc:	48 8e e0             	mov    %rax,%fs
ffff80000010cadf:	48 8b 45 e0          	mov    -0x20(%rbp),%rax
ffff80000010cae3:	48 8b 40 30          	mov    0x30(%rax),%rax
ffff80000010cae7:	48 8b 40 20          	mov    0x20(%rax),%rax
ffff80000010caeb:	48 8e e8             	mov    %rax,%gs
ffff80000010caee:	48 8b 45 e8          	mov    -0x18(%rbp),%rax
ffff80000010caf2:	48 8b 40 30          	mov    0x30(%rax),%rax
ffff80000010caf6:	48 8b 00             	mov    (%rax),%rax
ffff80000010caf9:	48 89 c1             	mov    %rax,%rcx
ffff80000010cafc:	48 ba 2a ac 11 00 00 	movabs $0xffff80000011ac2a,%rdx
ffff80000010cb03:	80 ff ff 
ffff80000010cb06:	be 00 00 00 00       	mov    $0x0,%esi
ffff80000010cb0b:	bf ff ff ff 00       	mov    $0xffffff,%edi
ffff80000010cb10:	b8 00 00 00 00       	mov    $0x0,%eax
ffff80000010cb15:	49 b8 d0 56 10 00 00 	movabs $0xffff8000001056d0,%r8
ffff80000010cb1c:	80 ff ff 
ffff80000010cb1f:	41 ff d0             	callq  *%r8
ffff80000010cb22:	48 8b 45 e0          	mov    -0x20(%rbp),%rax
ffff80000010cb26:	48 8b 40 30          	mov    0x30(%rax),%rax
ffff80000010cb2a:	48 8b 00             	mov    (%rax),%rax
ffff80000010cb2d:	48 89 c1             	mov    %rax,%rcx
ffff80000010cb30:	48 ba 46 ac 11 00 00 	movabs $0xffff80000011ac46,%rdx
ffff80000010cb37:	80 ff ff 
ffff80000010cb3a:	be 00 00 00 00       	mov    $0x0,%esi
ffff80000010cb3f:	bf ff ff ff 00       	mov    $0xffffff,%edi
ffff80000010cb44:	b8 00 00 00 00       	mov    $0x0,%eax
ffff80000010cb49:	49 b8 d0 56 10 00 00 	movabs $0xffff8000001056d0,%r8
ffff80000010cb50:	80 ff ff 
ffff80000010cb53:	41 ff d0             	callq  *%r8
ffff80000010cb56:	48 83 c4 38          	add    $0x38,%rsp
ffff80000010cb5a:	5b                   	pop    %rbx
ffff80000010cb5b:	5d                   	pop    %rbp
ffff80000010cb5c:	c3                   	retq   

ffff80000010cb5d <task_init>:
ffff80000010cb5d:	55                   	push   %rbp
ffff80000010cb5e:	48 89 e5             	mov    %rsp,%rbp
ffff80000010cb61:	41 56                	push   %r14
ffff80000010cb63:	41 55                	push   %r13
ffff80000010cb65:	41 54                	push   %r12
ffff80000010cb67:	53                   	push   %rbx
ffff80000010cb68:	48 83 ec 30          	sub    $0x30,%rsp
ffff80000010cb6c:	48 c7 45 d8 00 00 00 	movq   $0x0,-0x28(%rbp)
ffff80000010cb73:	00 
ffff80000010cb74:	48 b8 00 10 13 00 00 	movabs $0xffff800000131000,%rax
ffff80000010cb7b:	80 ff ff 
ffff80000010cb7e:	48 8b 10             	mov    (%rax),%rdx
ffff80000010cb81:	48 b8 20 10 13 00 00 	movabs $0xffff800000131020,%rax
ffff80000010cb88:	80 ff ff 
ffff80000010cb8b:	48 89 10             	mov    %rdx,(%rax)
ffff80000010cb8e:	48 b8 e0 15 13 00 00 	movabs $0xffff8000001315e0,%rax
ffff80000010cb95:	80 ff ff 
ffff80000010cb98:	48 8b 90 d0 02 00 00 	mov    0x2d0(%rax),%rdx
ffff80000010cb9f:	48 b8 20 10 13 00 00 	movabs $0xffff800000131020,%rax
ffff80000010cba6:	80 ff ff 
ffff80000010cba9:	48 89 50 08          	mov    %rdx,0x8(%rax)
ffff80000010cbad:	48 b8 e0 15 13 00 00 	movabs $0xffff8000001315e0,%rax
ffff80000010cbb4:	80 ff ff 
ffff80000010cbb7:	48 8b 90 d8 02 00 00 	mov    0x2d8(%rax),%rdx
ffff80000010cbbe:	48 b8 20 10 13 00 00 	movabs $0xffff800000131020,%rax
ffff80000010cbc5:	80 ff ff 
ffff80000010cbc8:	48 89 50 10          	mov    %rdx,0x10(%rax)
ffff80000010cbcc:	48 ba e0 da 10 00 00 	movabs $0xffff80000010dae0,%rdx
ffff80000010cbd3:	80 ff ff 
ffff80000010cbd6:	48 b8 20 10 13 00 00 	movabs $0xffff800000131020,%rax
ffff80000010cbdd:	80 ff ff 
ffff80000010cbe0:	48 89 50 18          	mov    %rdx,0x18(%rax)
ffff80000010cbe4:	48 b8 e0 15 13 00 00 	movabs $0xffff8000001315e0,%rax
ffff80000010cbeb:	80 ff ff 
ffff80000010cbee:	48 8b 90 e0 02 00 00 	mov    0x2e0(%rax),%rdx
ffff80000010cbf5:	48 b8 20 10 13 00 00 	movabs $0xffff800000131020,%rax
ffff80000010cbfc:	80 ff ff 
ffff80000010cbff:	48 89 50 20          	mov    %rdx,0x20(%rax)
ffff80000010cc03:	48 ba 28 96 11 00 00 	movabs $0xffff800000119628,%rdx
ffff80000010cc0a:	80 ff ff 
ffff80000010cc0d:	48 b8 20 10 13 00 00 	movabs $0xffff800000131020,%rax
ffff80000010cc14:	80 ff ff 
ffff80000010cc17:	48 89 50 28          	mov    %rdx,0x28(%rax)
ffff80000010cc1b:	48 ba ac ad 11 00 00 	movabs $0xffff80000011adac,%rdx
ffff80000010cc22:	80 ff ff 
ffff80000010cc25:	48 b8 20 10 13 00 00 	movabs $0xffff800000131020,%rax
ffff80000010cc2c:	80 ff ff 
ffff80000010cc2f:	48 89 50 30          	mov    %rdx,0x30(%rax)
ffff80000010cc33:	48 b8 20 10 13 00 00 	movabs $0xffff800000131020,%rax
ffff80000010cc3a:	80 ff ff 
ffff80000010cc3d:	48 c7 40 38 00 00 00 	movq   $0x0,0x38(%rax)
ffff80000010cc44:	00 
ffff80000010cc45:	48 b8 e0 15 13 00 00 	movabs $0xffff8000001315e0,%rax
ffff80000010cc4c:	80 ff ff 
ffff80000010cc4f:	48 8b 90 f8 02 00 00 	mov    0x2f8(%rax),%rdx
ffff80000010cc56:	48 b8 20 10 13 00 00 	movabs $0xffff800000131020,%rax
ffff80000010cc5d:	80 ff ff 
ffff80000010cc60:	48 89 50 40          	mov    %rdx,0x40(%rax)
ffff80000010cc64:	48 b8 be 01 10 00 00 	movabs $0xffff8000001001be,%rax
ffff80000010cc6b:	80 ff ff 
ffff80000010cc6e:	48 8b 10             	mov    (%rax),%rdx
ffff80000010cc71:	48 b8 20 10 13 00 00 	movabs $0xffff800000131020,%rax
ffff80000010cc78:	80 ff ff 
ffff80000010cc7b:	48 89 50 48          	mov    %rdx,0x48(%rax)
ffff80000010cc7f:	be 08 00 00 00       	mov    $0x8,%esi
ffff80000010cc84:	bf 74 01 00 00       	mov    $0x174,%edi
ffff80000010cc89:	48 b8 21 c2 10 00 00 	movabs $0xffff80000010c221,%rax
ffff80000010cc90:	80 ff ff 
ffff80000010cc93:	ff d0                	callq  *%rax
ffff80000010cc95:	b8 00 00 00 00       	mov    $0x0,%eax
ffff80000010cc9a:	48 ba 99 c2 10 00 00 	movabs $0xffff80000010c299,%rdx
ffff80000010cca1:	80 ff ff 
ffff80000010cca4:	ff d2                	callq  *%rdx
ffff80000010cca6:	48 8b 40 30          	mov    0x30(%rax),%rax
ffff80000010ccaa:	48 8b 00             	mov    (%rax),%rax
ffff80000010ccad:	48 89 c6             	mov    %rax,%rsi
ffff80000010ccb0:	bf 75 01 00 00       	mov    $0x175,%edi
ffff80000010ccb5:	48 b8 21 c2 10 00 00 	movabs $0xffff80000010c221,%rax
ffff80000010ccbc:	80 ff ff 
ffff80000010ccbf:	ff d0                	callq  *%rax
ffff80000010ccc1:	48 b8 27 40 10 00 00 	movabs $0xffff800000104027,%rax
ffff80000010ccc8:	80 ff ff 
ffff80000010cccb:	48 89 c6             	mov    %rax,%rsi
ffff80000010ccce:	bf 76 01 00 00       	mov    $0x176,%edi
ffff80000010ccd3:	48 b8 21 c2 10 00 00 	movabs $0xffff80000010c221,%rax
ffff80000010ccda:	80 ff ff 
ffff80000010ccdd:	ff d0                	callq  *%rax
ffff80000010ccdf:	48 b8 00 00 11 00 00 	movabs $0xffff800000110000,%rax
ffff80000010cce6:	80 ff ff 
ffff80000010cce9:	4c 8b 50 54          	mov    0x54(%rax),%r10
ffff80000010cced:	48 b8 00 00 11 00 00 	movabs $0xffff800000110000,%rax
ffff80000010ccf4:	80 ff ff 
ffff80000010ccf7:	4c 8b 48 4c          	mov    0x4c(%rax),%r9
ffff80000010ccfb:	48 b8 00 00 11 00 00 	movabs $0xffff800000110000,%rax
ffff80000010cd02:	80 ff ff 
ffff80000010cd05:	4c 8b 40 44          	mov    0x44(%rax),%r8
ffff80000010cd09:	48 b8 00 00 11 00 00 	movabs $0xffff800000110000,%rax
ffff80000010cd10:	80 ff ff 
ffff80000010cd13:	48 8b 78 3c          	mov    0x3c(%rax),%rdi
ffff80000010cd17:	48 b8 00 00 11 00 00 	movabs $0xffff800000110000,%rax
ffff80000010cd1e:	80 ff ff 
ffff80000010cd21:	48 8b 58 34          	mov    0x34(%rax),%rbx
ffff80000010cd25:	48 b8 00 00 11 00 00 	movabs $0xffff800000110000,%rax
ffff80000010cd2c:	80 ff ff 
ffff80000010cd2f:	4c 8b 58 2c          	mov    0x2c(%rax),%r11
ffff80000010cd33:	48 b8 00 00 11 00 00 	movabs $0xffff800000110000,%rax
ffff80000010cd3a:	80 ff ff 
ffff80000010cd3d:	48 8b 48 24          	mov    0x24(%rax),%rcx
ffff80000010cd41:	48 b8 00 00 11 00 00 	movabs $0xffff800000110000,%rax
ffff80000010cd48:	80 ff ff 
ffff80000010cd4b:	48 8b 50 14          	mov    0x14(%rax),%rdx
ffff80000010cd4f:	48 b8 00 00 11 00 00 	movabs $0xffff800000110000,%rax
ffff80000010cd56:	80 ff ff 
ffff80000010cd59:	48 8b 70 0c          	mov    0xc(%rax),%rsi
ffff80000010cd5d:	48 b8 80 ff 10 00 00 	movabs $0xffff80000010ff80,%rax
ffff80000010cd64:	80 ff ff 
ffff80000010cd67:	48 8b 00             	mov    (%rax),%rax
ffff80000010cd6a:	4c 89 54 24 18       	mov    %r10,0x18(%rsp)
ffff80000010cd6f:	4c 89 4c 24 10       	mov    %r9,0x10(%rsp)
ffff80000010cd74:	4c 89 44 24 08       	mov    %r8,0x8(%rsp)
ffff80000010cd79:	48 89 3c 24          	mov    %rdi,(%rsp)
ffff80000010cd7d:	49 89 d9             	mov    %rbx,%r9
ffff80000010cd80:	4d 89 d8             	mov    %r11,%r8
ffff80000010cd83:	48 89 c7             	mov    %rax,%rdi
ffff80000010cd86:	48 b8 75 42 10 00 00 	movabs $0xffff800000104275,%rax
ffff80000010cd8d:	80 ff ff 
ffff80000010cd90:	ff d0                	callq  *%rax
ffff80000010cd92:	48 b8 80 ff 10 00 00 	movabs $0xffff80000010ff80,%rax
ffff80000010cd99:	80 ff ff 
ffff80000010cd9c:	48 8b 10             	mov    (%rax),%rdx
ffff80000010cd9f:	48 b8 00 00 11 00 00 	movabs $0xffff800000110000,%rax
ffff80000010cda6:	80 ff ff 
ffff80000010cda9:	48 89 50 04          	mov    %rdx,0x4(%rax)
ffff80000010cdad:	48 bf 00 00 12 00 00 	movabs $0xffff800000120000,%rdi
ffff80000010cdb4:	80 ff ff 
ffff80000010cdb7:	48 b8 c8 c0 10 00 00 	movabs $0xffff80000010c0c8,%rax
ffff80000010cdbe:	80 ff ff 
ffff80000010cdc1:	ff d0                	callq  *%rax
ffff80000010cdc3:	ba 07 00 00 00       	mov    $0x7,%edx
ffff80000010cdc8:	be 0a 00 00 00       	mov    $0xa,%esi
ffff80000010cdcd:	48 bf df c4 10 00 00 	movabs $0xffff80000010c4df,%rdi
ffff80000010cdd4:	80 ff ff 
ffff80000010cdd7:	48 b8 1f c9 10 00 00 	movabs $0xffff80000010c91f,%rax
ffff80000010cdde:	80 ff ff 
ffff80000010cde1:	ff d0                	callq  *%rax
ffff80000010cde3:	48 b8 00 00 12 00 00 	movabs $0xffff800000120000,%rax
ffff80000010cdea:	80 ff ff 
ffff80000010cded:	48 c7 40 10 01 00 00 	movq   $0x1,0x10(%rax)
ffff80000010cdf4:	00 
ffff80000010cdf5:	b8 00 00 00 00       	mov    $0x0,%eax
ffff80000010cdfa:	48 ba 99 c2 10 00 00 	movabs $0xffff80000010c299,%rdx
ffff80000010ce01:	80 ff ff 
ffff80000010ce04:	ff d2                	callq  *%rdx
ffff80000010ce06:	48 89 c7             	mov    %rax,%rdi
ffff80000010ce09:	48 b8 2b c1 10 00 00 	movabs $0xffff80000010c12b,%rax
ffff80000010ce10:	80 ff ff 
ffff80000010ce13:	ff d0                	callq  *%rax
ffff80000010ce15:	48 89 45 d0          	mov    %rax,-0x30(%rbp)
ffff80000010ce19:	48 8b 45 d0          	mov    -0x30(%rbp),%rax
ffff80000010ce1d:	48 89 45 d8          	mov    %rax,-0x28(%rbp)
ffff80000010ce21:	b8 00 00 00 00       	mov    $0x0,%eax
ffff80000010ce26:	48 ba 99 c2 10 00 00 	movabs $0xffff80000010c299,%rdx
ffff80000010ce2d:	80 ff ff 
ffff80000010ce30:	ff d2                	callq  *%rdx
ffff80000010ce32:	48 8b 58 30          	mov    0x30(%rax),%rbx
ffff80000010ce36:	b8 00 00 00 00       	mov    $0x0,%eax
ffff80000010ce3b:	48 ba 99 c2 10 00 00 	movabs $0xffff80000010c299,%rdx
ffff80000010ce42:	80 ff ff 
ffff80000010ce45:	ff d2                	callq  *%rdx
ffff80000010ce47:	4c 8b 70 30          	mov    0x30(%rax),%r14
ffff80000010ce4b:	48 8b 45 d8          	mov    -0x28(%rbp),%rax
ffff80000010ce4f:	4c 8b 60 30          	mov    0x30(%rax),%r12
ffff80000010ce53:	48 8b 45 d8          	mov    -0x28(%rbp),%rax
ffff80000010ce57:	4c 8b 68 30          	mov    0x30(%rax),%r13
ffff80000010ce5b:	b8 00 00 00 00       	mov    $0x0,%eax
ffff80000010ce60:	48 ba 99 c2 10 00 00 	movabs $0xffff80000010c299,%rdx
ffff80000010ce67:	80 ff ff 
ffff80000010ce6a:	ff d2                	callq  *%rdx
ffff80000010ce6c:	48 8b 55 d8          	mov    -0x28(%rbp),%rdx
ffff80000010ce70:	48 89 c7             	mov    %rax,%rdi
ffff80000010ce73:	48 89 d6             	mov    %rdx,%rsi
ffff80000010ce76:	55                   	push   %rbp
ffff80000010ce77:	50                   	push   %rax
ffff80000010ce78:	48 89 63 10          	mov    %rsp,0x10(%rbx)
ffff80000010ce7c:	49 8b 64 24 10       	mov    0x10(%r12),%rsp
ffff80000010ce81:	48 8d 05 0d 00 00 00 	lea    0xd(%rip),%rax        # ffff80000010ce95 <task_init+0x338>
ffff80000010ce88:	49 89 46 08          	mov    %rax,0x8(%r14)
ffff80000010ce8c:	41 ff 75 08          	pushq  0x8(%r13)
ffff80000010ce90:	e9 3f fb ff ff       	jmpq   ffff80000010c9d4 <__switch_to>
ffff80000010ce95:	58                   	pop    %rax
ffff80000010ce96:	5d                   	pop    %rbp
ffff80000010ce97:	48 83 c4 30          	add    $0x30,%rsp
ffff80000010ce9b:	5b                   	pop    %rbx
ffff80000010ce9c:	41 5c                	pop    %r12
ffff80000010ce9e:	41 5d                	pop    %r13
ffff80000010cea0:	41 5e                	pop    %r14
ffff80000010cea2:	5d                   	pop    %rbp
ffff80000010cea3:	c3                   	retq   
ffff80000010cea4:	55                   	push   %rbp
ffff80000010cea5:	48 89 e5             	mov    %rsp,%rbp
ffff80000010cea8:	53                   	push   %rbx
ffff80000010cea9:	89 7d f4             	mov    %edi,-0xc(%rbp)
ffff80000010ceac:	89 75 f0             	mov    %esi,-0x10(%rbp)
ffff80000010ceaf:	48 89 55 e8          	mov    %rdx,-0x18(%rbp)
ffff80000010ceb3:	48 89 4d e0          	mov    %rcx,-0x20(%rbp)
ffff80000010ceb7:	4c 89 45 d8          	mov    %r8,-0x28(%rbp)
ffff80000010cebb:	4c 89 4d d0          	mov    %r9,-0x30(%rbp)
ffff80000010cebf:	8b 45 f4             	mov    -0xc(%rbp),%eax
ffff80000010cec2:	8b 55 f0             	mov    -0x10(%rbp),%edx
ffff80000010cec5:	89 d1                	mov    %edx,%ecx
ffff80000010cec7:	0f a2                	cpuid  
ffff80000010cec9:	89 de                	mov    %ebx,%esi
ffff80000010cecb:	48 8b 7d e8          	mov    -0x18(%rbp),%rdi
ffff80000010cecf:	89 07                	mov    %eax,(%rdi)
ffff80000010ced1:	48 8b 45 e0          	mov    -0x20(%rbp),%rax
ffff80000010ced5:	89 30                	mov    %esi,(%rax)
ffff80000010ced7:	48 8b 45 d8          	mov    -0x28(%rbp),%rax
ffff80000010cedb:	89 08                	mov    %ecx,(%rax)
ffff80000010cedd:	48 8b 45 d0          	mov    -0x30(%rbp),%rax
ffff80000010cee1:	89 10                	mov    %edx,(%rax)
ffff80000010cee3:	5b                   	pop    %rbx
ffff80000010cee4:	5d                   	pop    %rbp
ffff80000010cee5:	c3                   	retq   

ffff80000010cee6 <init_cpu>:
ffff80000010cee6:	55                   	push   %rbp
ffff80000010cee7:	48 89 e5             	mov    %rsp,%rbp
ffff80000010ceea:	48 83 ec 60          	sub    $0x60,%rsp
ffff80000010ceee:	c7 45 e0 00 00 00 00 	movl   $0x0,-0x20(%rbp)
ffff80000010cef5:	c7 45 e4 00 00 00 00 	movl   $0x0,-0x1c(%rbp)
ffff80000010cefc:	c7 45 e8 00 00 00 00 	movl   $0x0,-0x18(%rbp)
ffff80000010cf03:	c7 45 ec 00 00 00 00 	movl   $0x0,-0x14(%rbp)
ffff80000010cf0a:	48 c7 45 c0 00 00 00 	movq   $0x0,-0x40(%rbp)
ffff80000010cf11:	00 
ffff80000010cf12:	48 c7 45 c8 00 00 00 	movq   $0x0,-0x38(%rbp)
ffff80000010cf19:	00 
ffff80000010cf1a:	c6 45 d0 00          	movb   $0x0,-0x30(%rbp)
ffff80000010cf1e:	48 8d 45 e0          	lea    -0x20(%rbp),%rax
ffff80000010cf22:	48 8d 70 0c          	lea    0xc(%rax),%rsi
ffff80000010cf26:	48 8d 45 e0          	lea    -0x20(%rbp),%rax
ffff80000010cf2a:	48 8d 48 08          	lea    0x8(%rax),%rcx
ffff80000010cf2e:	48 8d 45 e0          	lea    -0x20(%rbp),%rax
ffff80000010cf32:	48 8d 50 04          	lea    0x4(%rax),%rdx
ffff80000010cf36:	48 8d 45 e0          	lea    -0x20(%rbp),%rax
ffff80000010cf3a:	49 89 f1             	mov    %rsi,%r9
ffff80000010cf3d:	49 89 c8             	mov    %rcx,%r8
ffff80000010cf40:	48 89 d1             	mov    %rdx,%rcx
ffff80000010cf43:	48 89 c2             	mov    %rax,%rdx
ffff80000010cf46:	be 00 00 00 00       	mov    $0x0,%esi
ffff80000010cf4b:	bf 00 00 00 00       	mov    $0x0,%edi
ffff80000010cf50:	48 b8 4e 43 10 00 00 	movabs $0xffff80000010434e,%rax
ffff80000010cf57:	80 ff ff 
ffff80000010cf5a:	ff d0                	callq  *%rax
ffff80000010cf5c:	48 8d 45 c0          	lea    -0x40(%rbp),%rax
ffff80000010cf60:	8b 55 e4             	mov    -0x1c(%rbp),%edx
ffff80000010cf63:	89 10                	mov    %edx,(%rax)
ffff80000010cf65:	48 8d 45 c0          	lea    -0x40(%rbp),%rax
ffff80000010cf69:	48 8d 50 04          	lea    0x4(%rax),%rdx
ffff80000010cf6d:	8b 45 ec             	mov    -0x14(%rbp),%eax
ffff80000010cf70:	89 02                	mov    %eax,(%rdx)
ffff80000010cf72:	48 8d 45 c0          	lea    -0x40(%rbp),%rax
ffff80000010cf76:	48 8d 50 08          	lea    0x8(%rax),%rdx
ffff80000010cf7a:	8b 45 e8             	mov    -0x18(%rbp),%eax
ffff80000010cf7d:	89 02                	mov    %eax,(%rdx)
ffff80000010cf7f:	c6 45 cc 00          	movb   $0x0,-0x34(%rbp)
ffff80000010cf83:	8b 55 e8             	mov    -0x18(%rbp),%edx
ffff80000010cf86:	8b 75 ec             	mov    -0x14(%rbp),%esi
ffff80000010cf89:	8b 4d e4             	mov    -0x1c(%rbp),%ecx
ffff80000010cf8c:	48 8d 45 c0          	lea    -0x40(%rbp),%rax
ffff80000010cf90:	89 14 24             	mov    %edx,(%rsp)
ffff80000010cf93:	41 89 f1             	mov    %esi,%r9d
ffff80000010cf96:	41 89 c8             	mov    %ecx,%r8d
ffff80000010cf99:	48 89 c1             	mov    %rax,%rcx
ffff80000010cf9c:	48 ba 68 ac 11 00 00 	movabs $0xffff80000011ac68,%rdx
ffff80000010cfa3:	80 ff ff 
ffff80000010cfa6:	be 00 00 00 00       	mov    $0x0,%esi
ffff80000010cfab:	bf 00 ff ff 00       	mov    $0xffff00,%edi
ffff80000010cfb0:	b8 00 00 00 00       	mov    $0x0,%eax
ffff80000010cfb5:	49 ba d0 56 10 00 00 	movabs $0xffff8000001056d0,%r10
ffff80000010cfbc:	80 ff ff 
ffff80000010cfbf:	41 ff d2             	callq  *%r10
ffff80000010cfc2:	c7 45 fc 02 00 00 80 	movl   $0x80000002,-0x4(%rbp)
ffff80000010cfc9:	e9 9d 00 00 00       	jmpq   ffff80000010d06b <init_cpu+0x185>
ffff80000010cfce:	8b 45 fc             	mov    -0x4(%rbp),%eax
ffff80000010cfd1:	48 8d 55 e0          	lea    -0x20(%rbp),%rdx
ffff80000010cfd5:	48 8d 7a 0c          	lea    0xc(%rdx),%rdi
ffff80000010cfd9:	48 8d 55 e0          	lea    -0x20(%rbp),%rdx
ffff80000010cfdd:	48 8d 72 08          	lea    0x8(%rdx),%rsi
ffff80000010cfe1:	48 8d 55 e0          	lea    -0x20(%rbp),%rdx
ffff80000010cfe5:	48 8d 4a 04          	lea    0x4(%rdx),%rcx
ffff80000010cfe9:	48 8d 55 e0          	lea    -0x20(%rbp),%rdx
ffff80000010cfed:	49 89 f9             	mov    %rdi,%r9
ffff80000010cff0:	49 89 f0             	mov    %rsi,%r8
ffff80000010cff3:	be 00 00 00 00       	mov    $0x0,%esi
ffff80000010cff8:	89 c7                	mov    %eax,%edi
ffff80000010cffa:	48 b8 4e 43 10 00 00 	movabs $0xffff80000010434e,%rax
ffff80000010d001:	80 ff ff 
ffff80000010d004:	ff d0                	callq  *%rax
ffff80000010d006:	48 8d 45 c0          	lea    -0x40(%rbp),%rax
ffff80000010d00a:	8b 55 e0             	mov    -0x20(%rbp),%edx
ffff80000010d00d:	89 10                	mov    %edx,(%rax)
ffff80000010d00f:	48 8d 45 c0          	lea    -0x40(%rbp),%rax
ffff80000010d013:	48 8d 50 04          	lea    0x4(%rax),%rdx
ffff80000010d017:	8b 45 e4             	mov    -0x1c(%rbp),%eax
ffff80000010d01a:	89 02                	mov    %eax,(%rdx)
ffff80000010d01c:	48 8d 45 c0          	lea    -0x40(%rbp),%rax
ffff80000010d020:	48 8d 50 08          	lea    0x8(%rax),%rdx
ffff80000010d024:	8b 45 e8             	mov    -0x18(%rbp),%eax
ffff80000010d027:	89 02                	mov    %eax,(%rdx)
ffff80000010d029:	48 8d 45 c0          	lea    -0x40(%rbp),%rax
ffff80000010d02d:	48 8d 50 0c          	lea    0xc(%rax),%rdx
ffff80000010d031:	8b 45 ec             	mov    -0x14(%rbp),%eax
ffff80000010d034:	89 02                	mov    %eax,(%rdx)
ffff80000010d036:	c6 45 d0 00          	movb   $0x0,-0x30(%rbp)
ffff80000010d03a:	48 8d 45 c0          	lea    -0x40(%rbp),%rax
ffff80000010d03e:	48 89 c1             	mov    %rax,%rcx
ffff80000010d041:	48 ba 81 ac 11 00 00 	movabs $0xffff80000011ac81,%rdx
ffff80000010d048:	80 ff ff 
ffff80000010d04b:	be 00 00 00 00       	mov    $0x0,%esi
ffff80000010d050:	bf 00 ff ff 00       	mov    $0xffff00,%edi
ffff80000010d055:	b8 00 00 00 00       	mov    $0x0,%eax
ffff80000010d05a:	49 b8 d0 56 10 00 00 	movabs $0xffff8000001056d0,%r8
ffff80000010d061:	80 ff ff 
ffff80000010d064:	41 ff d0             	callq  *%r8
ffff80000010d067:	83 45 fc 01          	addl   $0x1,-0x4(%rbp)
ffff80000010d06b:	8b 45 fc             	mov    -0x4(%rbp),%eax
ffff80000010d06e:	3d 04 00 00 80       	cmp    $0x80000004,%eax
ffff80000010d073:	0f 86 55 ff ff ff    	jbe    ffff80000010cfce <init_cpu+0xe8>
ffff80000010d079:	48 ba 84 ac 11 00 00 	movabs $0xffff80000011ac84,%rdx
ffff80000010d080:	80 ff ff 
ffff80000010d083:	be 00 00 00 00       	mov    $0x0,%esi
ffff80000010d088:	bf 00 ff ff 00       	mov    $0xffff00,%edi
ffff80000010d08d:	b8 00 00 00 00       	mov    $0x0,%eax
ffff80000010d092:	48 b9 d0 56 10 00 00 	movabs $0xffff8000001056d0,%rcx
ffff80000010d099:	80 ff ff 
ffff80000010d09c:	ff d1                	callq  *%rcx
ffff80000010d09e:	48 8d 45 e0          	lea    -0x20(%rbp),%rax
ffff80000010d0a2:	48 8d 70 0c          	lea    0xc(%rax),%rsi
ffff80000010d0a6:	48 8d 45 e0          	lea    -0x20(%rbp),%rax
ffff80000010d0aa:	48 8d 48 08          	lea    0x8(%rax),%rcx
ffff80000010d0ae:	48 8d 45 e0          	lea    -0x20(%rbp),%rax
ffff80000010d0b2:	48 8d 50 04          	lea    0x4(%rax),%rdx
ffff80000010d0b6:	48 8d 45 e0          	lea    -0x20(%rbp),%rax
ffff80000010d0ba:	49 89 f1             	mov    %rsi,%r9
ffff80000010d0bd:	49 89 c8             	mov    %rcx,%r8
ffff80000010d0c0:	48 89 d1             	mov    %rdx,%rcx
ffff80000010d0c3:	48 89 c2             	mov    %rax,%rdx
ffff80000010d0c6:	be 00 00 00 00       	mov    $0x0,%esi
ffff80000010d0cb:	bf 01 00 00 00       	mov    $0x1,%edi
ffff80000010d0d0:	48 b8 4e 43 10 00 00 	movabs $0xffff80000010434e,%rax
ffff80000010d0d7:	80 ff ff 
ffff80000010d0da:	ff d0                	callq  *%rax
ffff80000010d0dc:	8b 45 e0             	mov    -0x20(%rbp),%eax
ffff80000010d0df:	83 e0 0f             	and    $0xf,%eax
ffff80000010d0e2:	89 c7                	mov    %eax,%edi
ffff80000010d0e4:	8b 45 e0             	mov    -0x20(%rbp),%eax
ffff80000010d0e7:	c1 e8 0c             	shr    $0xc,%eax
ffff80000010d0ea:	83 e0 03             	and    $0x3,%eax
ffff80000010d0ed:	89 c6                	mov    %eax,%esi
ffff80000010d0ef:	8b 45 e0             	mov    -0x20(%rbp),%eax
ffff80000010d0f2:	c1 e8 10             	shr    $0x10,%eax
ffff80000010d0f5:	83 e0 0f             	and    $0xf,%eax
ffff80000010d0f8:	89 c1                	mov    %eax,%ecx
ffff80000010d0fa:	8b 45 e0             	mov    -0x20(%rbp),%eax
ffff80000010d0fd:	c1 e8 04             	shr    $0x4,%eax
ffff80000010d100:	83 e0 0f             	and    $0xf,%eax
ffff80000010d103:	41 89 c0             	mov    %eax,%r8d
ffff80000010d106:	8b 45 e0             	mov    -0x20(%rbp),%eax
ffff80000010d109:	c1 e8 14             	shr    $0x14,%eax
ffff80000010d10c:	0f b6 d0             	movzbl %al,%edx
ffff80000010d10f:	8b 45 e0             	mov    -0x20(%rbp),%eax
ffff80000010d112:	c1 e8 08             	shr    $0x8,%eax
ffff80000010d115:	83 e0 0f             	and    $0xf,%eax
ffff80000010d118:	89 7c 24 10          	mov    %edi,0x10(%rsp)
ffff80000010d11c:	89 74 24 08          	mov    %esi,0x8(%rsp)
ffff80000010d120:	89 0c 24             	mov    %ecx,(%rsp)
ffff80000010d123:	45 89 c1             	mov    %r8d,%r9d
ffff80000010d126:	41 89 d0             	mov    %edx,%r8d
ffff80000010d129:	89 c1                	mov    %eax,%ecx
ffff80000010d12b:	48 ba 88 ac 11 00 00 	movabs $0xffff80000011ac88,%rdx
ffff80000010d132:	80 ff ff 
ffff80000010d135:	be 00 00 00 00       	mov    $0x0,%esi
ffff80000010d13a:	bf 00 ff ff 00       	mov    $0xffff00,%edi
ffff80000010d13f:	b8 00 00 00 00       	mov    $0x0,%eax
ffff80000010d144:	49 ba d0 56 10 00 00 	movabs $0xffff8000001056d0,%r10
ffff80000010d14b:	80 ff ff 
ffff80000010d14e:	41 ff d2             	callq  *%r10
ffff80000010d151:	48 8d 45 e0          	lea    -0x20(%rbp),%rax
ffff80000010d155:	48 8d 70 0c          	lea    0xc(%rax),%rsi
ffff80000010d159:	48 8d 45 e0          	lea    -0x20(%rbp),%rax
ffff80000010d15d:	48 8d 48 08          	lea    0x8(%rax),%rcx
ffff80000010d161:	48 8d 45 e0          	lea    -0x20(%rbp),%rax
ffff80000010d165:	48 8d 50 04          	lea    0x4(%rax),%rdx
ffff80000010d169:	48 8d 45 e0          	lea    -0x20(%rbp),%rax
ffff80000010d16d:	49 89 f1             	mov    %rsi,%r9
ffff80000010d170:	49 89 c8             	mov    %rcx,%r8
ffff80000010d173:	48 89 d1             	mov    %rdx,%rcx
ffff80000010d176:	48 89 c2             	mov    %rax,%rdx
ffff80000010d179:	be 00 00 00 00       	mov    $0x0,%esi
ffff80000010d17e:	bf 08 00 00 80       	mov    $0x80000008,%edi
ffff80000010d183:	48 b8 4e 43 10 00 00 	movabs $0xffff80000010434e,%rax
ffff80000010d18a:	80 ff ff 
ffff80000010d18d:	ff d0                	callq  *%rax
ffff80000010d18f:	8b 45 e0             	mov    -0x20(%rbp),%eax
ffff80000010d192:	c1 e8 08             	shr    $0x8,%eax
ffff80000010d195:	0f b6 d0             	movzbl %al,%edx
ffff80000010d198:	8b 45 e0             	mov    -0x20(%rbp),%eax
ffff80000010d19b:	0f b6 c0             	movzbl %al,%eax
ffff80000010d19e:	41 89 d0             	mov    %edx,%r8d
ffff80000010d1a1:	89 c1                	mov    %eax,%ecx
ffff80000010d1a3:	48 ba 08 ad 11 00 00 	movabs $0xffff80000011ad08,%rdx
ffff80000010d1aa:	80 ff ff 
ffff80000010d1ad:	be 00 00 00 00       	mov    $0x0,%esi
ffff80000010d1b2:	bf 00 ff ff 00       	mov    $0xffff00,%edi
ffff80000010d1b7:	b8 00 00 00 00       	mov    $0x0,%eax
ffff80000010d1bc:	49 b9 d0 56 10 00 00 	movabs $0xffff8000001056d0,%r9
ffff80000010d1c3:	80 ff ff 
ffff80000010d1c6:	41 ff d1             	callq  *%r9
ffff80000010d1c9:	48 8d 45 e0          	lea    -0x20(%rbp),%rax
ffff80000010d1cd:	48 8d 70 0c          	lea    0xc(%rax),%rsi
ffff80000010d1d1:	48 8d 45 e0          	lea    -0x20(%rbp),%rax
ffff80000010d1d5:	48 8d 48 08          	lea    0x8(%rax),%rcx
ffff80000010d1d9:	48 8d 45 e0          	lea    -0x20(%rbp),%rax
ffff80000010d1dd:	48 8d 50 04          	lea    0x4(%rax),%rdx
ffff80000010d1e1:	48 8d 45 e0          	lea    -0x20(%rbp),%rax
ffff80000010d1e5:	49 89 f1             	mov    %rsi,%r9
ffff80000010d1e8:	49 89 c8             	mov    %rcx,%r8
ffff80000010d1eb:	48 89 d1             	mov    %rdx,%rcx
ffff80000010d1ee:	48 89 c2             	mov    %rax,%rdx
ffff80000010d1f1:	be 00 00 00 00       	mov    $0x0,%esi
ffff80000010d1f6:	bf 00 00 00 00       	mov    $0x0,%edi
ffff80000010d1fb:	48 b8 4e 43 10 00 00 	movabs $0xffff80000010434e,%rax
ffff80000010d202:	80 ff ff 
ffff80000010d205:	ff d0                	callq  *%rax
ffff80000010d207:	8b 45 e0             	mov    -0x20(%rbp),%eax
ffff80000010d20a:	89 c1                	mov    %eax,%ecx
ffff80000010d20c:	48 ba 40 ad 11 00 00 	movabs $0xffff80000011ad40,%rdx
ffff80000010d213:	80 ff ff 
ffff80000010d216:	be 00 00 00 00       	mov    $0x0,%esi
ffff80000010d21b:	bf ff ff ff 00       	mov    $0xffffff,%edi
ffff80000010d220:	b8 00 00 00 00       	mov    $0x0,%eax
ffff80000010d225:	49 b8 d0 56 10 00 00 	movabs $0xffff8000001056d0,%r8
ffff80000010d22c:	80 ff ff 
ffff80000010d22f:	41 ff d0             	callq  *%r8
ffff80000010d232:	48 8d 45 e0          	lea    -0x20(%rbp),%rax
ffff80000010d236:	48 8d 70 0c          	lea    0xc(%rax),%rsi
ffff80000010d23a:	48 8d 45 e0          	lea    -0x20(%rbp),%rax
ffff80000010d23e:	48 8d 48 08          	lea    0x8(%rax),%rcx
ffff80000010d242:	48 8d 45 e0          	lea    -0x20(%rbp),%rax
ffff80000010d246:	48 8d 50 04          	lea    0x4(%rax),%rdx
ffff80000010d24a:	48 8d 45 e0          	lea    -0x20(%rbp),%rax
ffff80000010d24e:	49 89 f1             	mov    %rsi,%r9
ffff80000010d251:	49 89 c8             	mov    %rcx,%r8
ffff80000010d254:	48 89 d1             	mov    %rdx,%rcx
ffff80000010d257:	48 89 c2             	mov    %rax,%rdx
ffff80000010d25a:	be 00 00 00 00       	mov    $0x0,%esi
ffff80000010d25f:	bf 00 00 00 80       	mov    $0x80000000,%edi
ffff80000010d264:	48 b8 4e 43 10 00 00 	movabs $0xffff80000010434e,%rax
ffff80000010d26b:	80 ff ff 
ffff80000010d26e:	ff d0                	callq  *%rax
ffff80000010d270:	8b 45 e0             	mov    -0x20(%rbp),%eax
ffff80000010d273:	89 c1                	mov    %eax,%ecx
ffff80000010d275:	48 ba 68 ad 11 00 00 	movabs $0xffff80000011ad68,%rdx
ffff80000010d27c:	80 ff ff 
ffff80000010d27f:	be 00 00 00 00       	mov    $0x0,%esi
ffff80000010d284:	bf ff ff ff 00       	mov    $0xffffff,%edi
ffff80000010d289:	b8 00 00 00 00       	mov    $0x0,%eax
ffff80000010d28e:	49 b8 d0 56 10 00 00 	movabs $0xffff8000001056d0,%r8
ffff80000010d295:	80 ff ff 
ffff80000010d298:	41 ff d0             	callq  *%r8
ffff80000010d29b:	c9                   	leaveq 
ffff80000010d29c:	c3                   	retq   

ffff80000010d29d <memset>:
ffff80000010d29d:	55                   	push   %rbp
ffff80000010d29e:	48 89 e5             	mov    %rsp,%rbp
ffff80000010d2a1:	48 89 7d e8          	mov    %rdi,-0x18(%rbp)
ffff80000010d2a5:	89 f0                	mov    %esi,%eax
ffff80000010d2a7:	48 89 55 d8          	mov    %rdx,-0x28(%rbp)
ffff80000010d2ab:	88 45 e4             	mov    %al,-0x1c(%rbp)
ffff80000010d2ae:	0f b6 55 e4          	movzbl -0x1c(%rbp),%edx
ffff80000010d2b2:	48 b8 01 01 01 01 01 	movabs $0x101010101010101,%rax
ffff80000010d2b9:	01 01 01 
ffff80000010d2bc:	48 0f af c2          	imul   %rdx,%rax
ffff80000010d2c0:	48 89 45 f8          	mov    %rax,-0x8(%rbp)
ffff80000010d2c4:	48 8b 45 d8          	mov    -0x28(%rbp),%rax
ffff80000010d2c8:	48 8d 50 07          	lea    0x7(%rax),%rdx
ffff80000010d2cc:	48 85 c0             	test   %rax,%rax
ffff80000010d2cf:	48 0f 48 c2          	cmovs  %rdx,%rax
ffff80000010d2d3:	48 c1 f8 03          	sar    $0x3,%rax
ffff80000010d2d7:	48 89 c2             	mov    %rax,%rdx
ffff80000010d2da:	48 8b 45 f8          	mov    -0x8(%rbp),%rax
ffff80000010d2de:	48 8b 75 d8          	mov    -0x28(%rbp),%rsi
ffff80000010d2e2:	48 8b 7d e8          	mov    -0x18(%rbp),%rdi
ffff80000010d2e6:	48 89 d1             	mov    %rdx,%rcx
ffff80000010d2e9:	fc                   	cld    
ffff80000010d2ea:	f3 48 ab             	rep stos %rax,%es:(%rdi)
ffff80000010d2ed:	40 f6 c6 04          	test   $0x4,%sil
ffff80000010d2f1:	74 01                	je     ffff80000010d2f4 <memset+0x57>
ffff80000010d2f3:	ab                   	stos   %eax,%es:(%rdi)
ffff80000010d2f4:	40 f6 c6 02          	test   $0x2,%sil
ffff80000010d2f8:	74 02                	je     ffff80000010d2fc <memset+0x5f>
ffff80000010d2fa:	66 ab                	stos   %ax,%es:(%rdi)
ffff80000010d2fc:	40 f6 c6 01          	test   $0x1,%sil
ffff80000010d300:	74 01                	je     ffff80000010d303 <memset+0x66>
ffff80000010d302:	aa                   	stos   %al,%es:(%rdi)
ffff80000010d303:	89 f8                	mov    %edi,%eax
ffff80000010d305:	89 ca                	mov    %ecx,%edx
ffff80000010d307:	89 55 f4             	mov    %edx,-0xc(%rbp)
ffff80000010d30a:	89 45 f0             	mov    %eax,-0x10(%rbp)
ffff80000010d30d:	48 8b 45 e8          	mov    -0x18(%rbp),%rax
ffff80000010d311:	5d                   	pop    %rbp
ffff80000010d312:	c3                   	retq   

ffff80000010d313 <io_in8>:
ffff80000010d313:	55                   	push   %rbp
ffff80000010d314:	48 89 e5             	mov    %rsp,%rbp
ffff80000010d317:	89 f8                	mov    %edi,%eax
ffff80000010d319:	66 89 45 ec          	mov    %ax,-0x14(%rbp)
ffff80000010d31d:	c6 45 ff 00          	movb   $0x0,-0x1(%rbp)
ffff80000010d321:	0f b7 45 ec          	movzwl -0x14(%rbp),%eax
ffff80000010d325:	89 c2                	mov    %eax,%edx
ffff80000010d327:	ec                   	in     (%dx),%al
ffff80000010d328:	0f ae f0             	mfence 
ffff80000010d32b:	88 45 ff             	mov    %al,-0x1(%rbp)
ffff80000010d32e:	0f b6 45 ff          	movzbl -0x1(%rbp),%eax
ffff80000010d332:	5d                   	pop    %rbp
ffff80000010d333:	c3                   	retq   

ffff80000010d334 <io_out8>:
ffff80000010d334:	55                   	push   %rbp
ffff80000010d335:	48 89 e5             	mov    %rsp,%rbp
ffff80000010d338:	89 fa                	mov    %edi,%edx
ffff80000010d33a:	89 f0                	mov    %esi,%eax
ffff80000010d33c:	66 89 55 fc          	mov    %dx,-0x4(%rbp)
ffff80000010d340:	88 45 f8             	mov    %al,-0x8(%rbp)
ffff80000010d343:	0f b6 45 f8          	movzbl -0x8(%rbp),%eax
ffff80000010d347:	0f b7 55 fc          	movzwl -0x4(%rbp),%edx
ffff80000010d34b:	ee                   	out    %al,(%dx)
ffff80000010d34c:	0f ae f0             	mfence 
ffff80000010d34f:	5d                   	pop    %rbp
ffff80000010d350:	c3                   	retq   
ffff80000010d351:	55                   	push   %rbp
ffff80000010d352:	48 89 e5             	mov    %rsp,%rbp
ffff80000010d355:	0f 20 d8             	mov    %cr3,%rax
ffff80000010d358:	48 89 45 f8          	mov    %rax,-0x8(%rbp)
ffff80000010d35c:	48 8b 45 f8          	mov    -0x8(%rbp),%rax
ffff80000010d360:	5d                   	pop    %rbp
ffff80000010d361:	c3                   	retq   

ffff80000010d362 <keyboard_handler>:
ffff80000010d362:	55                   	push   %rbp
ffff80000010d363:	48 89 e5             	mov    %rsp,%rbp
ffff80000010d366:	48 83 ec 30          	sub    $0x30,%rsp
ffff80000010d36a:	48 89 7d e8          	mov    %rdi,-0x18(%rbp)
ffff80000010d36e:	48 89 75 e0          	mov    %rsi,-0x20(%rbp)
ffff80000010d372:	48 89 55 d8          	mov    %rdx,-0x28(%rbp)
ffff80000010d376:	bf 60 00 00 00       	mov    $0x60,%edi
ffff80000010d37b:	48 b8 13 d3 10 00 00 	movabs $0xffff80000010d313,%rax
ffff80000010d382:	80 ff ff 
ffff80000010d385:	ff d0                	callq  *%rax
ffff80000010d387:	88 45 ff             	mov    %al,-0x1(%rbp)
ffff80000010d38a:	0f b6 45 ff          	movzbl -0x1(%rbp),%eax
ffff80000010d38e:	89 c1                	mov    %eax,%ecx
ffff80000010d390:	48 ba 8d ad 11 00 00 	movabs $0xffff80000011ad8d,%rdx
ffff80000010d397:	80 ff ff 
ffff80000010d39a:	be 00 00 00 00       	mov    $0x0,%esi
ffff80000010d39f:	bf ff ff ff 00       	mov    $0xffffff,%edi
ffff80000010d3a4:	b8 00 00 00 00       	mov    $0x0,%eax
ffff80000010d3a9:	49 b8 d0 56 10 00 00 	movabs $0xffff8000001056d0,%r8
ffff80000010d3b0:	80 ff ff 
ffff80000010d3b3:	41 ff d0             	callq  *%r8
ffff80000010d3b6:	48 b8 f8 a3 13 00 00 	movabs $0xffff80000013a3f8,%rax
ffff80000010d3bd:	80 ff ff 
ffff80000010d3c0:	48 8b 00             	mov    (%rax),%rax
ffff80000010d3c3:	48 8b 10             	mov    (%rax),%rdx
ffff80000010d3c6:	48 b8 f8 a3 13 00 00 	movabs $0xffff80000013a3f8,%rax
ffff80000010d3cd:	80 ff ff 
ffff80000010d3d0:	48 8b 00             	mov    (%rax),%rax
ffff80000010d3d3:	48 83 c0 78          	add    $0x78,%rax
ffff80000010d3d7:	48 39 c2             	cmp    %rax,%rdx
ffff80000010d3da:	75 21                	jne    ffff80000010d3fd <keyboard_handler+0x9b>
ffff80000010d3dc:	48 b8 f8 a3 13 00 00 	movabs $0xffff80000013a3f8,%rax
ffff80000010d3e3:	80 ff ff 
ffff80000010d3e6:	48 8b 00             	mov    (%rax),%rax
ffff80000010d3e9:	48 ba f8 a3 13 00 00 	movabs $0xffff80000013a3f8,%rdx
ffff80000010d3f0:	80 ff ff 
ffff80000010d3f3:	48 8b 12             	mov    (%rdx),%rdx
ffff80000010d3f6:	48 83 c2 14          	add    $0x14,%rdx
ffff80000010d3fa:	48 89 10             	mov    %rdx,(%rax)
ffff80000010d3fd:	48 b8 f8 a3 13 00 00 	movabs $0xffff80000013a3f8,%rax
ffff80000010d404:	80 ff ff 
ffff80000010d407:	48 8b 00             	mov    (%rax),%rax
ffff80000010d40a:	48 8b 00             	mov    (%rax),%rax
ffff80000010d40d:	0f b6 55 ff          	movzbl -0x1(%rbp),%edx
ffff80000010d411:	88 10                	mov    %dl,(%rax)
ffff80000010d413:	48 b8 f8 a3 13 00 00 	movabs $0xffff80000013a3f8,%rax
ffff80000010d41a:	80 ff ff 
ffff80000010d41d:	48 8b 00             	mov    (%rax),%rax
ffff80000010d420:	8b 50 10             	mov    0x10(%rax),%edx
ffff80000010d423:	83 c2 01             	add    $0x1,%edx
ffff80000010d426:	89 50 10             	mov    %edx,0x10(%rax)
ffff80000010d429:	48 b8 f8 a3 13 00 00 	movabs $0xffff80000013a3f8,%rax
ffff80000010d430:	80 ff ff 
ffff80000010d433:	48 8b 00             	mov    (%rax),%rax
ffff80000010d436:	48 8b 10             	mov    (%rax),%rdx
ffff80000010d439:	48 83 c2 01          	add    $0x1,%rdx
ffff80000010d43d:	48 89 10             	mov    %rdx,(%rax)
ffff80000010d440:	c9                   	leaveq 
ffff80000010d441:	c3                   	retq   

ffff80000010d442 <get_scancode>:
ffff80000010d442:	55                   	push   %rbp
ffff80000010d443:	48 89 e5             	mov    %rsp,%rbp
ffff80000010d446:	c6 45 ff 00          	movb   $0x0,-0x1(%rbp)
ffff80000010d44a:	48 b8 f8 a3 13 00 00 	movabs $0xffff80000013a3f8,%rax
ffff80000010d451:	80 ff ff 
ffff80000010d454:	48 8b 00             	mov    (%rax),%rax
ffff80000010d457:	8b 40 10             	mov    0x10(%rax),%eax
ffff80000010d45a:	85 c0                	test   %eax,%eax
ffff80000010d45c:	75 17                	jne    ffff80000010d475 <get_scancode+0x33>
ffff80000010d45e:	eb 01                	jmp    ffff80000010d461 <get_scancode+0x1f>
ffff80000010d460:	90                   	nop
ffff80000010d461:	48 b8 f8 a3 13 00 00 	movabs $0xffff80000013a3f8,%rax
ffff80000010d468:	80 ff ff 
ffff80000010d46b:	48 8b 00             	mov    (%rax),%rax
ffff80000010d46e:	8b 40 10             	mov    0x10(%rax),%eax
ffff80000010d471:	85 c0                	test   %eax,%eax
ffff80000010d473:	74 eb                	je     ffff80000010d460 <get_scancode+0x1e>
ffff80000010d475:	48 b8 f8 a3 13 00 00 	movabs $0xffff80000013a3f8,%rax
ffff80000010d47c:	80 ff ff 
ffff80000010d47f:	48 8b 00             	mov    (%rax),%rax
ffff80000010d482:	48 8b 50 08          	mov    0x8(%rax),%rdx
ffff80000010d486:	48 b8 f8 a3 13 00 00 	movabs $0xffff80000013a3f8,%rax
ffff80000010d48d:	80 ff ff 
ffff80000010d490:	48 8b 00             	mov    (%rax),%rax
ffff80000010d493:	48 83 c0 78          	add    $0x78,%rax
ffff80000010d497:	48 39 c2             	cmp    %rax,%rdx
ffff80000010d49a:	75 22                	jne    ffff80000010d4be <get_scancode+0x7c>
ffff80000010d49c:	48 b8 f8 a3 13 00 00 	movabs $0xffff80000013a3f8,%rax
ffff80000010d4a3:	80 ff ff 
ffff80000010d4a6:	48 8b 00             	mov    (%rax),%rax
ffff80000010d4a9:	48 ba f8 a3 13 00 00 	movabs $0xffff80000013a3f8,%rdx
ffff80000010d4b0:	80 ff ff 
ffff80000010d4b3:	48 8b 12             	mov    (%rdx),%rdx
ffff80000010d4b6:	48 83 c2 14          	add    $0x14,%rdx
ffff80000010d4ba:	48 89 50 08          	mov    %rdx,0x8(%rax)
ffff80000010d4be:	48 b8 f8 a3 13 00 00 	movabs $0xffff80000013a3f8,%rax
ffff80000010d4c5:	80 ff ff 
ffff80000010d4c8:	48 8b 00             	mov    (%rax),%rax
ffff80000010d4cb:	48 8b 40 08          	mov    0x8(%rax),%rax
ffff80000010d4cf:	0f b6 00             	movzbl (%rax),%eax
ffff80000010d4d2:	88 45 ff             	mov    %al,-0x1(%rbp)
ffff80000010d4d5:	48 b8 f8 a3 13 00 00 	movabs $0xffff80000013a3f8,%rax
ffff80000010d4dc:	80 ff ff 
ffff80000010d4df:	48 8b 00             	mov    (%rax),%rax
ffff80000010d4e2:	8b 50 10             	mov    0x10(%rax),%edx
ffff80000010d4e5:	83 ea 01             	sub    $0x1,%edx
ffff80000010d4e8:	89 50 10             	mov    %edx,0x10(%rax)
ffff80000010d4eb:	48 b8 f8 a3 13 00 00 	movabs $0xffff80000013a3f8,%rax
ffff80000010d4f2:	80 ff ff 
ffff80000010d4f5:	48 8b 00             	mov    (%rax),%rax
ffff80000010d4f8:	48 8b 50 08          	mov    0x8(%rax),%rdx
ffff80000010d4fc:	48 83 c2 01          	add    $0x1,%rdx
ffff80000010d500:	48 89 50 08          	mov    %rdx,0x8(%rax)
ffff80000010d504:	0f b6 45 ff          	movzbl -0x1(%rbp),%eax
ffff80000010d508:	5d                   	pop    %rbp
ffff80000010d509:	c3                   	retq   

ffff80000010d50a <analysis_keycode>:
ffff80000010d50a:	55                   	push   %rbp
ffff80000010d50b:	48 89 e5             	mov    %rsp,%rbp
ffff80000010d50e:	48 83 ec 20          	sub    $0x20,%rsp
ffff80000010d512:	c6 45 ff 00          	movb   $0x0,-0x1(%rbp)
ffff80000010d516:	c7 45 f4 00 00 00 00 	movl   $0x0,-0xc(%rbp)
ffff80000010d51d:	c7 45 ec 00 00 00 00 	movl   $0x0,-0x14(%rbp)
ffff80000010d524:	b8 00 00 00 00       	mov    $0x0,%eax
ffff80000010d529:	48 ba 42 d4 10 00 00 	movabs $0xffff80000010d442,%rdx
ffff80000010d530:	80 ff ff 
ffff80000010d533:	ff d2                	callq  *%rdx
ffff80000010d535:	88 45 ff             	mov    %al,-0x1(%rbp)
ffff80000010d538:	80 7d ff e1          	cmpb   $0xe1,-0x1(%rbp)
ffff80000010d53c:	75 55                	jne    ffff80000010d593 <analysis_keycode+0x89>
ffff80000010d53e:	c7 45 f4 01 00 00 00 	movl   $0x1,-0xc(%rbp)
ffff80000010d545:	c7 45 f8 01 00 00 00 	movl   $0x1,-0x8(%rbp)
ffff80000010d54c:	eb 3a                	jmp    ffff80000010d588 <analysis_keycode+0x7e>
ffff80000010d54e:	b8 00 00 00 00       	mov    $0x0,%eax
ffff80000010d553:	48 ba 42 d4 10 00 00 	movabs $0xffff80000010d442,%rdx
ffff80000010d55a:	80 ff ff 
ffff80000010d55d:	ff d2                	callq  *%rdx
ffff80000010d55f:	48 b9 40 03 11 00 00 	movabs $0xffff800000110340,%rcx
ffff80000010d566:	80 ff ff 
ffff80000010d569:	8b 55 f8             	mov    -0x8(%rbp),%edx
ffff80000010d56c:	48 63 d2             	movslq %edx,%rdx
ffff80000010d56f:	0f b6 14 11          	movzbl (%rcx,%rdx,1),%edx
ffff80000010d573:	38 d0                	cmp    %dl,%al
ffff80000010d575:	74 0d                	je     ffff80000010d584 <analysis_keycode+0x7a>
ffff80000010d577:	c7 45 f4 00 00 00 00 	movl   $0x0,-0xc(%rbp)
ffff80000010d57e:	90                   	nop
ffff80000010d57f:	e9 5e 01 00 00       	jmpq   ffff80000010d6e2 <analysis_keycode+0x1d8>
ffff80000010d584:	83 45 f8 01          	addl   $0x1,-0x8(%rbp)
ffff80000010d588:	83 7d f8 05          	cmpl   $0x5,-0x8(%rbp)
ffff80000010d58c:	7e c0                	jle    ffff80000010d54e <analysis_keycode+0x44>
ffff80000010d58e:	e9 4f 01 00 00       	jmpq   ffff80000010d6e2 <analysis_keycode+0x1d8>
ffff80000010d593:	80 7d ff e0          	cmpb   $0xe0,-0x1(%rbp)
ffff80000010d597:	0f 85 45 01 00 00    	jne    ffff80000010d6e2 <analysis_keycode+0x1d8>
ffff80000010d59d:	b8 00 00 00 00       	mov    $0x0,%eax
ffff80000010d5a2:	48 ba 42 d4 10 00 00 	movabs $0xffff80000010d442,%rdx
ffff80000010d5a9:	80 ff ff 
ffff80000010d5ac:	ff d2                	callq  *%rdx
ffff80000010d5ae:	88 45 ff             	mov    %al,-0x1(%rbp)
ffff80000010d5b1:	0f b6 45 ff          	movzbl -0x1(%rbp),%eax
ffff80000010d5b5:	83 f8 38             	cmp    $0x38,%eax
ffff80000010d5b8:	0f 84 ea 00 00 00    	je     ffff80000010d6a8 <analysis_keycode+0x19e>
ffff80000010d5be:	83 f8 38             	cmp    $0x38,%eax
ffff80000010d5c1:	7f 13                	jg     ffff80000010d5d6 <analysis_keycode+0xcc>
ffff80000010d5c3:	83 f8 1d             	cmp    $0x1d,%eax
ffff80000010d5c6:	0f 84 aa 00 00 00    	je     ffff80000010d676 <analysis_keycode+0x16c>
ffff80000010d5cc:	83 f8 2a             	cmp    $0x2a,%eax
ffff80000010d5cf:	74 27                	je     ffff80000010d5f8 <analysis_keycode+0xee>
ffff80000010d5d1:	e9 04 01 00 00       	jmpq   ffff80000010d6da <analysis_keycode+0x1d0>
ffff80000010d5d6:	3d b7 00 00 00       	cmp    $0xb7,%eax
ffff80000010d5db:	74 5d                	je     ffff80000010d63a <analysis_keycode+0x130>
ffff80000010d5dd:	3d b8 00 00 00       	cmp    $0xb8,%eax
ffff80000010d5e2:	0f 84 d9 00 00 00    	je     ffff80000010d6c1 <analysis_keycode+0x1b7>
ffff80000010d5e8:	3d 9d 00 00 00       	cmp    $0x9d,%eax
ffff80000010d5ed:	0f 84 9c 00 00 00    	je     ffff80000010d68f <analysis_keycode+0x185>
ffff80000010d5f3:	e9 e2 00 00 00       	jmpq   ffff80000010d6da <analysis_keycode+0x1d0>
ffff80000010d5f8:	b8 00 00 00 00       	mov    $0x0,%eax
ffff80000010d5fd:	48 ba 42 d4 10 00 00 	movabs $0xffff80000010d442,%rdx
ffff80000010d604:	80 ff ff 
ffff80000010d607:	ff d2                	callq  *%rdx
ffff80000010d609:	3c e0                	cmp    $0xe0,%al
ffff80000010d60b:	75 28                	jne    ffff80000010d635 <analysis_keycode+0x12b>
ffff80000010d60d:	b8 00 00 00 00       	mov    $0x0,%eax
ffff80000010d612:	48 ba 42 d4 10 00 00 	movabs $0xffff80000010d442,%rdx
ffff80000010d619:	80 ff ff 
ffff80000010d61c:	ff d2                	callq  *%rdx
ffff80000010d61e:	3c 37                	cmp    $0x37,%al
ffff80000010d620:	75 13                	jne    ffff80000010d635 <analysis_keycode+0x12b>
ffff80000010d622:	c7 45 f4 02 00 00 00 	movl   $0x2,-0xc(%rbp)
ffff80000010d629:	c7 45 ec 01 00 00 00 	movl   $0x1,-0x14(%rbp)
ffff80000010d630:	e9 ad 00 00 00       	jmpq   ffff80000010d6e2 <analysis_keycode+0x1d8>
ffff80000010d635:	e9 a8 00 00 00       	jmpq   ffff80000010d6e2 <analysis_keycode+0x1d8>
ffff80000010d63a:	b8 00 00 00 00       	mov    $0x0,%eax
ffff80000010d63f:	48 ba 42 d4 10 00 00 	movabs $0xffff80000010d442,%rdx
ffff80000010d646:	80 ff ff 
ffff80000010d649:	ff d2                	callq  *%rdx
ffff80000010d64b:	3c e0                	cmp    $0xe0,%al
ffff80000010d64d:	75 25                	jne    ffff80000010d674 <analysis_keycode+0x16a>
ffff80000010d64f:	b8 00 00 00 00       	mov    $0x0,%eax
ffff80000010d654:	48 ba 42 d4 10 00 00 	movabs $0xffff80000010d442,%rdx
ffff80000010d65b:	80 ff ff 
ffff80000010d65e:	ff d2                	callq  *%rdx
ffff80000010d660:	3c aa                	cmp    $0xaa,%al
ffff80000010d662:	75 10                	jne    ffff80000010d674 <analysis_keycode+0x16a>
ffff80000010d664:	c7 45 f4 02 00 00 00 	movl   $0x2,-0xc(%rbp)
ffff80000010d66b:	c7 45 ec 00 00 00 00 	movl   $0x0,-0x14(%rbp)
ffff80000010d672:	eb 6e                	jmp    ffff80000010d6e2 <analysis_keycode+0x1d8>
ffff80000010d674:	eb 6c                	jmp    ffff80000010d6e2 <analysis_keycode+0x1d8>
ffff80000010d676:	48 b8 0c a4 13 00 00 	movabs $0xffff80000013a40c,%rax
ffff80000010d67d:	80 ff ff 
ffff80000010d680:	c7 00 01 00 00 00    	movl   $0x1,(%rax)
ffff80000010d686:	c7 45 f4 04 00 00 00 	movl   $0x4,-0xc(%rbp)
ffff80000010d68d:	eb 53                	jmp    ffff80000010d6e2 <analysis_keycode+0x1d8>
ffff80000010d68f:	48 b8 0c a4 13 00 00 	movabs $0xffff80000013a40c,%rax
ffff80000010d696:	80 ff ff 
ffff80000010d699:	c7 00 00 00 00 00    	movl   $0x0,(%rax)
ffff80000010d69f:	c7 45 f4 04 00 00 00 	movl   $0x4,-0xc(%rbp)
ffff80000010d6a6:	eb 3a                	jmp    ffff80000010d6e2 <analysis_keycode+0x1d8>
ffff80000010d6a8:	48 b8 14 a4 13 00 00 	movabs $0xffff80000013a414,%rax
ffff80000010d6af:	80 ff ff 
ffff80000010d6b2:	c7 00 01 00 00 00    	movl   $0x1,(%rax)
ffff80000010d6b8:	c7 45 f4 04 00 00 00 	movl   $0x4,-0xc(%rbp)
ffff80000010d6bf:	eb 21                	jmp    ffff80000010d6e2 <analysis_keycode+0x1d8>
ffff80000010d6c1:	48 b8 14 a4 13 00 00 	movabs $0xffff80000013a414,%rax
ffff80000010d6c8:	80 ff ff 
ffff80000010d6cb:	c7 00 00 00 00 00    	movl   $0x0,(%rax)
ffff80000010d6d1:	c7 45 f4 04 00 00 00 	movl   $0x4,-0xc(%rbp)
ffff80000010d6d8:	eb 08                	jmp    ffff80000010d6e2 <analysis_keycode+0x1d8>
ffff80000010d6da:	c7 45 f4 04 00 00 00 	movl   $0x4,-0xc(%rbp)
ffff80000010d6e1:	90                   	nop
ffff80000010d6e2:	83 7d f4 00          	cmpl   $0x0,-0xc(%rbp)
ffff80000010d6e6:	0f 85 47 01 00 00    	jne    ffff80000010d833 <analysis_keycode+0x329>
ffff80000010d6ec:	48 c7 45 e0 00 00 00 	movq   $0x0,-0x20(%rbp)
ffff80000010d6f3:	00 
ffff80000010d6f4:	c7 45 f0 00 00 00 00 	movl   $0x0,-0x10(%rbp)
ffff80000010d6fb:	0f b6 45 ff          	movzbl -0x1(%rbp),%eax
ffff80000010d6ff:	f7 d0                	not    %eax
ffff80000010d701:	c0 e8 07             	shr    $0x7,%al
ffff80000010d704:	0f b6 c0             	movzbl %al,%eax
ffff80000010d707:	89 45 ec             	mov    %eax,-0x14(%rbp)
ffff80000010d70a:	0f b6 45 ff          	movzbl -0x1(%rbp),%eax
ffff80000010d70e:	83 e0 7f             	and    $0x7f,%eax
ffff80000010d711:	01 c0                	add    %eax,%eax
ffff80000010d713:	48 98                	cltq   
ffff80000010d715:	48 8d 14 85 00 00 00 	lea    0x0(,%rax,4),%rdx
ffff80000010d71c:	00 
ffff80000010d71d:	48 b8 60 03 11 00 00 	movabs $0xffff800000110360,%rax
ffff80000010d724:	80 ff ff 
ffff80000010d727:	48 01 d0             	add    %rdx,%rax
ffff80000010d72a:	48 89 45 e0          	mov    %rax,-0x20(%rbp)
ffff80000010d72e:	48 b8 00 a4 13 00 00 	movabs $0xffff80000013a400,%rax
ffff80000010d735:	80 ff ff 
ffff80000010d738:	8b 00                	mov    (%rax),%eax
ffff80000010d73a:	85 c0                	test   %eax,%eax
ffff80000010d73c:	75 10                	jne    ffff80000010d74e <analysis_keycode+0x244>
ffff80000010d73e:	48 b8 04 a4 13 00 00 	movabs $0xffff80000013a404,%rax
ffff80000010d745:	80 ff ff 
ffff80000010d748:	8b 00                	mov    (%rax),%eax
ffff80000010d74a:	85 c0                	test   %eax,%eax
ffff80000010d74c:	74 07                	je     ffff80000010d755 <analysis_keycode+0x24b>
ffff80000010d74e:	c7 45 f0 01 00 00 00 	movl   $0x1,-0x10(%rbp)
ffff80000010d755:	8b 45 f0             	mov    -0x10(%rbp),%eax
ffff80000010d758:	48 98                	cltq   
ffff80000010d75a:	48 8d 14 85 00 00 00 	lea    0x0(,%rax,4),%rdx
ffff80000010d761:	00 
ffff80000010d762:	48 8b 45 e0          	mov    -0x20(%rbp),%rax
ffff80000010d766:	48 01 d0             	add    %rdx,%rax
ffff80000010d769:	8b 00                	mov    (%rax),%eax
ffff80000010d76b:	89 45 f4             	mov    %eax,-0xc(%rbp)
ffff80000010d76e:	0f b6 45 ff          	movzbl -0x1(%rbp),%eax
ffff80000010d772:	83 e0 7f             	and    $0x7f,%eax
ffff80000010d775:	83 f8 2a             	cmp    $0x2a,%eax
ffff80000010d778:	74 18                	je     ffff80000010d792 <analysis_keycode+0x288>
ffff80000010d77a:	83 f8 2a             	cmp    $0x2a,%eax
ffff80000010d77d:	7f 07                	jg     ffff80000010d786 <analysis_keycode+0x27c>
ffff80000010d77f:	83 f8 1d             	cmp    $0x1d,%eax
ffff80000010d782:	74 3e                	je     ffff80000010d7c2 <analysis_keycode+0x2b8>
ffff80000010d784:	eb 6c                	jmp    ffff80000010d7f2 <analysis_keycode+0x2e8>
ffff80000010d786:	83 f8 36             	cmp    $0x36,%eax
ffff80000010d789:	74 1f                	je     ffff80000010d7aa <analysis_keycode+0x2a0>
ffff80000010d78b:	83 f8 38             	cmp    $0x38,%eax
ffff80000010d78e:	74 4a                	je     ffff80000010d7da <analysis_keycode+0x2d0>
ffff80000010d790:	eb 60                	jmp    ffff80000010d7f2 <analysis_keycode+0x2e8>
ffff80000010d792:	48 b8 00 a4 13 00 00 	movabs $0xffff80000013a400,%rax
ffff80000010d799:	80 ff ff 
ffff80000010d79c:	8b 55 ec             	mov    -0x14(%rbp),%edx
ffff80000010d79f:	89 10                	mov    %edx,(%rax)
ffff80000010d7a1:	c7 45 f4 00 00 00 00 	movl   $0x0,-0xc(%rbp)
ffff80000010d7a8:	eb 58                	jmp    ffff80000010d802 <analysis_keycode+0x2f8>
ffff80000010d7aa:	48 b8 04 a4 13 00 00 	movabs $0xffff80000013a404,%rax
ffff80000010d7b1:	80 ff ff 
ffff80000010d7b4:	8b 55 ec             	mov    -0x14(%rbp),%edx
ffff80000010d7b7:	89 10                	mov    %edx,(%rax)
ffff80000010d7b9:	c7 45 f4 00 00 00 00 	movl   $0x0,-0xc(%rbp)
ffff80000010d7c0:	eb 40                	jmp    ffff80000010d802 <analysis_keycode+0x2f8>
ffff80000010d7c2:	48 b8 08 a4 13 00 00 	movabs $0xffff80000013a408,%rax
ffff80000010d7c9:	80 ff ff 
ffff80000010d7cc:	8b 55 ec             	mov    -0x14(%rbp),%edx
ffff80000010d7cf:	89 10                	mov    %edx,(%rax)
ffff80000010d7d1:	c7 45 f4 00 00 00 00 	movl   $0x0,-0xc(%rbp)
ffff80000010d7d8:	eb 28                	jmp    ffff80000010d802 <analysis_keycode+0x2f8>
ffff80000010d7da:	48 b8 10 a4 13 00 00 	movabs $0xffff80000013a410,%rax
ffff80000010d7e1:	80 ff ff 
ffff80000010d7e4:	8b 55 ec             	mov    -0x14(%rbp),%edx
ffff80000010d7e7:	89 10                	mov    %edx,(%rax)
ffff80000010d7e9:	c7 45 f4 00 00 00 00 	movl   $0x0,-0xc(%rbp)
ffff80000010d7f0:	eb 10                	jmp    ffff80000010d802 <analysis_keycode+0x2f8>
ffff80000010d7f2:	83 7d ec 00          	cmpl   $0x0,-0x14(%rbp)
ffff80000010d7f6:	75 09                	jne    ffff80000010d801 <analysis_keycode+0x2f7>
ffff80000010d7f8:	c7 45 f4 00 00 00 00 	movl   $0x0,-0xc(%rbp)
ffff80000010d7ff:	eb 00                	jmp    ffff80000010d801 <analysis_keycode+0x2f7>
ffff80000010d801:	90                   	nop
ffff80000010d802:	83 7d f4 00          	cmpl   $0x0,-0xc(%rbp)
ffff80000010d806:	74 2b                	je     ffff80000010d833 <analysis_keycode+0x329>
ffff80000010d808:	8b 45 f4             	mov    -0xc(%rbp),%eax
ffff80000010d80b:	89 c1                	mov    %eax,%ecx
ffff80000010d80d:	48 ba 96 ad 11 00 00 	movabs $0xffff80000011ad96,%rdx
ffff80000010d814:	80 ff ff 
ffff80000010d817:	be 00 00 00 00       	mov    $0x0,%esi
ffff80000010d81c:	bf 00 00 ff 00       	mov    $0xff0000,%edi
ffff80000010d821:	b8 00 00 00 00       	mov    $0x0,%eax
ffff80000010d826:	49 b8 d0 56 10 00 00 	movabs $0xffff8000001056d0,%r8
ffff80000010d82d:	80 ff ff 
ffff80000010d830:	41 ff d0             	callq  *%r8
ffff80000010d833:	c9                   	leaveq 
ffff80000010d834:	c3                   	retq   

ffff80000010d835 <keyboard_init>:
ffff80000010d835:	55                   	push   %rbp
ffff80000010d836:	48 89 e5             	mov    %rsp,%rbp
ffff80000010d839:	48 83 ec 20          	sub    $0x20,%rsp
ffff80000010d83d:	be 00 00 00 00       	mov    $0x0,%esi
ffff80000010d842:	bf 78 00 00 00       	mov    $0x78,%edi
ffff80000010d847:	48 b8 04 83 10 00 00 	movabs $0xffff800000108304,%rax
ffff80000010d84e:	80 ff ff 
ffff80000010d851:	ff d0                	callq  *%rax
ffff80000010d853:	48 ba f8 a3 13 00 00 	movabs $0xffff80000013a3f8,%rdx
ffff80000010d85a:	80 ff ff 
ffff80000010d85d:	48 89 02             	mov    %rax,(%rdx)
ffff80000010d860:	48 b8 f8 a3 13 00 00 	movabs $0xffff80000013a3f8,%rax
ffff80000010d867:	80 ff ff 
ffff80000010d86a:	48 8b 00             	mov    (%rax),%rax
ffff80000010d86d:	48 ba f8 a3 13 00 00 	movabs $0xffff80000013a3f8,%rdx
ffff80000010d874:	80 ff ff 
ffff80000010d877:	48 8b 12             	mov    (%rdx),%rdx
ffff80000010d87a:	48 83 c2 14          	add    $0x14,%rdx
ffff80000010d87e:	48 89 10             	mov    %rdx,(%rax)
ffff80000010d881:	48 b8 f8 a3 13 00 00 	movabs $0xffff80000013a3f8,%rax
ffff80000010d888:	80 ff ff 
ffff80000010d88b:	48 8b 00             	mov    (%rax),%rax
ffff80000010d88e:	48 ba f8 a3 13 00 00 	movabs $0xffff80000013a3f8,%rdx
ffff80000010d895:	80 ff ff 
ffff80000010d898:	48 8b 12             	mov    (%rdx),%rdx
ffff80000010d89b:	48 83 c2 14          	add    $0x14,%rdx
ffff80000010d89f:	48 89 50 08          	mov    %rdx,0x8(%rax)
ffff80000010d8a3:	48 b8 f8 a3 13 00 00 	movabs $0xffff80000013a3f8,%rax
ffff80000010d8aa:	80 ff ff 
ffff80000010d8ad:	48 8b 00             	mov    (%rax),%rax
ffff80000010d8b0:	c7 40 10 00 00 00 00 	movl   $0x0,0x10(%rax)
ffff80000010d8b7:	48 b8 f8 a3 13 00 00 	movabs $0xffff80000013a3f8,%rax
ffff80000010d8be:	80 ff ff 
ffff80000010d8c1:	48 8b 00             	mov    (%rax),%rax
ffff80000010d8c4:	48 83 c0 14          	add    $0x14,%rax
ffff80000010d8c8:	ba 64 00 00 00       	mov    $0x64,%edx
ffff80000010d8cd:	be 00 00 00 00       	mov    $0x0,%esi
ffff80000010d8d2:	48 89 c7             	mov    %rax,%rdi
ffff80000010d8d5:	48 b8 9d d2 10 00 00 	movabs $0xffff80000010d29d,%rax
ffff80000010d8dc:	80 ff ff 
ffff80000010d8df:	ff d0                	callq  *%rax
ffff80000010d8e1:	c6 45 e0 21          	movb   $0x21,-0x20(%rbp)
ffff80000010d8e5:	0f b6 45 e1          	movzbl -0x1f(%rbp),%eax
ffff80000010d8e9:	83 e0 f8             	and    $0xfffffff8,%eax
ffff80000010d8ec:	88 45 e1             	mov    %al,-0x1f(%rbp)
ffff80000010d8ef:	0f b6 45 e1          	movzbl -0x1f(%rbp),%eax
ffff80000010d8f3:	83 e0 f7             	and    $0xfffffff7,%eax
ffff80000010d8f6:	88 45 e1             	mov    %al,-0x1f(%rbp)
ffff80000010d8f9:	0f b6 45 e1          	movzbl -0x1f(%rbp),%eax
ffff80000010d8fd:	83 e0 ef             	and    $0xffffffef,%eax
ffff80000010d900:	88 45 e1             	mov    %al,-0x1f(%rbp)
ffff80000010d903:	0f b6 45 e1          	movzbl -0x1f(%rbp),%eax
ffff80000010d907:	83 e0 df             	and    $0xffffffdf,%eax
ffff80000010d90a:	88 45 e1             	mov    %al,-0x1f(%rbp)
ffff80000010d90d:	0f b6 45 e1          	movzbl -0x1f(%rbp),%eax
ffff80000010d911:	83 e0 bf             	and    $0xffffffbf,%eax
ffff80000010d914:	88 45 e1             	mov    %al,-0x1f(%rbp)
ffff80000010d917:	0f b6 45 e1          	movzbl -0x1f(%rbp),%eax
ffff80000010d91b:	83 e0 7f             	and    $0x7f,%eax
ffff80000010d91e:	88 45 e1             	mov    %al,-0x1f(%rbp)
ffff80000010d921:	0f b6 45 e2          	movzbl -0x1e(%rbp),%eax
ffff80000010d925:	83 c8 01             	or     $0x1,%eax
ffff80000010d928:	88 45 e2             	mov    %al,-0x1e(%rbp)
ffff80000010d92b:	0f b7 45 e2          	movzwl -0x1e(%rbp),%eax
ffff80000010d92f:	83 e0 01             	and    $0x1,%eax
ffff80000010d932:	66 89 45 e2          	mov    %ax,-0x1e(%rbp)
ffff80000010d936:	8b 45 e4             	mov    -0x1c(%rbp),%eax
ffff80000010d939:	25 00 00 00 ff       	and    $0xff000000,%eax
ffff80000010d93e:	89 45 e4             	mov    %eax,-0x1c(%rbp)
ffff80000010d941:	0f b6 45 e7          	movzbl -0x19(%rbp),%eax
ffff80000010d945:	83 e0 f0             	and    $0xfffffff0,%eax
ffff80000010d948:	88 45 e7             	mov    %al,-0x19(%rbp)
ffff80000010d94b:	0f b6 45 e7          	movzbl -0x19(%rbp),%eax
ffff80000010d94f:	83 e0 0f             	and    $0xf,%eax
ffff80000010d952:	88 45 e7             	mov    %al,-0x19(%rbp)
ffff80000010d955:	90                   	nop
ffff80000010d956:	bf 64 00 00 00       	mov    $0x64,%edi
ffff80000010d95b:	48 b8 13 d3 10 00 00 	movabs $0xffff80000010d313,%rax
ffff80000010d962:	80 ff ff 
ffff80000010d965:	ff d0                	callq  *%rax
ffff80000010d967:	0f b6 c0             	movzbl %al,%eax
ffff80000010d96a:	83 e0 02             	and    $0x2,%eax
ffff80000010d96d:	85 c0                	test   %eax,%eax
ffff80000010d96f:	75 e5                	jne    ffff80000010d956 <keyboard_init+0x121>
ffff80000010d971:	be 60 00 00 00       	mov    $0x60,%esi
ffff80000010d976:	bf 64 00 00 00       	mov    $0x64,%edi
ffff80000010d97b:	48 b8 34 d3 10 00 00 	movabs $0xffff80000010d334,%rax
ffff80000010d982:	80 ff ff 
ffff80000010d985:	ff d0                	callq  *%rax
ffff80000010d987:	90                   	nop
ffff80000010d988:	bf 64 00 00 00       	mov    $0x64,%edi
ffff80000010d98d:	48 b8 13 d3 10 00 00 	movabs $0xffff80000010d313,%rax
ffff80000010d994:	80 ff ff 
ffff80000010d997:	ff d0                	callq  *%rax
ffff80000010d999:	0f b6 c0             	movzbl %al,%eax
ffff80000010d99c:	83 e0 02             	and    $0x2,%eax
ffff80000010d99f:	85 c0                	test   %eax,%eax
ffff80000010d9a1:	75 e5                	jne    ffff80000010d988 <keyboard_init+0x153>
ffff80000010d9a3:	be 47 00 00 00       	mov    $0x47,%esi
ffff80000010d9a8:	bf 60 00 00 00       	mov    $0x60,%edi
ffff80000010d9ad:	48 b8 34 d3 10 00 00 	movabs $0xffff80000010d334,%rax
ffff80000010d9b4:	80 ff ff 
ffff80000010d9b7:	ff d0                	callq  *%rax
ffff80000010d9b9:	48 c7 45 f8 00 00 00 	movq   $0x0,-0x8(%rbp)
ffff80000010d9c0:	00 
ffff80000010d9c1:	eb 1f                	jmp    ffff80000010d9e2 <keyboard_init+0x1ad>
ffff80000010d9c3:	48 c7 45 f0 00 00 00 	movq   $0x0,-0x10(%rbp)
ffff80000010d9ca:	00 
ffff80000010d9cb:	eb 06                	jmp    ffff80000010d9d3 <keyboard_init+0x19e>
ffff80000010d9cd:	90                   	nop
ffff80000010d9ce:	48 83 45 f0 01       	addq   $0x1,-0x10(%rbp)
ffff80000010d9d3:	48 81 7d f0 e7 03 00 	cmpq   $0x3e7,-0x10(%rbp)
ffff80000010d9da:	00 
ffff80000010d9db:	76 f0                	jbe    ffff80000010d9cd <keyboard_init+0x198>
ffff80000010d9dd:	48 83 45 f8 01       	addq   $0x1,-0x8(%rbp)
ffff80000010d9e2:	48 81 7d f8 e7 03 00 	cmpq   $0x3e7,-0x8(%rbp)
ffff80000010d9e9:	00 
ffff80000010d9ea:	76 d7                	jbe    ffff80000010d9c3 <keyboard_init+0x18e>
ffff80000010d9ec:	48 b8 00 a4 13 00 00 	movabs $0xffff80000013a400,%rax
ffff80000010d9f3:	80 ff ff 
ffff80000010d9f6:	c7 00 00 00 00 00    	movl   $0x0,(%rax)
ffff80000010d9fc:	48 b8 04 a4 13 00 00 	movabs $0xffff80000013a404,%rax
ffff80000010da03:	80 ff ff 
ffff80000010da06:	c7 00 00 00 00 00    	movl   $0x0,(%rax)
ffff80000010da0c:	48 b8 08 a4 13 00 00 	movabs $0xffff80000013a408,%rax
ffff80000010da13:	80 ff ff 
ffff80000010da16:	c7 00 00 00 00 00    	movl   $0x0,(%rax)
ffff80000010da1c:	48 b8 0c a4 13 00 00 	movabs $0xffff80000013a40c,%rax
ffff80000010da23:	80 ff ff 
ffff80000010da26:	c7 00 00 00 00 00    	movl   $0x0,(%rax)
ffff80000010da2c:	48 b8 10 a4 13 00 00 	movabs $0xffff80000013a410,%rax
ffff80000010da33:	80 ff ff 
ffff80000010da36:	c7 00 00 00 00 00    	movl   $0x0,(%rax)
ffff80000010da3c:	48 b8 14 a4 13 00 00 	movabs $0xffff80000013a414,%rax
ffff80000010da43:	80 ff ff 
ffff80000010da46:	c7 00 00 00 00 00    	movl   $0x0,(%rax)
ffff80000010da4c:	48 b8 f8 a3 13 00 00 	movabs $0xffff80000013a3f8,%rax
ffff80000010da53:	80 ff ff 
ffff80000010da56:	48 8b 00             	mov    (%rax),%rax
ffff80000010da59:	48 89 c2             	mov    %rax,%rdx
ffff80000010da5c:	48 8d 45 e0          	lea    -0x20(%rbp),%rax
ffff80000010da60:	49 b9 9e ad 11 00 00 	movabs $0xffff80000011ad9e,%r9
ffff80000010da67:	80 ff ff 
ffff80000010da6a:	49 b8 00 96 11 00 00 	movabs $0xffff800000119600,%r8
ffff80000010da71:	80 ff ff 
ffff80000010da74:	48 89 d1             	mov    %rdx,%rcx
ffff80000010da77:	48 ba 62 d3 10 00 00 	movabs $0xffff80000010d362,%rdx
ffff80000010da7e:	80 ff ff 
ffff80000010da81:	48 89 c6             	mov    %rax,%rsi
ffff80000010da84:	bf 21 00 00 00       	mov    $0x21,%edi
ffff80000010da89:	48 b8 db ac 10 00 00 	movabs $0xffff80000010acdb,%rax
ffff80000010da90:	80 ff ff 
ffff80000010da93:	ff d0                	callq  *%rax
ffff80000010da95:	c9                   	leaveq 
ffff80000010da96:	c3                   	retq   

ffff80000010da97 <keyboard_exit>:
ffff80000010da97:	55                   	push   %rbp
ffff80000010da98:	48 89 e5             	mov    %rsp,%rbp
ffff80000010da9b:	bf 21 00 00 00       	mov    $0x21,%edi
ffff80000010daa0:	48 b8 92 ad 10 00 00 	movabs $0xffff80000010ad92,%rax
ffff80000010daa7:	80 ff ff 
ffff80000010daaa:	ff d0                	callq  *%rax
ffff80000010daac:	48 b8 f8 a3 13 00 00 	movabs $0xffff80000013a3f8,%rax
ffff80000010dab3:	80 ff ff 
ffff80000010dab6:	48 8b 00             	mov    (%rax),%rax
ffff80000010dab9:	48 89 c7             	mov    %rax,%rdi
ffff80000010dabc:	48 b8 b1 8c 10 00 00 	movabs $0xffff800000108cb1,%rax
ffff80000010dac3:	80 ff ff 
ffff80000010dac6:	ff d0                	callq  *%rax
ffff80000010dac8:	5d                   	pop    %rbp
ffff80000010dac9:	c3                   	retq   
